Archive member included because of file (symbol)

arch/arm/lib/lib.a(ashldi3.o)
                              arch/arm/kernel/built-in.o (__ashldi3)
arch/arm/lib/lib.a(ashrdi3.o)
                              arch/arm/kernel/built-in.o (__ashrdi3)
arch/arm/lib/lib.a(backtrace.o)
                              arch/arm/kernel/built-in.o (__backtrace)
arch/arm/lib/lib.a(changebit.o)
                              arch/arm/kernel/built-in.o (_change_bit_le)
arch/arm/lib/lib.a(clear_user.o)
                              arch/arm/kernel/built-in.o (__clear_user)
arch/arm/lib/lib.a(clearbit.o)
                              arch/arm/kernel/built-in.o (_clear_bit_le)
arch/arm/lib/lib.a(copy_from_user.o)
                              arch/arm/kernel/built-in.o (__copy_from_user)
arch/arm/lib/lib.a(copy_page.o)
                              arch/arm/kernel/built-in.o (copy_page)
arch/arm/lib/lib.a(copy_to_user.o)
                              arch/arm/kernel/built-in.o (__copy_to_user)
arch/arm/lib/lib.a(csumipv6.o)
                              arch/arm/kernel/built-in.o (__csum_ipv6_magic)
arch/arm/lib/lib.a(csumpartial.o)
                              arch/arm/kernel/built-in.o (csum_partial)
arch/arm/lib/lib.a(csumpartialcopy.o)
                              arch/arm/kernel/built-in.o (csum_partial_copy_nocheck)
arch/arm/lib/lib.a(csumpartialcopyuser.o)
                              arch/arm/kernel/built-in.o (csum_partial_copy_from_user)
arch/arm/lib/lib.a(delay.o)   arch/arm/kernel/built-in.o (__udelay)
arch/arm/lib/lib.a(div64.o)   arch/arm/kernel/built-in.o (__do_div64)
arch/arm/lib/lib.a(findbit.o)
                              arch/arm/kernel/built-in.o (_find_first_zero_bit_le)
arch/arm/lib/lib.a(getuser.o)
                              arch/arm/kernel/built-in.o (__get_user_1)
arch/arm/lib/lib.a(io-readsb.o)
                              arch/arm/kernel/built-in.o (__raw_readsb)
arch/arm/lib/lib.a(io-readsl.o)
                              arch/arm/kernel/built-in.o (__raw_readsl)
arch/arm/lib/lib.a(io-readsw-armv4.o)
                              arch/arm/kernel/built-in.o (__raw_readsw)
arch/arm/lib/lib.a(io-writesb.o)
                              arch/arm/kernel/built-in.o (__raw_writesb)
arch/arm/lib/lib.a(io-writesl.o)
                              arch/arm/kernel/built-in.o (__raw_writesl)
arch/arm/lib/lib.a(io-writesw-armv4.o)
                              arch/arm/kernel/built-in.o (__raw_writesw)
arch/arm/lib/lib.a(lib1funcs.o)
                              arch/arm/kernel/built-in.o (__udivsi3)
arch/arm/lib/lib.a(lshrdi3.o)
                              arch/arm/kernel/built-in.o (__lshrdi3)
arch/arm/lib/lib.a(memchr.o)  arch/arm/kernel/built-in.o (memchr)
arch/arm/lib/lib.a(memcpy.o)  init/built-in.o (memcpy)
arch/arm/lib/lib.a(memmove.o)
                              init/built-in.o (memmove)
arch/arm/lib/lib.a(memset.o)  init/built-in.o (memset)
arch/arm/lib/lib.a(memzero.o)
                              init/built-in.o (__memzero)
arch/arm/lib/lib.a(muldi3.o)  arch/arm/kernel/built-in.o (__muldi3)
arch/arm/lib/lib.a(putuser.o)
                              arch/arm/kernel/built-in.o (__put_user_1)
arch/arm/lib/lib.a(setbit.o)  arch/arm/kernel/built-in.o (_set_bit_le)
arch/arm/lib/lib.a(sha1.o)    arch/arm/kernel/built-in.o (sha_transform)
arch/arm/lib/lib.a(strchr.o)  init/built-in.o (strchr)
arch/arm/lib/lib.a(strncpy_from_user.o)
                              arch/arm/kernel/built-in.o (__strncpy_from_user)
arch/arm/lib/lib.a(strnlen_user.o)
                              arch/arm/kernel/built-in.o (__strnlen_user)
arch/arm/lib/lib.a(strrchr.o)
                              arch/arm/kernel/built-in.o (strrchr)
arch/arm/lib/lib.a(testchangebit.o)
                              arch/arm/kernel/built-in.o (_test_and_change_bit_le)
arch/arm/lib/lib.a(testclearbit.o)
                              arch/arm/kernel/built-in.o (_test_and_clear_bit_le)
arch/arm/lib/lib.a(testsetbit.o)
                              arch/arm/kernel/built-in.o (_test_and_set_bit_le)
arch/arm/lib/lib.a(ucmpdi2.o)
                              arch/arm/kernel/built-in.o (__ucmpdi2)
lib/lib.a(argv_split.o)       kernel/built-in.o (argv_free)
lib/lib.a(cmdline.o)          arch/arm/mach-GM/platform-GM8126/built-in.o (memparse)
lib/lib.a(ctype.o)            init/built-in.o (_ctype)
lib/lib.a(dec_and_lock.o)     kernel/built-in.o (_atomic_dec_and_lock)
lib/lib.a(extable.o)          kernel/built-in.o (sort_extable)
lib/lib.a(idr.o)              kernel/built-in.o (idr_init)
lib/lib.a(int_sqrt.o)         mm/built-in.o (int_sqrt)
lib/lib.a(irq_regs.o)         arch/arm/kernel/built-in.o (per_cpu____irq_regs)
lib/lib.a(kobject.o)          fs/built-in.o (kobject_init)
lib/lib.a(kref.o)             lib/lib.a(kobject.o) (kref_init)
lib/lib.a(prio_tree.o)        init/built-in.o (prio_tree_init)
lib/lib.a(proportions.o)      mm/built-in.o (prop_descriptor_init)
lib/lib.a(radix-tree.o)       mm/built-in.o (radix_tree_lookup_slot)
lib/lib.a(ratelimit.o)        kernel/built-in.o (__ratelimit)
lib/lib.a(rbtree.o)           kernel/built-in.o (rb_insert_color)
lib/lib.a(reciprocal_div.o)   mm/built-in.o (reciprocal_value)
lib/lib.a(rwsem-spinlock.o)   kernel/built-in.o (__init_rwsem)
lib/lib.a(string.o)           init/built-in.o (strcpy)
lib/lib.a(vsprintf.o)         init/built-in.o (simple_strtoul)
lib/lib.a(klist.o)            drivers/built-in.o (klist_init)

Memory Configuration

Name             Origin             Length             Attributes
*default*        0x0000000000000000 0xffffffffffffffff

Linker script and memory map

                0x00000000c01ef688                jiffies = jiffies_64

.note.gnu.build-id
                0x0000000000000000       0x24
 .note.gnu.build-id
                0x0000000000000000       0x24 linker stubs
                0x00000000c0008000                . = 0xc0008000

.text.head      0x00000000c0008000      0x240
                0x00000000c0008000                _stext = .
                0x00000000c0008000                _sinittext = .
 *(.text.head)
 .text.head     0x00000000c0008000      0x240 arch/arm/kernel/head.o
                0x00000000c0008000                stext
                0x00000000c0008198                lookup_processor_type
                0x00000000c00081f4                lookup_machine_type

.init           0x00000000c0008240    0x17dc0
 *(.init.text)
 .init.text     0x00000000c0008240     0x5f74 init/built-in.o
                0x00000000c000861c                parse_early_param
                0x00000000c0008688                smp_setup_processor_id
                0x00000000c0008698                thread_info_cache_init
                0x00000000c00086a8                start_kernel
                0x00000000c0008c5c                mount_block_root
                0x00000000c0008ee8                change_floppy
                0x00000000c0008fe4                mount_root
                0x00000000c0009050                prepare_namespace
                0x00000000c000a5f0                rd_load_image
                0x00000000c000b53c                rd_load_disk
                0x00000000c000b698                initrd_load
 .init.text     0x00000000c000e1b4      0x490 arch/arm/mach-GM/platform-GM8126/built-in.o
 *fill*         0x00000000c000e644       0x1c 00
 .init.text     0x00000000c000e660      0xf50 arch/arm/kernel/built-in.o
                0x00000000c000e660                convert_to_tag_list
                0x00000000c000e7f0                squash_mem_tags
                0x00000000c000e840                __kuser_helper_start
                0x00000000c000e8a0                __kuser_helper_end
                0x00000000c000e8a0                __stubs_start
                0x00000000c000eac4                __stubs_end
                0x00000000c000eac4                __vectors_start
                0x00000000c000eae4                __vectors_end
                0x00000000c000eb00                init_IRQ
                0x00000000c000eb88                reboot_setup
                0x00000000c000ee94                setup_arch
                0x00000000c000f498                time_init
                0x00000000c000f4bc                trap_init
                0x00000000c000f4cc                early_trap_init
                0x00000000c000f58c                init_FIQ
 .init.text     0x00000000c000f5b0     0x17d4 arch/arm/mm/built-in.o
                0x00000000c000f678                hook_fault_code
                0x00000000c000f778                bootmem_init
                0x00000000c000fc00                mem_init
                0x00000000c000fe84                check_writebuffer_bugs
                0x00000000c0010210                create_mapping
                0x00000000c00105ac                iotable_init
                0x00000000c00105f0                reserve_node_zero
                0x00000000c001063c                paging_init
 .init.text     0x00000000c0010d84      0x948 arch/arm/mach-GM/built-in.o
                0x00000000c0010d84                ftintc010_cascade_irq
                0x00000000c0010ddc                ftintc010_init
                0x00000000c0010f84                fttmr010_clockevent_init
                0x00000000c00110d4                fttmr010_clocksource_init
                0x00000000c00112d4                __arch_adjust_zones
 .init.text     0x00000000c00116cc     0x1bb0 kernel/built-in.o
                0x00000000c00116cc                sched_init_smp
                0x00000000c001170c                sched_init
                0x00000000c0011954                fork_init
                0x00000000c00119ec                proc_caches_init
                0x00000000c0011e3c                softirq_init
                0x00000000c00120ec                reserve_region_with_split
                0x00000000c0012158                init_timers
                0x00000000c00122c4                signals_init
                0x00000000c0012308                usermodehelper_init
                0x00000000c001235c                init_workqueues
                0x00000000c00123d4                pidhash_init
                0x00000000c0012480                pidmap_init
                0x00000000c0012518                rcu_init
                0x00000000c001252c                sort_main_extable
                0x00000000c0012970                hrtimers_init
                0x00000000c0012b9c                timekeeping_init
                0x00000000c0012d0c                ntp_init
                0x00000000c0012efc                tick_init
                0x00000000c0013108                set_irq_noprobe
                0x00000000c00131a0                set_irq_probe
                0x00000000c0013238                __rcu_init
 .init.text     0x00000000c001327c     0x1e3c mm/built-in.o
                0x00000000c0013b3c                bootmem_bootmap_pages
                0x00000000c0013d90                init_bootmem_node
                0x00000000c0013da8                init_bootmem
                0x00000000c0013dec                free_all_bootmem_node
                0x00000000c0013e04                free_all_bootmem
                0x00000000c0013e24                free_bootmem_node
                0x00000000c0013e60                free_bootmem
                0x00000000c0013e90                reserve_bootmem_node
                0x00000000c0013ecc                reserve_bootmem
                0x00000000c0013efc                __alloc_bootmem_nopanic
                0x00000000c0013f14                __alloc_bootmem
                0x00000000c0013f2c                __alloc_bootmem_node
                0x00000000c0013f54                __alloc_bootmem_node_nopanic
                0x00000000c0013fa0                __alloc_bootmem_low
                0x00000000c0013fb8                __alloc_bootmem_low_node
                0x00000000c0013fe0                set_dma_reserve
                0x00000000c0013ffc                page_alloc_init
                0x00000000c0014064                free_area_init_node
                0x00000000c0014404                free_area_init
                0x00000000c0014428                alloc_large_system_hash
                0x00000000c0014684                page_writeback_init
                0x00000000c0014738                swap_setup
                0x00000000c0014938                anon_vma_init
                0x00000000c00149c0                vmalloc_init
                0x00000000c0014c40                kmem_cache_init
 .init.text     0x00000000c00150b8     0x1610 fs/built-in.o
                0x00000000c00150b8                files_init
                0x00000000c0015104                chrdev_init
                0x00000000c0015224                vfs_caches_init_early
                0x00000000c00152b0                vfs_caches_init
                0x00000000c001542c                inode_init_early
                0x00000000c00154b4                inode_init
                0x00000000c0015574                files_defer_init
                0x00000000c0015620                mnt_init
                0x00000000c0015820                buffer_init
                0x00000000c0015964                bdev_cache_init
                0x00000000c0015dac                proc_init_inodecache
                0x00000000c0015df4                proc_root_init
                0x00000000c0015ec0                proc_tty_init
                0x00000000c00161a8                proc_sys_init
                0x00000000c0016288                proc_net_init
                0x00000000c001635c                sysfs_inode_init
                0x00000000c0016378                sysfs_init
                0x00000000c0016528                init_rootfs
 .init.text     0x00000000c00166c8      0x1d8 ipc/built-in.o
                0x00000000c00166f4                ipc_init_proc_interface
                0x00000000c0016768                msg_init
                0x00000000c00167b8                sem_init
                0x00000000c0016820                shm_init
 .init.text     0x00000000c00168a0      0x568 block/built-in.o
                0x00000000c00168fc                blk_dev_init
                0x00000000c0016a28                blk_softirq_init
                0x00000000c0016b34                printk_all_partitions
 .init.text     0x00000000c0016e08       0x48 lib/lib.a(idr.o)
                0x00000000c0016e08                idr_init_cache
 .init.text     0x00000000c0016e50       0x48 lib/lib.a(prio_tree.o)
                0x00000000c0016e50                prio_tree_init
 .init.text     0x00000000c0016e98       0x80 lib/lib.a(radix-tree.o)
                0x00000000c0016e98                radix_tree_init
 .init.text     0x00000000c0016f18       0xd8 lib/built-in.o
 .init.text     0x00000000c0016ff0     0x2220 drivers/built-in.o
                0x00000000c0017034                gpiochip_reserve
                0x00000000c0017364                console_init
                0x00000000c001789c                uart_get_console
                0x00000000c0017ca4                early_serial_setup
                0x00000000c0017e38                setup_early_serial8250_console
                0x00000000c00181d4                devices_init
                0x00000000c0018294                system_bus_init
                0x00000000c00182dc                buses_init
                0x00000000c001831c                classes_init
                0x00000000c0018358                platform_bus_init
                0x00000000c001839c                cpu_dev_init
                0x00000000c00183f0                firmware_init
                0x00000000c0018428                driver_init
                0x00000000c0018bb4                spi_register_board_info
                0x00000000c0018ee0                rtc_dev_init
                0x00000000c0018f28                rtc_sysfs_init
                0x00000000c0018f44                i2c_register_board_info
 .init.text     0x00000000c0019210     0x2828 net/built-in.o
                0x00000000c00192c8                sk_init
                0x00000000c0019328                skb_init
                0x00000000c00197cc                netdev_boot_setup
                0x00000000c0019908                dev_mcast_init
                0x00000000c0019924                dst_init
                0x00000000c00199cc                rtnetlink_init
                0x00000000c0019e98                netfilter_init
                0x00000000c0019f4c                netfilter_log_init
                0x00000000c0019f9c                netfilter_queue_init
                0x00000000c001a1ec                ip_rt_init
                0x00000000c001a354                ip_static_sysctl_init
                0x00000000c001a378                inet_initpeers
                0x00000000c001a444                ipfrag_init
                0x00000000c001a4dc                ip_init
                0x00000000c001a538                tcp_init
                0x00000000c001a81c                tcp4_proc_init
                0x00000000c001a838                tcp_v4_init
                0x00000000c001a8b4                raw_proc_init
                0x00000000c001a8d0                raw_proc_exit
                0x00000000c001a8ec                udp4_proc_init
                0x00000000c001a908                udp_init
                0x00000000c001a974                udplite4_register
                0x00000000c001aa38                arp_init
                0x00000000c001ab70                icmp_init
                0x00000000c001acfc                devinet_init
                0x00000000c001b154                igmp_mc_proc_init
                0x00000000c001b2e4                ip_fib_init
                0x00000000c001b46c                fib_hash_init
                0x00000000c001b4d0                fib_proc_init
                0x00000000c001b5a8                ip_misc_proc_init
                0x00000000c001b738                xfrm4_init
                0x00000000c001b758                xfrm4_state_init
                0x00000000c001b774                xfrm_init
                0x00000000c001b864                xfrm_state_init
                0x00000000c001b8f4                xfrm_input_init
 *(.devinit.text)
 .devinit.text  0x00000000c001ba38      0x698 drivers/built-in.o
 *(.cpuinit.text)
 .cpuinit.text  0x00000000c001c0d0      0x174 init/built-in.o
                0x00000000c001c0d0                calibrate_delay
 .cpuinit.text  0x00000000c001c244      0x4a4 kernel/built-in.o
                0x00000000c001c244                init_idle_bootup_task
                0x00000000c001c260                init_idle
                0x00000000c001c368                idle_regs
                0x00000000c001c388                fork_idle
 .cpuinit.text  0x00000000c001c6e8      0x588 mm/built-in.o
 .cpuinit.text  0x00000000c001cc70       0x44 drivers/built-in.o
                0x00000000c001cc70                register_cpu
 *(.meminit.text)
 .meminit.text  0x00000000c001ccb4      0x228 mm/built-in.o
                0x00000000c001ccb4                init_currently_empty_zone
                0x00000000c001cd60                __free_pages_bootmem
                0x00000000c001cdec                memmap_init_zone
                0x00000000c001cedc                _einittext = .
                0x00000000c001cedc                __proc_info_begin = .
 *(.proc.info.init)
 .proc.info.init
                0x00000000c001cedc       0x34 arch/arm/mm/built-in.o
                0x00000000c001cf10                __proc_info_end = .
                0x00000000c001cf10                __arch_info_begin = .
 *(.arch.info.init)
 .arch.info.init
                0x00000000c001cf10       0x34 arch/arm/mach-GM/platform-GM8126/built-in.o
                0x00000000c001cf44                __arch_info_end = .
                0x00000000c001cf44                __tagtable_begin = .
 *(.taglist.init)
 .taglist.init  0x00000000c001cf44       0x30 arch/arm/kernel/built-in.o
 .taglist.init  0x00000000c001cf74       0x10 arch/arm/mm/built-in.o
                0x00000000c001cf84                __tagtable_end = .
                0x00000000c001cf90                . = ALIGN (0x10)
 *fill*         0x00000000c001cf84        0xc 00
                0x00000000c001cf90                __setup_start = .
 *(.init.setup)
 .init.setup    0x00000000c001cf90       0xe4 init/built-in.o
 .init.setup    0x00000000c001d074       0x24 arch/arm/kernel/built-in.o
 .init.setup    0x00000000c001d098       0x18 arch/arm/mm/built-in.o
 .init.setup    0x00000000c001d0b0       0xa8 kernel/built-in.o
 .init.setup    0x00000000c001d158       0x24 mm/built-in.o
 .init.setup    0x00000000c001d17c       0x18 fs/built-in.o
 .init.setup    0x00000000c001d194        0xc block/built-in.o
 .init.setup    0x00000000c001d1a0       0x30 drivers/built-in.o
 .init.setup    0x00000000c001d1d0       0x30 net/built-in.o
                0x00000000c001d200                __setup_end = .
                0x00000000c001d200                __early_begin = .
 *(.early_param.init)
 .early_param.init
                0x00000000c001d200        0x8 arch/arm/kernel/built-in.o
 .early_param.init
                0x00000000c001d208       0x30 arch/arm/mm/built-in.o
                0x00000000c001d238                __early_end = .
                0x00000000c001d238                __initcall_start = .
 *(.initcallearly.init)
 .initcallearly.init
                0x00000000c001d238        0x4 kernel/built-in.o
                0x00000000c001d23c                __early_initcall_end = .
 *(.initcall0.init)
 .initcall0.init
                0x00000000c001d23c        0x4 net/built-in.o
 *(.initcall0s.init)
 *(.initcall1.init)
 .initcall1.init
                0x00000000c001d240        0x4 arch/arm/kernel/built-in.o
 .initcall1.init
                0x00000000c001d244        0x4 arch/arm/mm/built-in.o
 .initcall1.init
                0x00000000c001d248        0x4 arch/arm/mach-GM/built-in.o
 .initcall1.init
                0x00000000c001d24c        0xc kernel/built-in.o
 .initcall1.init
                0x00000000c001d258       0x10 fs/built-in.o
 .initcall1.init
                0x00000000c001d268        0x4 lib/built-in.o
 .initcall1.init
                0x00000000c001d26c        0x8 net/built-in.o
 *(.initcall1s.init)
 *(.initcall2.init)
 .initcall2.init
                0x00000000c001d274        0x4 mm/built-in.o
 .initcall2.init
                0x00000000c001d278        0xc drivers/built-in.o
 *(.initcall2s.init)
 *(.initcall3.init)
 .initcall3.init
                0x00000000c001d284        0x4 arch/arm/mach-GM/platform-GM8126/built-in.o
 .initcall3.init
                0x00000000c001d288        0x4 arch/arm/kernel/built-in.o
 .initcall3.init
                0x00000000c001d28c        0x8 arch/arm/mach-GM/built-in.o
 *(.initcall3s.init)
 *(.initcall4.init)
 .initcall4.init
                0x00000000c001d294        0x4 arch/arm/kernel/built-in.o
 .initcall4.init
                0x00000000c001d298        0x4 kernel/built-in.o
 .initcall4.init
                0x00000000c001d29c        0x4 mm/built-in.o
 .initcall4.init
                0x00000000c001d2a0        0x4 fs/built-in.o
 .initcall4.init
                0x00000000c001d2a4       0x10 block/built-in.o
 .initcall4.init
                0x00000000c001d2b4       0x1c drivers/built-in.o
 .initcall4.init
                0x00000000c001d2d0       0x14 net/built-in.o
 *(.initcall4s.init)
 *(.initcall5.init)
 .initcall5.init
                0x00000000c001d2e4        0x4 arch/arm/mm/built-in.o
 .initcall5.init
                0x00000000c001d2e8        0x4 kernel/built-in.o
 .initcall5.init
                0x00000000c001d2ec       0x10 fs/built-in.o
 .initcall5.init
                0x00000000c001d2fc        0x8 drivers/built-in.o
 .initcall5.init
                0x00000000c001d304        0x8 net/built-in.o
 *(.initcall5s.init)
 *(.initcallrootfs.init)
 .initcallrootfs.init
                0x00000000c001d30c        0x4 init/built-in.o
 *(.initcall6.init)
 .initcall6.init
                0x00000000c001d310        0x4 arch/arm/mach-GM/platform-GM8126/built-in.o
 .initcall6.init
                0x00000000c001d314        0x4 arch/arm/kernel/built-in.o
 .initcall6.init
                0x00000000c001d318       0x34 kernel/built-in.o
 .initcall6.init
                0x00000000c001d34c       0x28 mm/built-in.o
 .initcall6.init
                0x00000000c001d374       0x70 fs/built-in.o
 .initcall6.init
                0x00000000c001d3e4        0x8 ipc/built-in.o
 .initcall6.init
                0x00000000c001d3ec       0x14 block/built-in.o
 .initcall6.init
                0x00000000c001d400       0x48 drivers/built-in.o
 .initcall6.init
                0x00000000c001d448       0x2c net/built-in.o
 *(.initcall6s.init)
 *(.initcall7.init)
 .initcall7.init
                0x00000000c001d474        0xc kernel/built-in.o
 .initcall7.init
                0x00000000c001d480        0x4 lib/built-in.o
 .initcall7.init
                0x00000000c001d484        0x4 drivers/built-in.o
 .initcall7.init
                0x00000000c001d488        0x4 net/built-in.o
 *(.initcall7s.init)
                0x00000000c001d48c                __initcall_end = .
                0x00000000c001d48c                __con_initcall_start = .
 *(.con_initcall.init)
 .con_initcall.init
                0x00000000c001d48c        0x4 drivers/built-in.o
                0x00000000c001d490                __con_initcall_end = .
                0x00000000c001d490                __security_initcall_start = .
 *(.security_initcall.init)
                0x00000000c001d490                __security_initcall_end = .
                0x00000000c001d4a0                . = ALIGN (0x20)
 *fill*         0x00000000c001d490       0x10 00
                0x00000000c001d4a0                __initramfs_start = .
 usr/built-in.o(.init.ramfs)
 .init.ramfs    0x00000000c001d4a0       0x86 usr/built-in.o
                0x00000000c001d526                __initramfs_end = .
                0x00000000c001e000                . = ALIGN (0x1000)
 *fill*         0x00000000c001d526      0xada 00
                0x00000000c001e000                __per_cpu_start = .
 *(.data.percpu)
 *(.data.percpu.shared_aligned)
                0x00000000c001e000                __per_cpu_end = .
                0x00000000c0008000                __init_begin = _stext
 *(.init.data)
 .init.data     0x00000000c001e000      0xa55 init/built-in.o
                0x00000000c001e404                boot_command_line
                0x00000000c001e844                rd_doload
                0x00000000c001e8d8                rd_prompt
                0x00000000c001e8dc                rd_image_start
 *fill*         0x00000000c001ea55        0x3 00
 .init.data     0x00000000c001ea58      0x1f0 arch/arm/mach-GM/platform-GM8126/built-in.o
                0x00000000c001ea58                platform_io_desc
 .init.data     0x00000000c001ec48      0x8b8 arch/arm/kernel/built-in.o
                0x00000000c001ec48                init_arch_irq
                0x00000000c001f4fc                __atags_pointer
 .init.data     0x00000000c001f500      0x110 arch/arm/mm/built-in.o
                0x00000000c001f5b4                fa_cache_fns
                0x00000000c001f5d8                fa_user_fns
                0x00000000c001f5e0                fa_tlb_fns
 .init.data     0x00000000c001f610       0xa4 kernel/built-in.o
 .init.data     0x00000000c001f6b4      0x368 mm/built-in.o
                0x00000000c001f6d8                initkmem_list3
 .init.data     0x00000000c001fa1c       0x38 fs/built-in.o
 .init.data     0x00000000c001fa54        0xa block/built-in.o
 *fill*         0x00000000c001fa5e        0x2 00
 .init.data     0x00000000c001fa60       0xa0 drivers/built-in.o
 .init.data     0x00000000c001fb00      0x1a0 net/built-in.o
 *(.devinit.data)
 *(.devinit.rodata)
 *(.cpuinit.data)
 .cpuinit.data  0x00000000c001fca0       0x34 kernel/built-in.o
 *(.cpuinit.rodata)
 *(.meminit.data)
 .meminit.data  0x00000000c001fcd4        0xc mm/built-in.o
                0x00000000c001fcd8                nr_kernel_pages
                0x00000000c001fcdc                nr_all_pages
 *(.meminit.rodata)
                0x00000000c001fce0                __start___verbose_strings = .
 *(__verbose_strings)
                0x00000000c001fce0                __stop___verbose_strings = .
                0x00000000c001fce0                . = ALIGN (0x8)
                0x00000000c001fce0                __start___verbose = .
 *(__verbose)
                0x00000000c001fce0                __stop___verbose = .
                0x00000000c0020000                . = ALIGN (0x1000)
 *fill*         0x00000000c001fce0      0x320 00
                0x00000000c0020000                __init_end = .

.discard        0x00000000c0020000      0xb8c
 *(.exit.text)
 .exit.text     0x00000000c0020000       0x5c arch/arm/mach-GM/built-in.o
                0x00000000c0020000                fa_cleanup_ahb_dma
 .exit.text     0x00000000c002005c       0x20 kernel/built-in.o
 .exit.text     0x00000000c002007c      0x204 fs/built-in.o
 .exit.text     0x00000000c0020280       0xf8 block/built-in.o
 .exit.text     0x00000000c0020378      0x47c drivers/built-in.o
                0x00000000c00206e8                rtc_dev_exit
 .exit.text     0x00000000c00207f4      0x15c net/built-in.o
 *(.devexit.text)
 .devexit.text  0x00000000c0020950      0x174 drivers/built-in.o
 *(.cpuexit.text)
 *(.memexit.text)
 *(.exit.data)
 *(.devexit.data)
 *(.devexit.rodata)
 *(.cpuexit.data)
 *(.cpuexit.rodata)
 *(.memexit.data)
 *(.memexit.rodata)
 *(.exitcall.exit)
 .exitcall.exit
                0x00000000c0020ac4        0x4 arch/arm/mach-GM/platform-GM8126/built-in.o
 .exitcall.exit
                0x00000000c0020ac8        0x4 kernel/built-in.o
 .exitcall.exit
                0x00000000c0020acc       0x3c fs/built-in.o
 .exitcall.exit
                0x00000000c0020b08       0x10 block/built-in.o
 .exitcall.exit
                0x00000000c0020b18       0x50 drivers/built-in.o
 .exitcall.exit
                0x00000000c0020b68       0x24 net/built-in.o

.text           0x00000000c0020ba0   0x1b48a8
                0x00000000c0020ba0                _text = .
                0x00000000c0020ba0                __exception_text_start = .
 *(.exception.text)
 .exception.text
                0x00000000c0020ba0      0x21c arch/arm/kernel/built-in.o
                0x00000000c0020ba0                asm_do_IRQ
                0x00000000c0020c24                do_undefinstr
 .exception.text
                0x00000000c0020dbc       0xb8 arch/arm/mm/built-in.o
                0x00000000c0020dbc                do_DataAbort
                0x00000000c0020e58                do_PrefetchAbort
                0x00000000c0020e74                __exception_text_end = .
                0x00000000c0020e78                . = ALIGN (0x8)
 *fill*         0x00000000c0020e74        0x4 00
 *(.text.hot)
 *(.text)
 .text          0x00000000c0020e78        0x0 usr/built-in.o
 .text          0x00000000c0020e78        0x0 arch/arm/kernel/head.o
 .text          0x00000000c0020e78        0x0 arch/arm/kernel/init_task.o
 .text          0x00000000c0020e78      0x4f4 init/built-in.o
                0x00000000c0020f84                do_one_initcall
                0x00000000c0021114                name_to_dev_t
 .text          0x00000000c002136c      0x9c8 arch/arm/mach-GM/platform-GM8126/built-in.o
                0x00000000c00217ac                pmu_get_apb_clk
                0x00000000c00217c4                video_gettime_max_ms
                0x00000000c0021844                video_gettime_max_hz
                0x00000000c0021878                video_gettime_us
                0x00000000c00218dc                video_gettime_ms
                0x00000000c0021940                platform_get_memory
                0x00000000c002195c                platform_get_gmmemory
                0x00000000c0021a78                ftssp010_spi_get_hw_platform
                0x00000000c0021d18                ftssp010_spi_free_hw_platform
 *fill*         0x00000000c0021d34        0xc 00
 .text          0x00000000c0021d40     0x4b8c arch/arm/kernel/built-in.o
                0x00000000c0021d40                elf_check_arch
                0x00000000c0021de4                arm_elf_read_implies_exec
                0x00000000c0021e14                elf_set_personality
                0x00000000c00223a0                ret_from_exception
                0x00000000c00223b0                __switch_to
                0x00000000c0022474                ret_to_user
                0x00000000c00224a0                ret_from_fork
                0x00000000c00224e0                vector_swi
                0x00000000c00225a4                sys_call_table
                0x00000000c0022be8                pabort_ifar
                0x00000000c0022bec                pabort_noifar
                0x00000000c0022c00                show_interrupts
                0x00000000c0022da0                set_irq_flags
                0x00000000c0022e78                disable_hlt
                0x00000000c0022e9c                enable_hlt
                0x00000000c0022ec0                kernel_thread
                0x00000000c0022f3c                dump_fpu
                0x00000000c0022fdc                arm_machine_restart
                0x00000000c00230e0                cpu_idle
                0x00000000c0023168                machine_halt
                0x00000000c0023178                machine_power_off
                0x00000000c00231a0                machine_restart
                0x00000000c00231c4                __show_regs
                0x00000000c00233c0                show_regs
                0x00000000c0023410                exit_thread
                0x00000000c0023420                flush_thread
                0x00000000c0023478                release_thread
                0x00000000c002349c                copy_thread
                0x00000000c002350c                get_wchan
                0x00000000c002369c                ptrace_set_bpt
                0x00000000c0023ae4                ptrace_cancel_bpt
                0x00000000c0023c18                ptrace_disable
                0x00000000c0023c38                ptrace_break
                0x00000000c0023cbc                arch_ptrace
                0x00000000c00240bc                syscall_trace
                0x00000000c00241ac                cpu_architecture
                0x00000000c002445c                cpu_init
                0x00000000c0024d70                sys_sigsuspend
                0x00000000c0024e3c                sys_rt_sigsuspend
                0x00000000c0024f70                sys_sigaction
                0x00000000c00250a4                sys_sigreturn
                0x00000000c0025144                sys_rt_sigreturn
                0x00000000c00251fc                do_notify_resume
                0x00000000c0025230                kernel_execve
                0x00000000c00252bc                do_mmap2
                0x00000000c0025388                old_mmap
                0x00000000c00254b4                sys_arm_mremap
                0x00000000c0025550                old_select
                0x00000000c00255d4                sys_fork
                0x00000000c002560c                sys_clone
                0x00000000c0025648                sys_vfork
                0x00000000c0025684                sys_execve
                0x00000000c00256e0                sys_arm_fadvise64_64
                0x00000000c0025708                walk_stackframe
                0x00000000c0025768                save_time_delta
                0x00000000c002579c                restore_time_delta
                0x00000000c00257dc                abort
                0x00000000c00257ec                __readwrite_bug
                0x00000000c002580c                __bug
                0x00000000c0025944                __bad_xchg
                0x00000000c002596c                __div0
                0x00000000c002598c                dump_backtrace_entry
                0x00000000c00259f0                show_stack
                0x00000000c0025a40                die
                0x00000000c0025d6c                arm_notify_die
                0x00000000c0025dc0                register_undef_hook
                0x00000000c0025e30                unregister_undef_hook
                0x00000000c0025eac                do_unexp_fiq
                0x00000000c0025ed4                bad_mode
                0x00000000c0025f28                arm_syscall
                0x00000000c00261e4                baddataabort
                0x00000000c002623c                __pte_error
                0x00000000c002626c                __pmd_error
                0x00000000c002629c                __pgd_error
                0x00000000c00262cc                set_fiq_regs
                0x00000000c00262f8                get_fiq_regs
                0x00000000c0026324                claim_fiq
                0x00000000c0026388                disable_fiq
                0x00000000c002639c                enable_fiq
                0x00000000c00263b0                release_fiq
                0x00000000c0026418                set_fiq_handler
                0x00000000c002649c                show_fiq_list
                0x00000000c00264d4                module_alloc
                0x00000000c0026530                module_free
                0x00000000c0026548                module_frob_arch_sections
                0x00000000c002655c                apply_relocate
                0x00000000c0026808                apply_relocate_add
                0x00000000c0026830                module_finalize
                0x00000000c0026844                module_arch_cleanup
                0x00000000c0026854                _memcpy_fromio
                0x00000000c002687c                _memcpy_toio
                0x00000000c00268a4                _memset_io
 *fill*         0x00000000c00268cc       0x14 00
 .text          0x00000000c00268e0     0x3540 arch/arm/mm/built-in.o
                0x00000000c00268e0                dma_sync_sg_for_cpu
                0x00000000c0026910                dma_unmap_sg
                0x00000000c0026940                dma_consistent_sync
                0x00000000c0026988                dma_cache_maint
                0x00000000c0026a10                dma_sync_sg_for_device
                0x00000000c0026a94                dma_map_sg
                0x00000000c0026ba0                dma_free_coherent
                0x00000000c0027018                dma_mmap_writecombine
                0x00000000c0027044                dma_mmap_coherent
                0x00000000c00274f4                dma_alloc_writecombine
                0x00000000c0027528                dma_alloc_coherent
                0x00000000c002758c                fixup_exception
                0x00000000c00275d0                show_pte
                0x00000000c00279c0                do_bad_area
                0x00000000c0027ae0                show_mem
                0x00000000c0027cd0                free_initmem
                0x00000000c0027da8                free_initrd_mem
                0x00000000c0027e90                ioport_map
                0x00000000c0027ea0                ioport_unmap
                0x00000000c0027eb0                update_mmu_cache
                0x00000000c0028014                flush_cache_mm
                0x00000000c0028034                flush_cache_range
                0x00000000c0028054                flush_cache_page
                0x00000000c002806c                flush_ptrace_access
                0x00000000c00280b0                __flush_dcache_page
                0x00000000c002812c                flush_dcache_page
                0x00000000c00281c0                __flush_anon_page
                0x00000000c002822c                __check_kvm_seq
                0x00000000c0028380                __iounmap
                0x00000000c0028460                __arm_ioremap_pfn
                0x00000000c0028758                __arm_ioremap
                0x00000000c00287b0                arch_get_unmapped_area
                0x00000000c0028980                valid_phys_addr_range
                0x00000000c00289b0                valid_mmap_phys_addr_range
                0x00000000c00289d0                get_pgd_slow
                0x00000000c0028ab8                free_pgd_slow
                0x00000000c0028bc4                adjust_cr
                0x00000000c0028c30                get_mem_type
                0x00000000c0028c54                setup_mm_for_reboot
                0x00000000c0029aa0                v5t_early_abort
                0x00000000c0029b00                fa_flush_kern_cache_all
                0x00000000c0029b00                fa_flush_user_cache_all
                0x00000000c0029b24                fa_flush_user_cache_range
                0x00000000c0029b6c                fa_flush_kern_dcache_page
                0x00000000c0029b70                fa_dma_flush_range
                0x00000000c0029b70                fa_coherent_user_range
                0x00000000c0029b70                fa_coherent_kern_range
                0x00000000c0029ba0                fa_dma_inv_range
                0x00000000c0029bcc                fa_dma_clean_range
                0x00000000c0029bf0                fa_copy_user_page
                0x00000000c0029c30                fa_clear_user_page
                0x00000000c0029c70                fa_flush_user_tlb_range
                0x00000000c0029cc8                fa_flush_kern_tlb_range
                0x00000000c0029d00                cpu_fa626te_proc_init
                0x00000000c0029d04                cpu_fa626te_proc_fin
                0x00000000c0029d30                cpu_fa626te_reset
                0x00000000c0029d60                cpu_fa626te_do_idle
                0x00000000c0029d68                cpu_fa626te_dcache_clean_area
                0x00000000c0029d80                fault_address
                0x00000000c0029d84                cpu_fa626te_switch_mm
                0x00000000c0029dc0                cpu_fa626te_set_pte_ext
 .text          0x00000000c0029e20     0x44b8 arch/arm/mach-GM/built-in.o
                0x00000000c002a0dc                ftpmu010_get_attr
                0x00000000c002a148                ftpmu010_read_reg
                0x00000000c002a168                ftpmu010_pins_is_requested
                0x00000000c002a264                ftpmu010_bits_is_locked
                0x00000000c002a368                ftpmu010_del_lockbits
                0x00000000c002a47c                ftpmu010_release_pins
                0x00000000c002a670                ftpmu010_request_pins
                0x00000000c002aad0                ftpmu010_clock_divisor
                0x00000000c002ab6c                ftpmu010_update_lockbits
                0x00000000c002ad40                ftpmu010_add_lockbits
                0x00000000c002b15c                ftpmu010_write_reg
                0x00000000c002b2cc                ftpmu010_clokgate_on
                0x00000000c002b388                ftpmu010_deregister_reg
                0x00000000c002b488                ftpmu010_deregister_attr
                0x00000000c002b578                ftpmu010_register_reg
                0x00000000c002ba34                ftpmu010_register_attr
                0x00000000c002bb64                ftpmu010_init
                0x00000000c002bf24                fa_ahb_dma_all_done
                0x00000000c002bf5c                fa_ahb_dma_get_irq
                0x00000000c002bfd4                fa_ahb_dma_get_dest_addr
                0x00000000c002bffc                fa_ahb_dma_get_src_addr
                0x00000000c002c024                fa_ahb_dma_add
                0x00000000c002c2e0                fa_ahb_dma_add_auto
                0x00000000c002c548                fa_ahb_dma_clear_llp_idx
                0x00000000c002c574                fa_ahb_dma_get_status
                0x00000000c002c5f4                fa_get_ahb_dma_params
                0x00000000c002c618                fa_set_ahb_dma_usual_params
                0x00000000c002c644                fa_set_ahb_dma_transfer_params
                0x00000000c002c680                fa_set_ahb_dma_transfer_params2
                0x00000000c002c714                fa_set_ahb_dma_transfer_bs
                0x00000000c002c738                fa_set_ahb_dma_src_params
                0x00000000c002c76c                fa_set_ahb_dma_dst_params
                0x00000000c002c7a0                fa_set_ahb_dma_cfg_params
                0x00000000c002c7d4                fa_ahb_dma_start
                0x00000000c002c814                fa_ahb_dma_clear_int
                0x00000000c002c854                fa_ahb_dma_reset2
                0x00000000c002c8a8                fa_ahb_dma_stop
                0x00000000c002c904                fa_ahb_dma_resume
                0x00000000c002c934                fa_ahb_dma_pause
                0x00000000c002c964                fa_ahb_dma_priority_set
                0x00000000c002c9a0                fa_ahb_dma_set_llp
                0x00000000c002ca74                fa_set_ahb_llp_address
                0x00000000c002cbe4                fa_ahb_set_dma_sg
                0x00000000c002cd74                fa_ahb_free_llp_mem
                0x00000000c002cdd0                fa_ahb_dma_reset
                0x00000000c002ce6c                fa_free_ahb_dma
                0x00000000c002cf6c                fa_request_ahb_dma_ch
                0x00000000c002d104                fa_request_ahb_dma_auto
                0x00000000c002d2a4                fa_ahb_dma_init
                0x00000000c002d40c                fa_ahb_dma_add_no_extrahead
                0x00000000c002d6b8                fa_ahb_dma_cloop_llp_init
                0x00000000c002d990                fmem_get_pageinfo
                0x00000000c002d9ac                fmem_alloc_ex
                0x00000000c002dc00                get_first_last_page
                0x00000000c002dc90                check_memory_hole
                0x00000000c002ddd4                remove_page_node
                0x00000000c002de64                fmem_give_pages
                0x00000000c002e02c                get_mem_nodeshift
                0x00000000c002e094                fmem_get_ddr0_szbits
                0x00000000c002e0a8                fmem_get_ddr0_mask
                0x00000000c002e0c4                fmem_local_map_nr
                0x00000000c002e0e8                fmem_pfn_to_nid
                0x00000000c002e108                fmem_free_ex
                0x00000000c002e1d4                fmem_kvaddr_to_nid
                0x00000000c002e1f4                CheckTxStatus
                0x00000000c002e220                debug_printk
 .text          0x00000000c002e2d8    0x31e04 kernel/built-in.o
                0x00000000c002e660                task_nice
                0x00000000c002e7f4                can_nice
                0x00000000c002ef98                set_user_nice
                0x00000000c002f290                default_wake_function
                0x00000000c002f2a8                wake_up_process
                0x00000000c002f2c4                cond_resched_lock
                0x00000000c002faf8                sched_setscheduler
                0x00000000c002fbf0                completion_done
                0x00000000c002fc6c                try_wait_for_completion
                0x00000000c002fcf4                complete_all
                0x00000000c002fd78                complete
                0x00000000c002fdfc                __wake_up_sync
                0x00000000c002fe78                __wake_up
                0x00000000c0030970                runqueue_is_locked
                0x00000000c00309bc                task_rq_unlock_wait
                0x00000000c00309cc                task_curr
                0x00000000c00309f4                wake_up_state
                0x00000000c0030a0c                sched_fork
                0x00000000c0030ab8                wake_up_new_task
                0x00000000c0030bf8                schedule_tail
                0x00000000c0030c60                nr_running
                0x00000000c0030c7c                nr_uninterruptible
                0x00000000c0030c9c                nr_context_switches
                0x00000000c0030cbc                nr_iowait
                0x00000000c0030cd8                nr_active
                0x00000000c0030d04                task_delta_exec
                0x00000000c0030dc4                account_user_time
                0x00000000c0030e68                account_user_time_scaled
                0x00000000c0030e84                account_system_time
                0x00000000c0031054                account_system_time_scaled
                0x00000000c0031070                account_steal_time
                0x00000000c003113c                task_utime
                0x00000000c00311ac                task_stime
                0x00000000c00311fc                task_gtime
                0x00000000c0031210                scheduler_tick
                0x00000000c00312e4                __wake_up_locked
                0x00000000c0031310                rt_mutex_setprio
                0x00000000c00314d8                sys_nice
                0x00000000c003157c                task_prio
                0x00000000c0031594                idle_cpu
                0x00000000c00315c0                idle_task
                0x00000000c00315dc                sched_setscheduler_nocheck
                0x00000000c00315f4                sys_sched_setscheduler
                0x00000000c0031618                sys_sched_setparam
                0x00000000c0031634                sys_sched_getscheduler
                0x00000000c00316a8                sys_sched_getparam
                0x00000000c0031784                sched_setaffinity
                0x00000000c00318f8                sys_sched_setaffinity
                0x00000000c00319ac                sched_getaffinity
                0x00000000c0031a30                sys_sched_getaffinity
                0x00000000c0031ab0                sys_sched_yield
                0x00000000c0031b10                sys_sched_get_priority_max
                0x00000000c0031b38                sys_sched_get_priority_min
                0x00000000c0031b60                sys_sched_rr_get_interval
                0x00000000c0031cd0                sched_show_task
                0x00000000c0031d9c                show_state_filter
                0x00000000c0031e4c                in_sched_functions
                0x00000000c0031e88                sched_rt_handler
                0x00000000c00320a8                get_task_mm
                0x00000000c00321dc                copy_fs_struct
                0x00000000c003220c                __mmdrop
                0x00000000c0032250                mmput
                0x00000000c0032354                free_task
                0x00000000c0032390                __put_task_struct
                0x00000000c0032514                nr_processes
                0x00000000c0032530                arch_dup_task_struct
                0x00000000c003254c                mm_alloc
                0x00000000c0032590                mm_release
                0x00000000c0032630                dup_mm
                0x00000000c0032a30                __cleanup_sighand
                0x00000000c0032a78                __cleanup_signal
                0x00000000c0033884                sys_set_tid_address
                0x00000000c00338b4                do_fork
                0x00000000c0033b68                sys_unshare
                0x00000000c0033de8                unshare_files
                0x00000000c0033f60                unregister_exec_domain
                0x00000000c0034018                register_exec_domain
                0x00000000c00340d8                __set_personality
                0x00000000c0034400                sys_personality
                0x00000000c003446c                test_taint
                0x00000000c003465c                add_taint
                0x00000000c0034688                warn_slowpath
                0x00000000c0034704                warn_on_slowpath
                0x00000000c0034768                print_tainted
                0x00000000c0034828                get_taint
                0x00000000c0034844                oops_may_print
                0x00000000c0034868                oops_enter
                0x00000000c0034880                oops_exit
                0x00000000c0034a24                printk_timed_ratelimit
                0x00000000c0034a88                printk_ratelimit
                0x00000000c0034aa4                try_acquire_console_sem
                0x00000000c0034adc                release_console_sem
                0x00000000c0034cfc                acquire_console_sem
                0x00000000c0034d6c                unregister_console
                0x00000000c0034e28                console_start
                0x00000000c0034e50                console_stop
                0x00000000c0034e78                vprintk
                0x00000000c00351e8                register_console
                0x00000000c0035508                console_print
                0x00000000c00355d8                early_printk
                0x00000000c00355f0                do_syslog
                0x00000000c0035b18                sys_syslog
                0x00000000c0035b2c                add_preferred_console
                0x00000000c0035b40                update_console_cmdline
                0x00000000c0035bfc                suspend_console
                0x00000000c0035c40                resume_console
                0x00000000c0035c78                is_console_locked
                0x00000000c0035c94                printk_tick
                0x00000000c0035cd8                printk_needs_cpu
                0x00000000c0035cf4                wake_up_klogd
                0x00000000c0035d28                console_unblank
                0x00000000c0035db0                console_device
                0x00000000c0035eb4                get_files_struct
                0x00000000c003625c                put_files_struct
                0x00000000c003633c                disallow_signal
                0x00000000c00363dc                allow_signal
                0x00000000c00364a8                release_task
                0x00000000c0037488                session_of_pgrp
                0x00000000c00374cc                is_current_pgrp_orphaned
                0x00000000c0037538                __set_special_pids
                0x00000000c00375b8                reset_files_struct
                0x00000000c0037614                exit_files
                0x00000000c0037678                put_fs_struct
                0x00000000c00376d4                exit_fs
                0x00000000c0037738                do_exit
                0x00000000c0037f30                complete_and_exit
                0x00000000c0037f54                daemonize
                0x00000000c0038200                sys_exit
                0x00000000c0038218                do_group_exit
                0x00000000c00382f4                sys_exit_group
                0x00000000c0038310                sys_waitid
                0x00000000c00383d0                sys_wait4
                0x00000000c0038530                do_getitimer
                0x00000000c0038744                sys_getitimer
                0x00000000c00387bc                it_real_fn
                0x00000000c00387e0                do_setitimer
                0x00000000c0038af8                alarm_setitimer
                0x00000000c0038b70                sys_setitimer
                0x00000000c0038c70                jiffies_to_msecs
                0x00000000c0038c80                jiffies_to_usecs
                0x00000000c0038c98                timespec_trunc
                0x00000000c0038d04                mktime
                0x00000000c0038d98                set_normalized_timespec
                0x00000000c0038df4                msecs_to_jiffies
                0x00000000c0038e0c                usecs_to_jiffies
                0x00000000c0038e3c                timespec_to_jiffies
                0x00000000c0038eac                jiffies_to_timespec
                0x00000000c0038f28                timeval_to_jiffies
                0x00000000c0038fa4                jiffies_to_timeval
                0x00000000c0039030                jiffies_to_clock_t
                0x00000000c0039090                clock_t_to_jiffies
                0x00000000c00390b8                jiffies_64_to_clock_t
                0x00000000c0039118                get_jiffies_64
                0x00000000c0039164                ns_to_timespec
                0x00000000c00391d0                ns_to_timeval
                0x00000000c0039218                current_fs_time
                0x00000000c0039288                sys_gettimeofday
                0x00000000c0039344                do_sys_settimeofday
                0x00000000c00394c4                sys_settimeofday
                0x00000000c00395d4                sys_adjtimex
                0x00000000c0039688                nsec_to_clock_t
                0x00000000c00396d8                timespec_add_safe
                0x00000000c0039918                tasklet_init
                0x00000000c0039940                __send_remote_softirq
                0x00000000c00399d0                send_remote_softirq
                0x00000000c00399fc                __tasklet_hi_schedule
                0x00000000c0039a88                __tasklet_schedule
                0x00000000c0039b14                tasklet_kill
                0x00000000c0039bb0                local_bh_disable
                0x00000000c0039bd8                _local_bh_enable
                0x00000000c0039c70                __local_bh_enable
                0x00000000c0039d0c                __do_softirq
                0x00000000c0039e3c                do_softirq
                0x00000000c0039ff4                local_bh_enable_ip
                0x00000000c003a0a8                local_bh_enable
                0x00000000c003a15c                irq_enter
                0x00000000c003a1c0                irq_exit
                0x00000000c003a264                raise_softirq_irqoff
                0x00000000c003a2c8                raise_softirq
                0x00000000c003a344                open_softirq
                0x00000000c003a7c8                adjust_resource
                0x00000000c003a8d4                allocate_resource
                0x00000000c003aa4c                release_resource
                0x00000000c003aafc                request_resource
                0x00000000c003ab60                __release_region
                0x00000000c003ac70                __devm_release_region
                0x00000000c003ad0c                __request_region
                0x00000000c003add4                __devm_request_region
                0x00000000c003ae5c                __check_region
                0x00000000c003ae98                insert_resource
                0x00000000c003aefc                insert_resource_expand_to_fit
                0x00000000c003afa8                resource_alignment
                0x00000000c003aff0                iomem_map_sanity_check
                0x00000000c003b2d0                sysctl_intvec
                0x00000000c003b3c0                sysctl_jiffies
                0x00000000c003b4a4                sysctl_string
                0x00000000c003b64c                sysctl_data
                0x00000000c003b7a4                sysctl_ms_jiffies
                0x00000000c003b984                unregister_sysctl_table
                0x00000000c003bebc                proc_dointvec_ms_jiffies
                0x00000000c003bf0c                proc_dointvec_userhz_jiffies
                0x00000000c003bf5c                proc_dointvec_jiffies
                0x00000000c003bfac                proc_dointvec_minmax
                0x00000000c003c00c                proc_dointvec
                0x00000000c003c508                proc_doulongvec_ms_jiffies_minmax
                0x00000000c003c550                proc_doulongvec_minmax
                0x00000000c003c678                proc_dostring
                0x00000000c003c89c                sysctl_head_get
                0x00000000c003c8ec                sysctl_head_put
                0x00000000c003c964                sysctl_head_grab
                0x00000000c003c9d4                sysctl_head_finish
                0x00000000c003ca48                __sysctl_head_next
                0x00000000c003cba4                sysctl_head_next
                0x00000000c003cbd0                register_sysctl_root
                0x00000000c003cc34                sysctl_perm
                0x00000000c003cce0                do_sysctl
                0x00000000c003cec0                sys_sysctl
                0x00000000c003d044                __register_sysctl_paths
                0x00000000c003d38c                register_sysctl_paths
                0x00000000c003d3c4                register_sysctl_table
                0x00000000c003d3e4                sysctl_is_seen
                0x00000000c003d46c                setup_sysctl_set
                0x00000000c003d494                capable
                0x00000000c003d4d8                cap_set_effective
                0x00000000c003d670                sys_capget
                0x00000000c003d808                sys_capset
                0x00000000c003dd18                __ptrace_link
                0x00000000c003dd58                __ptrace_unlink
                0x00000000c003de14                ptrace_check_attach
                0x00000000c003df14                __ptrace_may_access
                0x00000000c003dff4                ptrace_may_access
                0x00000000c003e058                ptrace_attach
                0x00000000c003e19c                ptrace_detach
                0x00000000c003e26c                ptrace_readdata
                0x00000000c003e338                ptrace_writedata
                0x00000000c003e44c                ptrace_traceme
                0x00000000c003e558                ptrace_get_task_struct
                0x00000000c003e5e0                sys_ptrace
                0x00000000c003e6b0                generic_ptrace_peekdata
                0x00000000c003e6f8                generic_ptrace_pokedata
                0x00000000c003e738                ptrace_request
                0x00000000c003eb2c                __round_jiffies
                0x00000000c003eb44                __round_jiffies_relative
                0x00000000c003eb70                round_jiffies
                0x00000000c003eb8c                round_jiffies_relative
                0x00000000c003eba4                __round_jiffies_up
                0x00000000c003ebbc                __round_jiffies_up_relative
                0x00000000c003ebe8                round_jiffies_up
                0x00000000c003ec04                round_jiffies_up_relative
                0x00000000c003ecf8                init_timer
                0x00000000c003ed20                init_timer_deferrable
                0x00000000c003f0c8                del_timer
                0x00000000c003f168                __mod_timer
                0x00000000c003f28c                mod_timer
                0x00000000c003f2d0                msleep
                0x00000000c003f2f8                msleep_interruptible
                0x00000000c003f344                add_timer_on
                0x00000000c003f3dc                get_next_timer_interrupt
                0x00000000c003f674                account_process_tick
                0x00000000c003f6c0                run_local_timers
                0x00000000c003f6dc                update_process_times
                0x00000000c003f73c                do_timer
                0x00000000c003f810                sys_getpid
                0x00000000c003f83c                sys_getppid
                0x00000000c003f8a8                sys_getuid
                0x00000000c003f8cc                sys_geteuid
                0x00000000c003f8f0                sys_getgid
                0x00000000c003f914                sys_getegid
                0x00000000c003f938                sys_gettid
                0x00000000c003f960                do_sysinfo
                0x00000000c003fb30                sys_sysinfo
                0x00000000c003fc00                uids_sysfs_init
                0x00000000c003fc14                find_user
                0x00000000c003fc9c                free_uid
                0x00000000c003fd48                alloc_uid
                0x00000000c003fea0                switch_uid
                0x00000000c003ff98                recalc_sigpending
                0x00000000c003ffe0                __fatal_signal_pending
                0x00000000c003fffc                block_all_signals
                0x00000000c0040068                sigprocmask
                0x00000000c0040178                unblock_all_signals
                0x00000000c00407dc                next_signal
                0x00000000c00409e4                dequeue_signal
                0x00000000c0040b88                flush_sigqueue
                0x00000000c0040bdc                flush_signals
                0x00000000c0040c68                flush_itimer_signals
                0x00000000c0040cd4                ignore_signals
                0x00000000c0040d0c                flush_signal_handlers
                0x00000000c0040d60                unhandled_signal
                0x00000000c0040da8                signal_wake_up
                0x00000000c00411f4                send_sig_info
                0x00000000c0041270                send_sig
                0x00000000c0041294                recalc_sigpending_and_wake
                0x00000000c00412c0                __group_send_sig_info
                0x00000000c0041754                kill_pid_info_as_uid
                0x00000000c0041894                force_sig_info
                0x00000000c00419a8                force_sig
                0x00000000c00419c4                force_sig_specific
                0x00000000c00419e0                zap_other_threads
                0x00000000c0041a58                lock_task_sighand
                0x00000000c0041c64                group_send_sig_info
                0x00000000c0041d08                __kill_pgrp_info
                0x00000000c0041d78                kill_pgrp
                0x00000000c0041de8                kill_pid_info
                0x00000000c0041e7c                sys_kill
                0x00000000c0041ff4                kill_pid
                0x00000000c004201c                kill_proc_info
                0x00000000c0042094                force_sigsegv
                0x00000000c004211c                sigqueue_alloc
                0x00000000c0042158                sigqueue_free
                0x00000000c00421f8                send_sigqueue
                0x00000000c0042360                do_notify_parent
                0x00000000c0042560                ptrace_notify
                0x00000000c0042620                get_signal_to_deliver
                0x00000000c0042a04                exit_signals
                0x00000000c0042b6c                sys_restart_syscall
                0x00000000c0042b94                do_no_restart_syscall
                0x00000000c0042ba8                sys_rt_sigprocmask
                0x00000000c0042d10                do_sigpending
                0x00000000c0042e1c                sys_rt_sigpending
                0x00000000c0042e30                copy_siginfo_to_user
                0x00000000c004307c                sys_rt_sigtimedwait
                0x00000000c0043340                sys_tgkill
                0x00000000c0043368                sys_tkill
                0x00000000c0043398                sys_rt_sigqueueinfo
                0x00000000c0043434                do_sigaction
                0x00000000c00435f4                do_sigaltstack
                0x00000000c004375c                sys_sigpending
                0x00000000c0043774                sys_sigprocmask
                0x00000000c0043930                sys_rt_sigaction
                0x00000000c0043a38                sys_pause
                0x00000000c0043a6c                arch_vma_name
                0x00000000c0043a94                groups_free
                0x00000000c0043af4                set_current_groups
                0x00000000c0043cf0                groups_alloc
                0x00000000c0043ec4                kernel_power_off
                0x00000000c0043f08                orderly_poweroff
                0x00000000c0043fd4                kernel_halt
                0x00000000c0044014                emergency_restart
                0x00000000c00440e8                sys_setpriority
                0x00000000c0044310                sys_getpriority
                0x00000000c00444f8                kernel_restart_prepare
                0x00000000c0044534                kernel_restart
                0x00000000c004459c                sys_reboot
                0x00000000c0044764                ctrl_alt_del
                0x00000000c00447ac                sys_setregid
                0x00000000c00448c4                sys_setgid
                0x00000000c00449a0                sys_setreuid
                0x00000000c0044b14                sys_setuid
                0x00000000c0044bf4                sys_setresuid
                0x00000000c0044d84                sys_getresuid
                0x00000000c0044dd8                sys_setresgid
                0x00000000c0044f34                sys_getresgid
                0x00000000c0044f88                sys_setfsuid
                0x00000000c0045038                sys_setfsgid
                0x00000000c00450d4                do_sys_times
                0x00000000c004518c                sys_times
                0x00000000c0045204                sys_setpgid
                0x00000000c00453a8                sys_getpgid
                0x00000000c0045440                sys_getpgrp
                0x00000000c0045458                sys_getsid
                0x00000000c00454f0                sys_setsid
                0x00000000c00455c4                groups_search
                0x00000000c004563c                in_egroup_p
                0x00000000c004567c                in_group_p
                0x00000000c00456bc                sys_getgroups
                0x00000000c0045790                sys_setgroups
                0x00000000c00458e8                sys_newuname
                0x00000000c0045968                sys_sethostname
                0x00000000c0045a5c                sys_gethostname
                0x00000000c0045b00                sys_setdomainname
                0x00000000c0045bf8                sys_getrlimit
                0x00000000c0045cac                sys_setrlimit
                0x00000000c0045e2c                getrusage
                0x00000000c0046078                sys_getrusage
                0x00000000c00460c0                sys_umask
                0x00000000c00460f8                sys_prctl
                0x00000000c0046360                sys_getcpu
                0x00000000c00463a8                call_usermodehelper_setkeys
                0x00000000c00463bc                call_usermodehelper_setcleanup
                0x00000000c00463d0                call_usermodehelper_stdinpipe
                0x00000000c0046430                call_usermodehelper_setup
                0x00000000c0046644                call_usermodehelper_freeinfo
                0x00000000c0046678                call_usermodehelper_exec
                0x00000000c0046714                call_usermodehelper_pipe
                0x00000000c0046800                request_module
                0x00000000c0046c78                destroy_workqueue
                0x00000000c0046d24                flush_workqueue
                0x00000000c0046d3c                flush_scheduled_work
                0x00000000c0046d5c                flush_work
                0x00000000c0046f0c                queue_work_on
                0x00000000c0046f6c                schedule_work_on
                0x00000000c0046f90                queue_work
                0x00000000c0046ffc                schedule_work
                0x00000000c0047020                execute_in_process_context
                0x00000000c00473a0                cancel_delayed_work_sync
                0x00000000c00473b8                cancel_work_sync
                0x00000000c00473d0                queue_delayed_work_on
                0x00000000c00474a4                schedule_delayed_work_on
                0x00000000c00474d0                queue_delayed_work
                0x00000000c0047504                schedule_delayed_work
                0x00000000c004755c                __create_workqueue_key
                0x00000000c00476d0                schedule_on_each_cpu
                0x00000000c0047744                keventd_up
                0x00000000c0047768                current_is_keventd
                0x00000000c00477b4                find_pid_ns
                0x00000000c0047848                find_vpid
                0x00000000c0047874                pid_task
                0x00000000c00478b4                find_task_by_pid_type_ns
                0x00000000c0047904                find_task_by_vpid
                0x00000000c0047938                find_task_by_pid_ns
                0x00000000c004795c                pid_vnr
                0x00000000c00479b4                task_pid_nr_ns
                0x00000000c00479f8                task_tgid_nr_ns
                0x00000000c0047a40                task_pgrp_nr_ns
                0x00000000c0047a88                task_session_nr_ns
                0x00000000c0047ad0                find_get_pid
                0x00000000c0047b50                is_container_init
                0x00000000c0047bcc                put_pid
                0x00000000c0047c84                next_pidmap
                0x00000000c0047d18                free_pid
                0x00000000c0047dec                alloc_pid
                0x00000000c0048220                attach_pid
                0x00000000c004826c                detach_pid
                0x00000000c00482ec                change_pid
                0x00000000c00483a4                transfer_pid
                0x00000000c0048418                get_task_pid
                0x00000000c00484a0                get_pid_task
                0x00000000c004854c                pid_nr_ns
                0x00000000c004858c                find_ge_pid
                0x00000000c0048614                wakeme_after_rcu
                0x00000000c004862c                synchronize_rcu
                0x00000000c0048774                rcu_barrier_sched
                0x00000000c004878c                rcu_barrier_bh
                0x00000000c00487a4                rcu_barrier
                0x00000000c00487bc                search_exception_tables
                0x00000000c00487f8                core_kernel_text
                0x00000000c0048870                __kernel_text_address
                0x00000000c00488ec                kernel_text_address
                0x00000000c0048968                param_set_bool
                0x00000000c00489e8                param_set_invbool
                0x00000000c0048a30                param_array_get
                0x00000000c0048bb0                param_get_string
                0x00000000c0048da8                param_set_charp
                0x00000000c0048e0c                param_set_copystring
                0x00000000c0048e84                param_array_set
                0x00000000c0048fb0                param_get_invbool
                0x00000000c0048fe0                param_get_bool
                0x00000000c0049010                param_get_charp
                0x00000000c0049034                param_get_ulong
                0x00000000c0049058                param_get_long
                0x00000000c004907c                param_get_uint
                0x00000000c00490a0                param_get_int
                0x00000000c00490c4                param_get_ushort
                0x00000000c00490e8                param_get_short
                0x00000000c004910c                param_get_byte
                0x00000000c0049130                param_set_ulong
                0x00000000c004917c                param_set_uint
                0x00000000c00491c8                param_set_ushort
                0x00000000c0049224                param_set_byte
                0x00000000c0049280                param_set_long
                0x00000000c00492cc                param_set_int
                0x00000000c0049318                param_set_short
                0x00000000c0049378                parse_args
                0x00000000c004964c                module_param_sysfs_setup
                0x00000000c004970c                module_param_sysfs_remove
                0x00000000c0049768                do_posix_clock_nosettime
                0x00000000c004977c                do_posix_clock_nonanosleep
                0x00000000c0049ab0                register_posix_clock
                0x00000000c0049b14                posix_timer_event
                0x00000000c0049ca4                do_schedule_next_timer
                0x00000000c0049de0                sys_timer_create
                0x00000000c004a1ec                sys_timer_gettime
                0x00000000c004a2dc                sys_timer_getoverrun
                0x00000000c004a348                sys_timer_settime
                0x00000000c004a694                sys_timer_delete
                0x00000000c004a828                exit_itimers
                0x00000000c004a990                sys_clock_settime
                0x00000000c004aa8c                sys_clock_gettime
                0x00000000c004ab78                sys_clock_getres
                0x00000000c004ac60                sys_clock_nanosleep
                0x00000000c004ada0                clock_nanosleep_restart
                0x00000000c004adec                kthread_should_stop
                0x00000000c004ae24                kthread_bind
                0x00000000c004aefc                kthread_stop
                0x00000000c004afac                kthread_create
                0x00000000c004b08c                kthreadd
                0x00000000c004b244                init_waitqueue_head
                0x00000000c004b25c                bit_waitqueue
                0x00000000c004b2d8                __wake_up_bit
                0x00000000c004b314                wake_up_bit
                0x00000000c004b33c                autoremove_wake_function
                0x00000000c004b378                wake_bit_function
                0x00000000c004b3e8                finish_wait
                0x00000000c004b480                prepare_to_wait_exclusive
                0x00000000c004b508                prepare_to_wait
                0x00000000c004b590                remove_wait_queue
                0x00000000c004b60c                add_wait_queue_exclusive
                0x00000000c004b684                add_wait_queue
                0x00000000c004b6fc                __kfifo_get
                0x00000000c004b778                __kfifo_put
                0x00000000c004b7f8                kfifo_free
                0x00000000c004b81c                kfifo_init
                0x00000000c004b87c                kfifo_alloc
                0x00000000c004b908                compat_sys_mq_open
                0x00000000c004b908                sys_acct
                0x00000000c004b908                sys_mq_open
                0x00000000c004b908                sys_ni_syscall
                0x00000000c004b908                compat_sys_futex
                0x00000000c004b908                sys_mq_timedreceive
                0x00000000c004b908                sys_epoll_pwait
                0x00000000c004b908                sys_mq_notify
                0x00000000c004b908                compat_sys_recvmsg
                0x00000000c004b908                sys_mbind
                0x00000000c004b908                sys32_sysctl
                0x00000000c004b908                compat_sys_mq_notify
                0x00000000c004b908                sys_migrate_pages
                0x00000000c004b908                compat_sys_mq_timedreceive
                0x00000000c004b908                compat_sys_epoll_pwait
                0x00000000c004b908                compat_sys_set_robust_list
                0x00000000c004b908                compat_sys_setsockopt
                0x00000000c004b908                sys_pciconfig_iobase
                0x00000000c004b908                sys_pciconfig_read
                0x00000000c004b908                sys_keyctl
                0x00000000c004b908                compat_sys_ipc
                0x00000000c004b908                sys_io_setup
                0x00000000c004b908                sys32_quotactl
                0x00000000c004b908                sys_quotactl
                0x00000000c004b908                sys_nfsservctl
                0x00000000c004b908                ppc_rtas
                0x00000000c004b908                compat_sys_get_robust_list
                0x00000000c004b908                sys_spu_run
                0x00000000c004b908                compat_sys_signalfd
                0x00000000c004b908                sys_add_key
                0x00000000c004b908                sys_vm86old
                0x00000000c004b908                sys_mq_unlink
                0x00000000c004b908                sys_set_mempolicy
                0x00000000c004b908                sys_io_getevents
                0x00000000c004b908                compat_sys_move_pages
                0x00000000c004b908                sys_socketcall
                0x00000000c004b908                sys_io_cancel
                0x00000000c004b908                compat_sys_socketcall
                0x00000000c004b908                compat_sys_sysctl
                0x00000000c004b908                compat_sys_set_mempolicy
                0x00000000c004b908                sys_request_key
                0x00000000c004b908                compat_sys_timerfd_gettime
                0x00000000c004b908                compat_sys_mq_timedsend
                0x00000000c004b908                sys_io_submit
                0x00000000c004b908                sys_kexec_load
                0x00000000c004b908                compat_sys_mbind
                0x00000000c004b908                sys_get_mempolicy
                0x00000000c004b908                sys32_ipc
                0x00000000c004b908                sys_move_pages
                0x00000000c004b908                compat_sys_keyctl
                0x00000000c004b908                sys_io_destroy
                0x00000000c004b908                sys_mq_getsetattr
                0x00000000c004b908                compat_sys_migrate_pages
                0x00000000c004b908                compat_sys_mq_getsetattr
                0x00000000c004b908                compat_sys_kexec_load
                0x00000000c004b908                compat_sys_signalfd4
                0x00000000c004b908                sys_vm86
                0x00000000c004b908                sys_lookup_dcookie
                0x00000000c004b908                compat_sys_timerfd_settime
                0x00000000c004b908                compat_sys_getsockopt
                0x00000000c004b908                sys_mq_timedsend
                0x00000000c004b908                sys_pciconfig_write
                0x00000000c004b908                sys_subpage_prot
                0x00000000c004b908                compat_sys_sendmsg
                0x00000000c004b908                compat_sys_get_mempolicy
                0x00000000c004b908                sys_spu_create
                0x00000000c004c0f0                thread_group_cputime_alloc
                0x00000000c004c1f0                thread_group_cputime
                0x00000000c004c2fc                posix_cpu_clock_getres
                0x00000000c004c370                posix_cpu_clock_set
                0x00000000c004c38c                posix_cpu_clock_get
                0x00000000c004c530                posix_cpu_timer_create
                0x00000000c004c6a0                posix_cpu_timer_del
                0x00000000c004c7c0                posix_cpu_timers_exit
                0x00000000c004c7f0                posix_cpu_timers_exit_group
                0x00000000c004c830                posix_cpu_timer_get
                0x00000000c004cab8                posix_cpu_timer_schedule
                0x00000000c004cca4                posix_cpu_timer_set
                0x00000000c004d35c                posix_cpu_nsleep_restart
                0x00000000c004d438                run_posix_cpu_timers
                0x00000000c004dd74                set_process_cpu_timer
                0x00000000c004de60                update_rlimit_cpu
                0x00000000c004df04                posix_cpu_nsleep
                0x00000000c004e038                __mutex_init
                0x00000000c004e0cc                hrtimer_get_res
                0x00000000c004e0fc                ktime_sub_ns
                0x00000000c004e1ac                ktime_add_ns
                0x00000000c004e27c                hrtimer_get_remaining
                0x00000000c004e49c                hrtimer_try_to_cancel
                0x00000000c004e548                hrtimer_cancel
                0x00000000c004e570                hrtimer_init
                0x00000000c004e5fc                ktime_get_ts
                0x00000000c004e66c                ktime_get
                0x00000000c004e6a4                ktime_get_real
                0x00000000c004ecd0                ktime_divns
                0x00000000c004ed50                ktime_add_safe
                0x00000000c004edd8                hrtimer_start_range_ns
                0x00000000c004efa4                hrtimer_start
                0x00000000c004efd0                hrtimer_forward
                0x00000000c004f18c                clock_was_set
                0x00000000c004f1b8                hres_timers_resume
                0x00000000c004f1cc                hrtimer_get_next_event
                0x00000000c004f2e4                hrtimer_interrupt
                0x00000000c004f500                hrtimer_peek_ahead_timers
                0x00000000c004f54c                hrtimer_run_pending
                0x00000000c004f5fc                hrtimer_run_queues
                0x00000000c004f7e8                hrtimer_init_sleeper
                0x00000000c004f810                hrtimer_nanosleep
                0x00000000c004f92c                sys_nanosleep
                0x00000000c004f9e0                downgrade_write
                0x00000000c004f9f4                up_write
                0x00000000c004fa08                up_read
                0x00000000c004fa1c                down_write_trylock
                0x00000000c004fa30                down_read_trylock
                0x00000000c004fbc4                free_nsproxy
                0x00000000c004fc2c                copy_namespaces
                0x00000000c004fd10                unshare_nsproxy_namespaces
                0x00000000c004fd98                switch_task_namespaces
                0x00000000c004fde8                exit_task_namespaces
                0x00000000c004fe00                srcu_batches_completed
                0x00000000c004fe14                synchronize_srcu
                0x00000000c004fea0                srcu_read_unlock
                0x00000000c004fef4                srcu_read_lock
                0x00000000c004ff58                cleanup_srcu_struct
                0x00000000c004ff98                init_srcu_struct
                0x00000000c004fff0                down_trylock
                0x00000000c0050068                down_timeout
                0x00000000c00500f0                down_interruptible
                0x00000000c0050178                down
                0x00000000c00501e8                down_killable
                0x00000000c0050270                up
                0x00000000c0050378                raw_notifier_chain_register
                0x00000000c00503d4                raw_notifier_chain_unregister
                0x00000000c0050428                __raw_notifier_call_chain
                0x00000000c005044c                raw_notifier_call_chain
                0x00000000c0050474                srcu_init_notifier_head
                0x00000000c00504b4                __srcu_notifier_call_chain
                0x00000000c005051c                srcu_notifier_call_chain
                0x00000000c0050544                srcu_notifier_chain_register
                0x00000000c00505fc                srcu_notifier_chain_unregister
                0x00000000c00506c0                __blocking_notifier_call_chain
                0x00000000c0050728                blocking_notifier_call_chain
                0x00000000c0050750                blocking_notifier_chain_unregister
                0x00000000c005080c                unregister_reboot_notifier
                0x00000000c005082c                blocking_notifier_chain_cond_register
                0x00000000c00508ac                blocking_notifier_chain_register
                0x00000000c0050964                register_reboot_notifier
                0x00000000c0050984                __atomic_notifier_call_chain
                0x00000000c00509e8                atomic_notifier_call_chain
                0x00000000c0050a10                atomic_notifier_chain_register
                0x00000000c0050ab0                register_die_notifier
                0x00000000c0050ad8                atomic_notifier_chain_unregister
                0x00000000c0050b74                unregister_die_notifier
                0x00000000c0050b94                notify_die
                0x00000000c0050c4c                pm_qos_requirement
                0x00000000c0050c6c                pm_qos_remove_notifier
                0x00000000c0050c90                pm_qos_add_notifier
                0x00000000c0050d94                pm_qos_remove_requirement
                0x00000000c0050ef0                pm_qos_update_requirement
                0x00000000c005108c                pm_qos_add_requirement
                0x00000000c0051250                sched_clock
                0x00000000c0051280                sched_clock_init
                0x00000000c00512a0                sched_clock_cpu
                0x00000000c00512e0                cpu_clock
                0x00000000c0051430                get_seconds
                0x00000000c005144c                current_kernel_time
                0x00000000c0051498                getrawmonotonic
                0x00000000c00515bc                getnstimeofday
                0x00000000c00516e4                do_gettimeofday
                0x00000000c0051728                update_xtime_cache
                0x00000000c00517b8                do_settimeofday
                0x00000000c00518d0                timekeeping_valid_for_hres
                0x00000000c005191c                read_persistent_clock
                0x00000000c0051adc                update_wall_time
                0x00000000c0052318                getboottime
                0x00000000c005234c                monotonic_to_bootbased
                0x00000000c00525d0                ntp_clear
                0x00000000c0052628                second_overflow
                0x00000000c0052794                do_adjtimex
                0x00000000c0053368                clocksource_register
                0x00000000c0053404                clocksource_resume
                0x00000000c00534a0                clocksource_touch_watchdog
                0x00000000c00534b0                clocksource_get_next
                0x00000000c0053548                clocksource_change_rating
                0x00000000c00535dc                clocksource_unregister
                0x00000000c00542e4                sysrq_timer_list_show
                0x00000000c0054328                clockevents_notify
                0x00000000c00543f0                clockevent_delta2ns
                0x00000000c0054490                clockevents_set_mode
                0x00000000c00544c8                clockevents_shutdown
                0x00000000c005450c                clockevents_program_event
                0x00000000c0054620                clockevents_register_notifier
                0x00000000c0054688                clockevents_register_device
                0x00000000c0054774                clockevents_handle_noop
                0x00000000c0054784                clockevents_exchange_device
                0x00000000c005493c                tick_handle_periodic
                0x00000000c0054a28                tick_get_device
                0x00000000c0054a40                tick_is_oneshot_available
                0x00000000c0054a74                tick_setup_periodic
                0x00000000c0054e54                tick_dev_program_event
                0x00000000c0054f48                tick_program_event
                0x00000000c0054f84                tick_resume_oneshot
                0x00000000c0054fc4                tick_setup_oneshot
                0x00000000c005500c                tick_switch_to_oneshot
                0x00000000c00550c4                tick_init_highres
                0x00000000c0055180                get_cpu_idle_time_us
                0x00000000c0055740                tick_get_tick_sched
                0x00000000c0055758                tick_nohz_update_jiffies
                0x00000000c00557cc                tick_nohz_stop_sched_tick
                0x00000000c0055b9c                tick_nohz_get_sleep_length
                0x00000000c0055bbc                tick_nohz_restart_sched_tick
                0x00000000c0055dc8                tick_check_idle
                0x00000000c0055de0                tick_setup_sched_timer
                0x00000000c0055f3c                tick_cancel_sched_timer
                0x00000000c0055f70                tick_clock_notify
                0x00000000c0055fa4                tick_oneshot_notify
                0x00000000c0055fd8                tick_check_oneshot_change
                0x00000000c0057b3c                exit_pi_state_list
                0x00000000c0057d14                sys_set_robust_list
                0x00000000c0057d60                sys_get_robust_list
                0x00000000c0057e8c                handle_futex_death
                0x00000000c0057f90                exit_robust_list
                0x00000000c00580a8                do_futex
                0x00000000c0058c04                sys_futex
                0x00000000c0058d5c                __rt_mutex_init
                0x00000000c0058d84                rt_mutex_destroy
                0x00000000c00594d0                rt_mutex_timed_lock
                0x00000000c00594f4                rt_mutex_getprio
                0x00000000c0059528                rt_mutex_adjust_pi
                0x00000000c0059600                rt_mutex_init_proxy_locked
                0x00000000c0059624                rt_mutex_proxy_unlock
                0x00000000c005964c                rt_mutex_next_owner
                0x00000000c0059688                sys_chown16
                0x00000000c00596b4                sys_lchown16
                0x00000000c00596e0                sys_fchown16
                0x00000000c005970c                sys_setregid16
                0x00000000c0059738                sys_setgid16
                0x00000000c005975c                sys_setreuid16
                0x00000000c0059788                sys_setuid16
                0x00000000c00597ac                sys_setresuid16
                0x00000000c00597e0                sys_getresuid16
                0x00000000c005987c                sys_setresgid16
                0x00000000c00598b0                sys_getresgid16
                0x00000000c005994c                sys_setfsuid16
                0x00000000c0059970                sys_setfsgid16
                0x00000000c0059994                sys_getgroups16
                0x00000000c0059aa8                sys_setgroups16
                0x00000000c0059bf8                sys_getuid16
                0x00000000c0059c34                sys_geteuid16
                0x00000000c0059c70                sys_getgid16
                0x00000000c0059cac                sys_getegid16
                0x00000000c0059d58                module_refcount
                0x00000000c005a3f8                module_put
                0x00000000c005a540                __module_put_and_exit
                0x00000000c005a55c                unregister_module_notifier
                0x00000000c005a57c                register_module_notifier
                0x00000000c005a854                __symbol_get
                0x00000000c005a950                __symbol_put
                0x00000000c005a9cc                module_add_modinfo_attrs
                0x00000000c005aa7c                module_remove_modinfo_attrs
                0x00000000c005abb0                sys_delete_module
                0x00000000c005adbc                mod_sysfs_init
                0x00000000c005ae94                mod_sysfs_setup
                0x00000000c005c0e0                sys_init_module
                0x00000000c005c270                search_module_extables
                0x00000000c005c338                is_module_address
                0x00000000c005c404                __module_text_address
                0x00000000c005c49c                module_text_address
                0x00000000c005c4f8                symbol_put_addr
                0x00000000c005c530                print_modules
                0x00000000c005c890                handle_bad_irq
                0x00000000c005cab8                no_action
                0x00000000c005cacc                handle_IRQ_event
                0x00000000c005cb50                disable_irq_nosync
                0x00000000c005cbf8                disable_irq
                0x00000000c005cc40                set_irq_wake
                0x00000000c005ce5c                enable_irq
                0x00000000c005cedc                free_irq
                0x00000000c005d064                can_request_irq
                0x00000000c005d0d4                compat_irq_chip_set_default_handler
                0x00000000c005d0fc                __irq_set_trigger
                0x00000000c005d3e0                request_irq
                0x00000000c005d4d4                setup_irq
                0x00000000c005d510                noirqdebug_setup
                0x00000000c005d84c                note_interrupt
                0x00000000c005db0c                check_irq_resend
                0x00000000c005dca4                set_irq_chip_data
                0x00000000c005dd68                set_irq_data
                0x00000000c005de08                set_irq_type
                0x00000000c005dec4                dynamic_irq_init
                0x00000000c005dfa0                dynamic_irq_cleanup
                0x00000000c005e0b8                set_irq_msi
                0x00000000c005e160                irq_chip_set_defaults
                0x00000000c005e200                set_irq_chip
                0x00000000c005e2c8                handle_simple_irq
                0x00000000c005e3dc                handle_level_irq
                0x00000000c005e53c                handle_fasteoi_irq
                0x00000000c005e690                handle_edge_irq
                0x00000000c005e86c                handle_percpu_irq
                0x00000000c005e90c                __set_irq_handler
                0x00000000c005eb10                set_irq_chip_and_handler
                0x00000000c005eb40                set_irq_chip_and_handler_name
                0x00000000c005ebc8                devm_free_irq
                0x00000000c005ec34                devm_request_irq
                0x00000000c005ecc0                probe_irq_off
                0x00000000c005edbc                probe_irq_mask
                0x00000000c005eea8                probe_irq_on
                0x00000000c005f198                register_handler_proc
                0x00000000c005f2dc                register_irq_proc
                0x00000000c005f38c                unregister_handler_proc
                0x00000000c005f3d8                init_irq_proc
                0x00000000c005f44c                rcu_batches_completed
                0x00000000c005f468                rcu_batches_completed_bh
                0x00000000c005f484                call_rcu_bh
                0x00000000c005f560                call_rcu
                0x00000000c005fa44                rcu_pending
                0x00000000c005fb90                rcu_needs_cpu
                0x00000000c005fbd8                rcu_check_callbacks
                0x00000000c005fe20                dma_release_from_coherent
                0x00000000c005fe88                dma_alloc_from_coherent
                0x00000000c005ff3c                dma_mark_declared_memory_occupied
                0x00000000c005ffa4                dma_release_declared_memory
                0x00000000c005ffe0                dma_declare_coherent_memory
 .text          0x00000000c00600dc    0x2a1cc mm/built-in.o
                0x00000000c00600dc                iov_iter_single_seg_count
                0x00000000c0060114                pagecache_write_begin
                0x00000000c0060158                iov_iter_fault_in_readable
                0x00000000c00601dc                iov_iter_advance
                0x00000000c00602a0                generic_segment_checks
                0x00000000c006036c                try_to_release_page
                0x00000000c00603d0                pagecache_write_end
                0x00000000c006043c                generic_write_checks
                0x00000000c0060740                iov_iter_copy_from_user
                0x00000000c00607c8                iov_iter_copy_from_user_atomic
                0x00000000c00608b8                should_remove_suid
                0x00000000c0060910                file_remove_suid
                0x00000000c00609a0                generic_file_mmap
                0x00000000c0060a0c                generic_file_readonly_mmap
                0x00000000c0060a38                file_read_actor
                0x00000000c0060ba4                find_get_pages_tag
                0x00000000c0060cd0                find_get_pages_contig
                0x00000000c0060df8                find_get_page
                0x00000000c0060ec0                __lock_page
                0x00000000c0061034                end_page_writeback
                0x00000000c00610e0                unlock_page
                0x00000000c0061164                find_lock_page
                0x00000000c00611e0                wait_on_page_bit
                0x00000000c00612b8                add_to_page_cache_locked
                0x00000000c0061430                __remove_from_page_cache
                0x00000000c00615b8                remove_from_page_cache
                0x00000000c0061628                __filemap_fdatawrite_range
                0x00000000c0061698                filemap_flush
                0x00000000c00616d0                filemap_fdatawrite
                0x00000000c0061708                filemap_fdatawrite_range
                0x00000000c0061734                wait_on_page_writeback_range
                0x00000000c0061864                filemap_fdatawait
                0x00000000c00618f0                filemap_write_and_wait
                0x00000000c006193c                generic_file_buffered_write
                0x00000000c0061c48                generic_file_direct_write
                0x00000000c0062450                sync_page_range_nolock
                0x00000000c00624fc                generic_file_aio_write_nolock
                0x00000000c00625a0                sync_page_range
                0x00000000c0062670                generic_file_aio_write
                0x00000000c0062758                filemap_write_and_wait_range
                0x00000000c00627d8                add_to_page_cache_lru
                0x00000000c0062870                __grab_cache_page
                0x00000000c00628f8                read_cache_page_async
                0x00000000c0062a64                read_cache_page
                0x00000000c0062ac0                filemap_fault
                0x00000000c0062f78                grab_cache_page_nowait
                0x00000000c0063024                find_or_create_page
                0x00000000c00630a8                __lock_page_killable
                0x00000000c0063160                generic_file_aio_read
                0x00000000c0063850                __lock_page_nosync
                0x00000000c0063908                find_get_pages
                0x00000000c0063a14                sys_readahead
                0x00000000c0063ad4                mempool_free_pages
                0x00000000c0063ae8                mempool_alloc_pages
                0x00000000c0063b18                mempool_kfree
                0x00000000c0063b94                mempool_destroy
                0x00000000c0063bbc                mempool_alloc_slab
                0x00000000c0063bdc                mempool_kzalloc
                0x00000000c0063bfc                mempool_kmalloc
                0x00000000c0063c1c                mempool_free_slab
                0x00000000c0063c3c                mempool_free
                0x00000000c0063d30                mempool_alloc
                0x00000000c0063e70                mempool_resize
                0x00000000c0064118                mempool_create_node
                0x00000000c0064204                mempool_create
                0x00000000c00643cc                unregister_oom_notifier
                0x00000000c00643ec                register_oom_notifier
                0x00000000c00645e4                badness
                0x00000000c00647f4                try_set_zone_oom
                0x00000000c00648f8                clear_zonelist_oom
                0x00000000c00649b0                out_of_memory
                0x00000000c0064bd4                sys_fadvise64_64
                0x00000000c0064dd8                probe_kernel_write
                0x00000000c0064e88                probe_kernel_read
                0x00000000c00655d0                show_free_areas
                0x00000000c00658e0                si_meminfo
                0x00000000c00659b4                nr_free_buffer_pages
                0x00000000c0065b3c                prep_compound_page
                0x00000000c0065b9c                split_page
                0x00000000c0065bd8                zone_watermark_ok
                0x00000000c0065c90                nr_free_pagecache_pages
                0x00000000c0065ca8                build_all_zonelists
                0x00000000c0065d80                setup_per_zone_inactive_ratio
                0x00000000c0065dcc                lowmem_reserve_ratio_sysctl_handler
                0x00000000c0065e00                percpu_pagelist_fraction_sysctl_handler
                0x00000000c0065ea4                get_pageblock_flags_group
                0x00000000c00669e4                __pagevec_free
                0x00000000c0066a20                free_cold_page
                0x00000000c0066a38                free_hot_page
                0x00000000c0066a50                __free_pages
                0x00000000c0066a9c                free_pages
                0x00000000c0066ae4                free_pages_exact
                0x00000000c0066b2c                drain_local_pages
                0x00000000c0066ba0                drain_all_pages
                0x00000000c0066bd0                set_pageblock_flags_group
                0x00000000c0066cf0                setup_per_zone_pages_min
                0x00000000c0066f70                min_free_kbytes_sysctl_handler
                0x00000000c00677b4                __alloc_pages_internal
                0x00000000c0067bb0                get_zeroed_page
                0x00000000c0067c10                __get_free_pages
                0x00000000c0067c78                alloc_pages_exact
                0x00000000c0067d50                set_migratetype_isolate
                0x00000000c0067e30                unset_migratetype_isolate
                0x00000000c0067f60                mapping_tagged
                0x00000000c0067fc0                bdi_set_max_ratio
                0x00000000c0068060                test_set_page_writeback
                0x00000000c0068244                bdi_writeout_inc
                0x00000000c006827c                set_page_dirty
                0x00000000c0068354                clear_page_dirty_for_io
                0x00000000c0068504                set_page_dirty_lock
                0x00000000c006855c                __set_page_dirty_nobuffers
                0x00000000c006879c                redirty_page_for_writepage
                0x00000000c00687c4                write_one_page
                0x00000000c0068900                write_cache_pages
                0x00000000c0068c68                generic_writepages
                0x00000000c0068e60                bdi_set_min_ratio
                0x00000000c0068f0c                determine_dirtyable_memory
                0x00000000c0068f74                dirty_ratio_handler
                0x00000000c0069004                get_dirty_limits
                0x00000000c006932c                balance_dirty_pages_ratelimited_nr
                0x00000000c00695c8                set_page_dirty_balance
                0x00000000c0069628                throttle_vm_writeout
                0x00000000c00696a8                wakeup_pdflush
                0x00000000c00696dc                dirty_writeback_centisecs_handler
                0x00000000c006973c                laptop_io_completion
                0x00000000c0069774                laptop_sync_completion
                0x00000000c0069790                writeback_set_ratelimit
                0x00000000c00697e8                do_writepages
                0x00000000c0069850                __set_page_dirty_no_writeback
                0x00000000c006988c                test_clear_page_writeback
                0x00000000c0069cf8                pdflush_operation
                0x00000000c0069dd4                default_unplug_io_fn
                0x00000000c0069de4                file_ra_state_init
                0x00000000c006a0e0                read_cache_pages
                0x00000000c006a360                page_cache_async_readahead
                0x00000000c006a410                page_cache_sync_readahead
                0x00000000c006a448                force_page_cache_readahead
                0x00000000c006a4fc                do_page_cache_readahead
                0x00000000c006a574                max_sane_readahead
                0x00000000c006a5a4                pagevec_lookup_tag
                0x00000000c006a5e0                pagevec_lookup
                0x00000000c006a654                put_page
                0x00000000c006a7f8                put_pages_list
                0x00000000c006a85c                activate_page
                0x00000000c006aa80                mark_page_accessed
                0x00000000c006ab10                add_page_to_unevictable_list
                0x00000000c006ac2c                lru_add_drain_all
                0x00000000c006ac48                release_pages
                0x00000000c006af30                ____pagevec_lru_add
                0x00000000c006b188                __lru_cache_add
                0x00000000c006b244                lru_cache_add_lru
                0x00000000c006b2b0                lru_cache_add_active_or_unevictable
                0x00000000c006b4dc                rotate_reclaimable_page
                0x00000000c006b590                lru_add_drain
                0x00000000c006b64c                __pagevec_release
                0x00000000c006b68c                __pagevec_release_nonlru
                0x00000000c006b734                pagevec_strip
                0x00000000c006b7c0                pagevec_swap_free
                0x00000000c006b84c                cancel_dirty_page
                0x00000000c006b96c                invalidate_inode_pages2_range
                0x00000000c006bcfc                invalidate_inode_pages2
                0x00000000c006bdd4                truncate_inode_pages_range
                0x00000000c006c204                truncate_inode_pages
                0x00000000c006c22c                do_invalidatepage
                0x00000000c006c25c                __invalidate_mapping_pages
                0x00000000c006c408                invalidate_mapping_pages
                0x00000000c006c654                unregister_shrinker
                0x00000000c006c6a8                register_shrinker
                0x00000000c006c6f8                shrink_slab
                0x00000000c006c8dc                remove_mapping
                0x00000000c006c900                __isolate_lru_page
                0x00000000c006cc48                isolate_lru_page
                0x00000000c006ce0c                wakeup_kswapd
                0x00000000c006ce84                global_lru_pages
                0x00000000c006ceb8                kswapd_run
                0x00000000c006cf58                page_evictable
                0x00000000c006d258                putback_lru_page
                0x00000000c006f174                try_to_free_pages
                0x00000000c006f4e4                scan_mapping_unevictable_pages
                0x00000000c006f768                scan_zone_unevictable_pages
                0x00000000c006f914                scan_all_zones_unevictable_pages
                0x00000000c006f948                scan_unevictable_handler
                0x00000000c006f9ac                scan_unevictable_register_node
                0x00000000c006f9c8                scan_unevictable_unregister_node
                0x00000000c006f9e4                vma_prio_tree_add
                0x00000000c006faac                vma_prio_tree_insert
                0x00000000c006faf0                vma_prio_tree_remove
                0x00000000c006fbf4                vma_prio_tree_next
                0x00000000c006fc80                get_user_pages_fast
                0x00000000c006fd00                strndup_user
                0x00000000c006fdbc                __krealloc
                0x00000000c006fe34                krealloc
                0x00000000c006fe7c                kmemdup
                0x00000000c006feb8                kstrndup
                0x00000000c006ff0c                kstrdup
                0x00000000c006ff58                arch_pick_mmap_layout
                0x00000000c006ff88                first_online_pgdat
                0x00000000c006ffc0                next_online_pgdat
                0x00000000c0070008                next_zone
                0x00000000c0070034                next_zones_zonelist
                0x00000000c0070898                all_vm_events
                0x00000000c0070bdc                congestion_wait
                0x00000000c0070c64                set_bdi_congested
                0x00000000c0070c8c                clear_bdi_congested
                0x00000000c0070ce8                bdi_init
                0x00000000c0070d30                bdi_unregister
                0x00000000c0070d70                bdi_destroy
                0x00000000c0070d90                bdi_register
                0x00000000c0070e3c                bdi_register_dev
                0x00000000c0070f14                start_isolate_page_range
                0x00000000c0070fe4                undo_isolate_page_range
                0x00000000c0071094                test_pages_isolated
                0x00000000c007127c                sys_remap_file_pages
                0x00000000c007174c                sys_madvise
                0x00000000c00721d8                pgd_clear_bad
                0x00000000c00721fc                pud_clear_bad
                0x00000000c007220c                pmd_clear_bad
                0x00000000c0072244                free_pgd_range
                0x00000000c0072430                free_pgtables
                0x00000000c0072500                __pte_alloc
                0x00000000c00726e8                remap_pfn_range
                0x00000000c0072928                __pte_alloc_kernel
                0x00000000c00729f8                apply_to_page_range
                0x00000000c0072c64                vm_normal_page
                0x00000000c00734bc                copy_page_range
                0x00000000c0073928                unmap_vmas
                0x00000000c0073ee0                zap_page_range
                0x00000000c00740c0                unmap_mapping_range
                0x00000000c0074374                vmtruncate_range
                0x00000000c007447c                vmtruncate
                0x00000000c0074610                zap_vma_ptes
                0x00000000c0074668                follow_page
                0x00000000c0074834                get_locked_pte
                0x00000000c0074a18                vm_insert_page
                0x00000000c0074b3c                vm_insert_mixed
                0x00000000c0074c0c                vm_insert_pfn
                0x00000000c0074ce8                handle_mm_fault
                0x00000000c00754a8                __get_user_pages
                0x00000000c0075700                get_user_pages
                0x00000000c0075744                __pmd_alloc
                0x00000000c0075754                make_pages_present
                0x00000000c0075818                get_gate_vma
                0x00000000c007582c                in_gate_area_no_task
                0x00000000c0075840                access_process_vm
                0x00000000c00759f0                print_vma_addr
                0x00000000c0075b24                sys_mincore
                0x00000000c0075e4c                can_do_mlock
                0x00000000c0075e94                __clear_page_mlock
                0x00000000c0075fc8                mlock_vma_page
                0x00000000c00767d4                mlock_vma_pages_range
                0x00000000c00768bc                munlock_vma_pages_range
                0x00000000c0076900                sys_mlock
                0x00000000c00769c8                sys_munlock
                0x00000000c0076a3c                sys_mlockall
                0x00000000c0076af0                sys_munlockall
                0x00000000c0076b3c                user_shm_lock
                0x00000000c0076c0c                user_shm_unlock
                0x00000000c0076c80                vm_get_page_prot
                0x00000000c0076dbc                arch_unmap_area
                0x00000000c0076de8                find_vma
                0x00000000c0076f3c                get_unmapped_area
                0x00000000c007749c                __vm_enough_memory
                0x00000000c00775d4                unlink_file_vma
                0x00000000c007762c                __vma_link_rb
                0x00000000c0077664                vma_adjust
                0x00000000c0077b58                vma_merge
                0x00000000c0077da8                vm_stat_account
                0x00000000c0077fe4                vma_wants_writenotify
                0x00000000c007808c                arch_get_unmapped_area_topdown
                0x00000000c0078218                arch_unmap_area_topdown
                0x00000000c0078244                find_vma_prev
                0x00000000c00782d4                find_mergeable_anon_vma
                0x00000000c0078418                expand_stack_downwards
                0x00000000c007842c                expand_stack
                0x00000000c0078440                find_extend_vma
                0x00000000c00784c4                split_vma
                0x00000000c0078604                do_munmap
                0x00000000c0078888                do_brk
                0x00000000c0078b28                sys_brk
                0x00000000c0078c48                mmap_region
                0x00000000c00791f4                do_mmap_pgoff
                0x00000000c00794f0                sys_munmap
                0x00000000c0079548                exit_mmap
                0x00000000c00796cc                insert_vm_struct
                0x00000000c00797e4                copy_vma
                0x00000000c0079968                may_expand_vm
                0x00000000c00799a4                install_special_mapping
                0x00000000c0079a60                mm_drop_all_locks
                0x00000000c0079b8c                mm_take_all_locks
                0x00000000c0079cd0                mprotect_fixup
                0x00000000c007a10c                sys_mprotect
                0x00000000c007a2d4                move_page_tables
                0x00000000c007a5bc                do_mremap
                0x00000000c007abd0                sys_mremap
                0x00000000c007ac48                sys_msync
                0x00000000c007af44                anon_vma_prepare
                0x00000000c007b050                __anon_vma_merge
                0x00000000c007b09c                __anon_vma_link
                0x00000000c007b0d0                anon_vma_link
                0x00000000c007b138                anon_vma_unlink
                0x00000000c007b1e4                page_lock_anon_vma
                0x00000000c007b25c                page_unlock_anon_vma
                0x00000000c007b2b4                page_address_in_vma
                0x00000000c007b344                page_check_address
                0x00000000c007b42c                page_mkclean
                0x00000000c007b898                page_referenced
                0x00000000c007b9e0                page_add_anon_rmap
                0x00000000c007ba18                page_add_new_anon_rmap
                0x00000000c007ba50                page_add_file_rmap
                0x00000000c007baf0                page_remove_rmap
                0x00000000c007c6cc                try_to_unmap
                0x00000000c007c72c                try_to_munlock
                0x00000000c007cc30                unmap_kernel_range
                0x00000000c007d13c                map_vm_area
                0x00000000c007d188                vm_unmap_ram
                0x00000000c007d4b0                vm_unmap_aliases
                0x00000000c007d634                vmalloc_to_page
                0x00000000c007d6bc                remap_vmalloc_range
                0x00000000c007d774                vmalloc_to_pfn
                0x00000000c007dcfc                get_vm_area
                0x00000000c007dd3c                __get_vm_area
                0x00000000c007dd60                vm_map_ram
                0x00000000c007e218                get_vm_area_caller
                0x00000000c007e25c                get_vm_area_node
                0x00000000c007e29c                remove_vm_area
                0x00000000c007e34c                free_vm_area
                0x00000000c007e478                vunmap
                0x00000000c007e4ac                vmap
                0x00000000c007e52c                vfree
                0x00000000c007e75c                vmalloc_node
                0x00000000c007e790                vmalloc
                0x00000000c007e7c4                __vmalloc
                0x00000000c007e7e8                vmalloc_32_user
                0x00000000c007e82c                vmalloc_32
                0x00000000c007e850                vmalloc_user
                0x00000000c007e894                __vmalloc_area
                0x00000000c007e8b8                vmalloc_exec
                0x00000000c007e8e0                vread
                0x00000000c007ea20                vwrite
                0x00000000c007eb44                vmalloc_sync_all
                0x00000000c007eb54                alloc_vm_area
                0x00000000c007ebc0                walk_page_range
                0x00000000c007ef2c                end_swap_bio_read
                0x00000000c007eff4                swap_writepage
                0x00000000c007f0dc                swap_readpage
                0x00000000c007f1a8                show_swap_cache_info
                0x00000000c007f22c                add_to_swap_cache
                0x00000000c007f438                __delete_from_swap_cache
                0x00000000c007f550                add_to_swap
                0x00000000c007f5fc                delete_from_swap_cache
                0x00000000c007f678                free_page_and_swap_cache
                0x00000000c007f6d0                free_pages_and_swap_cache
                0x00000000c007f77c                lookup_swap_cache
                0x00000000c007f7c0                read_swap_cache_async
                0x00000000c007f8e4                swapin_readahead
                0x00000000c007fe50                sys_swapon
                0x00000000c00809d0                swap_unplug_io_fn
                0x00000000c0080a78                get_swap_page
                0x00000000c0080f54                get_swap_page_of_type
                0x00000000c0081388                swap_free
                0x00000000c008192c                can_share_swap_page
                0x00000000c00819e4                remove_exclusive_swap_page
                0x00000000c00819fc                remove_exclusive_swap_page_ref
                0x00000000c0081a18                free_swap_and_cache
                0x00000000c0081b60                map_swap_page
                0x00000000c0081bc4                sys_swapoff
                0x00000000c0082878                si_swapinfo
                0x00000000c0082928                swap_duplicate
                0x00000000c0082a5c                get_swap_info_struct
                0x00000000c0082a7c                valid_swaphandles
                0x00000000c0082c08                grab_swap_token
                0x00000000c0082d20                __put_swap_token
                0x00000000c0082d9c                dma_pool_free
                0x00000000c0082f20                dma_pool_alloc
                0x00000000c008327c                dma_pool_destroy
                0x00000000c00833a8                dmam_pool_destroy
                0x00000000c0083414                dma_pool_create
                0x00000000c0083588                dmam_pool_create
                0x00000000c0086d8c                shmem_file_setup
                0x00000000c0086f60                shmem_set_file
                0x00000000c008731c                shmem_unuse
                0x00000000c0087848                shmem_lock
                0x00000000c0087980                shmem_zero_setup
                0x00000000c0087a80                kmem_cache_size
                0x00000000c0087a94                kmem_cache_name
                0x00000000c008839c                kfree
                0x00000000c008844c                kmem_cache_free
                0x00000000c008898c                kmem_cache_shrink
                0x00000000c00889ec                kmem_cache_destroy
                0x00000000c0089260                kmem_cache_alloc
                0x00000000c00892fc                __kmalloc
                0x00000000c00899f8                slabinfo_write
                0x00000000c0089c18                kmem_cache_create
                0x00000000c008a148                slab_is_available
                0x00000000c008a170                kmem_ptr_validate
                0x00000000c008a228                ksize
 .text          0x00000000c008a2a8    0x4e7d8 fs/built-in.o
                0x00000000c008a2a8                nonseekable_open
                0x00000000c008a2c8                generic_file_open
                0x00000000c008a338                fd_install
                0x00000000c008a3a4                put_unused_fd
                0x00000000c008a41c                filp_close
                0x00000000c008a498                sys_close
                0x00000000c008a864                dentry_open
                0x00000000c008a8f4                lookup_instantiate_filp
                0x00000000c008aa48                vfs_statfs
                0x00000000c008ace8                sys_statfs
                0x00000000c008ad8c                sys_statfs64
                0x00000000c008ae3c                sys_fstatfs
                0x00000000c008aecc                sys_fstatfs64
                0x00000000c008af70                do_truncate
                0x00000000c008b330                sys_truncate
                0x00000000c008b34c                sys_ftruncate
                0x00000000c008b378                sys_truncate64
                0x00000000c008b38c                sys_ftruncate64
                0x00000000c008b3b0                sys_fallocate
                0x00000000c008b4d0                sys_faccessat
                0x00000000c008b648                sys_access
                0x00000000c008b66c                sys_chdir
                0x00000000c008b6e8                sys_fchdir
                0x00000000c008b760                sys_chroot
                0x00000000c008b7f0                sys_fchmod
                0x00000000c008b8a0                sys_fchmodat
                0x00000000c008b958                sys_chmod
                0x00000000c008b97c                sys_chown
                0x00000000c008b9fc                sys_fchownat
                0x00000000c008ba88                sys_lchown
                0x00000000c008bb08                sys_fchown
                0x00000000c008bb6c                nameidata_to_filp
                0x00000000c008bbc0                do_sys_open
                0x00000000c008bcac                sys_open
                0x00000000c008bcd8                sys_openat
                0x00000000c008bcec                sys_creat
                0x00000000c008bd0c                sys_vhangup
                0x00000000c008bd3c                generic_file_llseek_unlocked
                0x00000000c008bddc                no_llseek
                0x00000000c008bdf4                vfs_llseek
                0x00000000c008be50                iov_shorten
                0x00000000c008bec0                sys_lseek
                0x00000000c008bfc0                do_sync_write
                0x00000000c008c0b4                do_sync_read
                0x00000000c008c1a8                default_llseek
                0x00000000c008c278                generic_file_llseek
                0x00000000c008c2e4                sys_llseek
                0x00000000c008c3b8                rw_verify_area
                0x00000000c008c680                vfs_write
                0x00000000c008c7d4                sys_write
                0x00000000c008c848                vfs_read
                0x00000000c008c998                sys_read
                0x00000000c008ca0c                sys_pread64
                0x00000000c008ca98                sys_pwrite64
                0x00000000c008cb24                do_sync_readv_writev
                0x00000000c008cc18                do_loop_readv_writev
                0x00000000c008cc94                rw_copy_check_uvector
                0x00000000c008cf64                vfs_writev
                0x00000000c008cfe4                vfs_readv
                0x00000000c008d064                sys_readv
                0x00000000c008d0d8                sys_writev
                0x00000000c008d14c                sys_sendfile
                0x00000000c008d1dc                sys_sendfile64
                0x00000000c008d2b4                get_max_files
                0x00000000c008d2d0                fget
                0x00000000c008d3e4                drop_file_write_access
                0x00000000c008d444                init_file
                0x00000000c008d504                get_empty_filp
                0x00000000c008d63c                alloc_file
                0x00000000c008d688                proc_nr_files
                0x00000000c008d6cc                fget_light
                0x00000000c008d7d4                file_move
                0x00000000c008d844                file_kill
                0x00000000c008d8a8                put_filp
                0x00000000c008d94c                __fput
                0x00000000c008db38                fput
                0x00000000c008db70                fs_may_remount_ro
                0x00000000c008dc98                vfs_kern_mount
                0x00000000c008dd40                kern_mount_data
                0x00000000c008dd60                do_kern_mount
                0x00000000c008de40                set_anon_super
                0x00000000c008df38                lock_super
                0x00000000c008df7c                unlock_super
                0x00000000c008e050                drop_super
                0x00000000c008e074                deactivate_super
                0x00000000c008e100                sget
                0x00000000c008e4e0                get_sb_nodev
                0x00000000c008e578                get_sb_bdev
                0x00000000c008e6e0                __put_super_and_need_restart
                0x00000000c008e754                get_super
                0x00000000c008e870                __fsync_super
                0x00000000c008e8f0                fsync_super
                0x00000000c008e910                generic_shutdown_super
                0x00000000c008ea50                kill_block_super
                0x00000000c008ea80                kill_anon_super
                0x00000000c008eae4                kill_litter_super
                0x00000000c008eb10                sync_supers
                0x00000000c008ec30                sync_filesystems
                0x00000000c008edc4                user_get_super
                0x00000000c008eec4                sys_ustat
                0x00000000c008ef9c                do_remount_sb
                0x00000000c008f1a0                get_sb_single
                0x00000000c008f36c                emergency_remount
                0x00000000c008f558                cdev_init
                0x00000000c008f5b8                cdev_alloc
                0x00000000c008f604                cdev_del
                0x00000000c008f638                cdev_add
                0x00000000c008f750                unregister_chrdev
                0x00000000c008f78c                unregister_chrdev_region
                0x00000000c008f988                register_chrdev
                0x00000000c008fa70                alloc_chrdev_region
                0x00000000c008faa4                register_chrdev_region
                0x00000000c008fb58                chrdev_show
                0x00000000c008fbc8                cdev_put
                0x00000000c008fdfc                cd_forget
                0x00000000c008fe64                inode_set_bytes
                0x00000000c008fe88                inode_get_bytes
                0x00000000c008fef0                inode_sub_bytes
                0x00000000c008ff8c                inode_add_bytes
                0x00000000c0090014                generic_fillattr
                0x00000000c0090100                vfs_getattr
                0x00000000c0090438                vfs_fstat
                0x00000000c009047c                vfs_stat_fd
                0x00000000c00904cc                vfs_stat
                0x00000000c00904f0                vfs_lstat_fd
                0x00000000c0090540                vfs_lstat
                0x00000000c0090564                sys_newstat
                0x00000000c00905a8                sys_newlstat
                0x00000000c00905ec                sys_newfstat
                0x00000000c0090624                sys_readlinkat
                0x00000000c00906b8                sys_readlink
                0x00000000c00906e4                sys_stat64
                0x00000000c009071c                sys_lstat64
                0x00000000c0090754                sys_fstat64
                0x00000000c009078c                sys_fstatat64
                0x00000000c00907ec                unregister_binfmt
                0x00000000c0090854                register_binfmt
                0x00000000c0090950                set_binfmt
                0x00000000c0090a24                search_binary_handler
                0x00000000c0090d40                compute_creds
                0x00000000c0090df4                kernel_read
                0x00000000c0090e7c                prepare_binprm
                0x00000000c0090f64                open_exec
                0x00000000c0091028                setup_arg_pages
                0x00000000c0091364                remove_arg_zero
                0x00000000c00916b0                copy_strings_kernel
                0x00000000c009179c                sys_uselib
                0x00000000c00919dc                bprm_mm_init
                0x00000000c0091b28                get_task_comm
                0x00000000c0091b84                set_task_comm
                0x00000000c0091bd4                free_bprm
                0x00000000c0091be8                do_execve
                0x00000000c0091dc0                set_dumpable
                0x00000000c0091e74                flush_old_exec
                0x00000000c0092620                get_dumpable
                0x00000000c0092640                do_coredump
                0x00000000c0092e68                generic_pipe_buf_map
                0x00000000c0092f0c                generic_pipe_buf_confirm
                0x00000000c0093054                generic_pipe_buf_get
                0x00000000c009351c                generic_pipe_buf_unmap
                0x00000000c0093598                generic_pipe_buf_steal
                0x00000000c0093600                pipe_wait
                0x00000000c00940e8                alloc_pipe_info
                0x00000000c0094134                __free_pipe_info
                0x00000000c00942b4                free_pipe_info
                0x00000000c00942d8                create_write_pipe
                0x00000000c0094474                free_write_pipe
                0x00000000c00944b0                create_read_pipe
                0x00000000c0094530                do_pipe_flags
                0x00000000c009460c                do_pipe
                0x00000000c0094624                sys_pipe2
                0x00000000c00946a8                sys_pipe
                0x00000000c00946c0                path_get
                0x00000000c0094730                get_write_access
                0x00000000c00947d0                __page_symlink
                0x00000000c00948f8                page_symlink
                0x00000000c009491c                page_put_link
                0x00000000c00949a4                page_follow_link_light
                0x00000000c00949e4                generic_permission
                0x00000000c0094afc                inode_permission
                0x00000000c0094b84                file_permission
                0x00000000c0094ba0                vfs_permission
                0x00000000c0094ce4                follow_up
                0x00000000c0094df8                path_put
                0x00000000c0094f88                follow_down
                0x00000000c0095020                unlock_rename
                0x00000000c00953a4                lookup_create
                0x00000000c0095450                lookup_one_len
                0x00000000c00954f8                vfs_readlink
                0x00000000c0095580                page_readlink
                0x00000000c00955e4                generic_readlink
                0x00000000c0095680                vfs_link
                0x00000000c00957c4                vfs_symlink
                0x00000000c0095890                vfs_mknod
                0x00000000c009598c                vfs_create
                0x00000000c0095a6c                vfs_mkdir
                0x00000000c0095b44                vfs_unlink
                0x00000000c0095c20                dentry_unhash
                0x00000000c0095d10                vfs_rename
                0x00000000c00960ac                vfs_rmdir
                0x00000000c0096178                lock_rename
                0x00000000c009621c                getname
                0x00000000c0097290                vfs_follow_link
                0x00000000c0097498                vfs_path_lookup
                0x00000000c0097628                kern_path
                0x00000000c0097674                path_lookup
                0x00000000c0097984                user_path_at
                0x00000000c0097a0c                deny_write_access
                0x00000000c0097ab4                release_open_intent
                0x00000000c0097ae0                path_lookup_open
                0x00000000c0097b7c                lookup_one_noperm
                0x00000000c0097c14                may_open
                0x00000000c0097ddc                do_filp_open
                0x00000000c00985a8                filp_open
                0x00000000c00985d4                sys_mknodat
                0x00000000c00987c0                sys_mknod
                0x00000000c00987ec                sys_mkdirat
                0x00000000c00988ec                sys_mkdir
                0x00000000c0098910                sys_rmdir
                0x00000000c009892c                sys_unlinkat
                0x00000000c0098960                sys_unlink
                0x00000000c009897c                sys_symlinkat
                0x00000000c0098a68                sys_symlink
                0x00000000c0098a84                sys_linkat
                0x00000000c0098b98                sys_link
                0x00000000c0098bd0                sys_renameat
                0x00000000c0098db0                sys_rename
                0x00000000c0098dd8                fasync_helper
                0x00000000c0099000                __f_setown
                0x00000000c0099044                f_setown
                0x00000000c00990d0                set_close_on_exec
                0x00000000c0099144                sys_dup3
                0x00000000c00992ec                sys_dup2
                0x00000000c0099380                sys_dup
                0x00000000c00993c8                f_delown
                0x00000000c0099400                f_getown
                0x00000000c009982c                sys_fcntl
                0x00000000c009987c                sys_fcntl64
                0x00000000c009990c                send_sigio
                0x00000000c0099ab4                __kill_fasync
                0x00000000c0099b3c                kill_fasync
                0x00000000c0099b94                send_sigurg
                0x00000000c0099cc8                fiemap_check_flags
                0x00000000c0099d88                fiemap_fill_next_extent
                0x00000000c0099e94                generic_block_fiemap
                0x00000000c009a158                do_vfs_ioctl
                0x00000000c009a64c                sys_ioctl
                0x00000000c009a944                vfs_readdir
                0x00000000c009a9fc                sys_getdents
                0x00000000c009aab8                sys_getdents64
                0x00000000c009ab7c                poll_initwait
                0x00000000c009ac94                poll_freewait
                0x00000000c009ae58                poll_select_set_timeout
                0x00000000c009aedc                do_select
                0x00000000c009b3c8                core_sys_select
                0x00000000c009b740                sys_select
                0x00000000c009b924                do_sys_poll
                0x00000000c009bd74                sys_poll
                0x00000000c009c298                dget_locked
                0x00000000c009c2d0                d_genocide
                0x00000000c009c3c0                d_rehash
                0x00000000c009c494                have_submounts
                0x00000000c009c574                d_find_alias
                0x00000000c009ce4c                shrink_dcache_parent
                0x00000000c009cf90                d_invalidate
                0x00000000c009d104                shrink_dcache_sb
                0x00000000c009d120                dput
                0x00000000c009d2dc                d_prune_aliases
                0x00000000c009d57c                d_instantiate
                0x00000000c009db08                d_move
                0x00000000c009db50                d_splice_alias
                0x00000000c009dd28                d_instantiate_unique
                0x00000000c009ddb4                d_materialise_unique
                0x00000000c009e1c0                d_delete
                0x00000000c009e2d0                d_validate
                0x00000000c009e3f4                d_alloc
                0x00000000c009e5b0                d_obtain_alias
                0x00000000c009e710                d_alloc_root
                0x00000000c009e75c                shrink_dcache_for_umount
                0x00000000c009e7c4                d_alloc_name
                0x00000000c009e834                __d_lookup
                0x00000000c009e9f4                d_lookup
                0x00000000c009ea50                d_hash_and_lookup
                0x00000000c009eae4                find_inode_number
                0x00000000c009eb18                d_add_ci
                0x00000000c009ec94                d_ancestor
                0x00000000c009eccc                __d_path
                0x00000000c009ee90                d_path
                0x00000000c009ef90                dynamic_dname
                0x00000000c009f004                dentry_path
                0x00000000c009f170                sys_getcwd
                0x00000000c009f358                is_subdir
                0x00000000c009f41c                bmap
                0x00000000c009f44c                inode_needs_sync
                0x00000000c009f4b0                init_special_inode
                0x00000000c009f53c                inode_double_lock
                0x00000000c009f5b8                remove_inode_hash
                0x00000000c009f624                __insert_inode_hash
                0x00000000c009f6c0                inode_double_unlock
                0x00000000c009f6f8                unlock_new_inode
                0x00000000c009f71c                inode_wait
                0x00000000c009f734                file_update_time
                0x00000000c009f85c                touch_atime
                0x00000000c009f990                iput
                0x00000000c009fb34                iunique
                0x00000000c009fdbc                new_inode
                0x00000000c009fe8c                clear_inode
                0x00000000c009ff74                inode_init_once
                0x00000000c00a0024                destroy_inode
                0x00000000c00a01e4                invalidate_inodes
                0x00000000c00a032c                generic_delete_inode
                0x00000000c00a047c                generic_drop_inode
                0x00000000c00a069c                __iget
                0x00000000c00a0abc                ilookup
                0x00000000c00a0b08                iget_locked
                0x00000000c00a0d7c                ilookup5
                0x00000000c00a0dd8                ilookup5_nowait
                0x00000000c00a0e34                iget5_locked
                0x00000000c00a1054                igrab
                0x00000000c00a10bc                inode_change_ok
                0x00000000c00a124c                inode_setattr
                0x00000000c00a13e8                notify_change
                0x00000000c00a19f0                is_bad_inode
                0x00000000c00a1a18                make_bad_inode
                0x00000000c00a1a80                iget_failed
                0x00000000c00a1c5c                expand_files
                0x00000000c00a1ea4                free_fdtable_rcu
                0x00000000c00a1f84                dup_fd
                0x00000000c00a2384                alloc_fd
                0x00000000c00a24c4                get_unused_fd
                0x00000000c00a25a8                unregister_filesystem
                0x00000000c00a26d0                register_filesystem
                0x00000000c00a278c                get_fs_type
                0x00000000c00a29a4                get_filesystem
                0x00000000c00a2a24                put_filesystem
                0x00000000c00a2a3c                sys_sysfs
                0x00000000c00a2cc0                get_filesystem_list
                0x00000000c00a2d80                __mnt_is_readonly
                0x00000000c00a314c                generic_show_options
                0x00000000c00a3458                simple_set_mnt
                0x00000000c00a34e4                may_umount_tree
                0x00000000c00a35c4                mnt_unpin
                0x00000000c00a363c                mnt_pin
                0x00000000c00a368c                mnt_want_write
                0x00000000c00a393c                may_umount
                0x00000000c00a39a4                save_mount_options
                0x00000000c00a3a2c                mnt_drop_write
                0x00000000c00a3bdc                mnt_release_group_id
                0x00000000c00a3d88                alloc_vfsmnt
                0x00000000c00a3ee0                free_vfsmnt
                0x00000000c00a40dc                mntput_no_expire
                0x00000000c00a4240                __lookup_mnt
                0x00000000c00a42ac                lookup_mnt
                0x00000000c00a4330                mnt_set_mountpoint
                0x00000000c00a473c                do_add_mount
                0x00000000c00a4864                release_mounts
                0x00000000c00a493c                umount_tree
                0x00000000c00a4af0                mark_mounts_for_expiry
                0x00000000c00a4c3c                sys_umount
                0x00000000c00a4fcc                copy_tree
                0x00000000c00a5238                collect_mounts
                0x00000000c00a5280                drop_collected_mounts
                0x00000000c00a530c                copy_mount_options
                0x00000000c00a5420                do_mount
                0x00000000c00a5c0c                sys_mount
                0x00000000c00a5ce8                set_fs_root
                0x00000000c00a5d70                set_fs_pwd
                0x00000000c00a5df8                sys_pivot_root
                0x00000000c00a62f8                __put_mnt_ns
                0x00000000c00a63b8                copy_mnt_ns
                0x00000000c00a66f0                seq_putc
                0x00000000c00a6728                seq_list_start
                0x00000000c00a6774                seq_list_start_head
                0x00000000c00a67cc                seq_list_next
                0x00000000c00a6800                seq_puts
                0x00000000c00a6868                seq_release
                0x00000000c00a6890                seq_release_private
                0x00000000c00a68c8                single_release
                0x00000000c00a68f4                seq_bitmap_list
                0x00000000c00a6958                seq_bitmap
                0x00000000c00a6a68                seq_escape
                0x00000000c00a6b64                seq_path
                0x00000000c00a6bec                seq_printf
                0x00000000c00a6c64                seq_lseek
                0x00000000c00a6f78                seq_read
                0x00000000c00a73a0                seq_open
                0x00000000c00a7430                __seq_open_private
                0x00000000c00a7490                seq_open_private
                0x00000000c00a74b0                single_open
                0x00000000c00a7544                seq_path_root
                0x00000000c00a7614                seq_dentry
                0x00000000c00a769c                xattr_getsecurity
                0x00000000c00a76b0                vfs_listxattr
                0x00000000c00a777c                generic_getxattr
                0x00000000c00a77dc                generic_listxattr
                0x00000000c00a78b8                generic_setxattr
                0x00000000c00a792c                generic_removexattr
                0x00000000c00a7b88                vfs_getxattr
                0x00000000c00a7d10                vfs_removexattr
                0x00000000c00a7e68                vfs_setxattr
                0x00000000c00a8094                sys_setxattr
                0x00000000c00a8124                sys_lsetxattr
                0x00000000c00a81b4                sys_fsetxattr
                0x00000000c00a8234                sys_getxattr
                0x00000000c00a829c                sys_lgetxattr
                0x00000000c00a8304                sys_fgetxattr
                0x00000000c00a8354                sys_listxattr
                0x00000000c00a83b4                sys_llistxattr
                0x00000000c00a8414                sys_flistxattr
                0x00000000c00a845c                sys_removexattr
                0x00000000c00a84d4                sys_lremovexattr
                0x00000000c00a854c                sys_fremovexattr
                0x00000000c00a85bc                simple_statfs
                0x00000000c00a8600                simple_sync_file
                0x00000000c00a8614                generic_read_dir
                0x00000000c00a8628                generic_fh_to_parent
                0x00000000c00a8680                generic_fh_to_dentry
                0x00000000c00a86d4                simple_attr_write
                0x00000000c00a87c4                simple_attr_release
                0x00000000c00a87e0                simple_attr_open
                0x00000000c00a8860                simple_transaction_release
                0x00000000c00a8880                simple_transaction_get
                0x00000000c00a89b4                simple_empty
                0x00000000c00a8a60                dcache_readdir
                0x00000000c00a8d0c                memory_read_from_buffer
                0x00000000c00a8d9c                simple_read_from_buffer
                0x00000000c00a8e5c                simple_attr_read
                0x00000000c00a8f2c                simple_transaction_read
                0x00000000c00a8f70                simple_release_fs
                0x00000000c00a8fe8                simple_pin_fs
                0x00000000c00a9104                simple_unlink
                0x00000000c00a9168                simple_rename
                0x00000000c00a9240                simple_rmdir
                0x00000000c00a929c                dcache_dir_close
                0x00000000c00a92b8                simple_link
                0x00000000c00a9370                simple_fill_super
                0x00000000c00a9544                simple_lookup
                0x00000000c00a9590                simple_readpage
                0x00000000c00a9644                dcache_dir_open
                0x00000000c00a9678                get_sb_pseudo
                0x00000000c00a97cc                dcache_dir_lseek
                0x00000000c00a9968                simple_getattr
                0x00000000c00a99a8                simple_write_end
                0x00000000c00a9b08                simple_prepare_write
                0x00000000c00a9bf0                simple_write_begin
                0x00000000c00a9cb4                sb_has_dirty_inodes
                0x00000000c00aa05c                sync_inode
                0x00000000c00aa0b8                write_inode_now
                0x00000000c00aa1ac                generic_osync_inode
                0x00000000c00aa2d4                generic_sync_sb_inodes
                0x00000000c00aa688                __mark_inode_dirty
                0x00000000c00aa8c4                writeback_in_progress
                0x00000000c00aa8dc                writeback_inodes
                0x00000000c00aaa10                sync_inodes_sb
                0x00000000c00aabb4                sync_inodes
                0x00000000c00aac54                get_dominating_id
                0x00000000c00aad14                change_mnt_propagation
                0x00000000c00aaf18                propagate_mnt
                0x00000000c00ab120                propagate_mount_busy
                0x00000000c00ab1ec                propagate_umount
                0x00000000c00ab2c0                drop_caches_sysctl_handler
                0x00000000c00ab8d4                splice_direct_to_actor
                0x00000000c00abc44                __splice_from_pipe
                0x00000000c00abea0                generic_file_splice_write
                0x00000000c00abfbc                generic_file_splice_write_nolock
                0x00000000c00ac250                splice_to_pipe
                0x00000000c00acc0c                generic_file_splice_read
                0x00000000c00acce4                splice_from_pipe
                0x00000000c00acd5c                generic_splice_sendpage
                0x00000000c00acd8c                do_splice_direct
                0x00000000c00acde0                sys_vmsplice
                0x00000000c00acfc0                sys_splice
                0x00000000c00ad270                sys_tee
                0x00000000c00ad710                do_sync_mapping_range
                0x00000000c00ad838                sys_sync
                0x00000000c00ad854                emergency_sync
                0x00000000c00ad874                file_fsync
                0x00000000c00ad8e0                do_fsync
                0x00000000c00ad9d0                sys_fsync
                0x00000000c00ad9e8                sys_fdatasync
                0x00000000c00ada00                sys_sync_file_range
                0x00000000c00adb30                sys_sync_file_range2
                0x00000000c00adcac                do_utimes
                0x00000000c00add9c                sys_utimensat
                0x00000000c00ade58                sys_futimesat
                0x00000000c00adf40                sys_utimes
                0x00000000c00adf64                fsstack_copy_attr_all
                0x00000000c00adffc                fsstack_copy_inode_size
                0x00000000c00ae0a8                init_buffer
                0x00000000c00ae0c0                mark_buffer_async_write
                0x00000000c00ae0f8                generic_block_bmap
                0x00000000c00ae1b4                block_sync_page
                0x00000000c00ae210                block_is_partially_uptodate
                0x00000000c00ae2ec                set_bh_page
                0x00000000c00ae340                free_buffer_head
                0x00000000c00ae4a8                alloc_buffer_head
                0x00000000c00ae5b4                invalidate_inode_buffers
                0x00000000c00ae710                try_to_free_buffers
                0x00000000c00ae7f0                submit_bh
                0x00000000c00ae9c4                generic_cont_expand_simple
                0x00000000c00aed04                alloc_page_buffers
                0x00000000c00aedc4                create_empty_buffers
                0x00000000c00aef04                __brelse
                0x00000000c00aef5c                invalidate_bh_lrus
                0x00000000c00aefe8                __find_get_block
                0x00000000c00af224                __bforget
                0x00000000c00af4d4                mark_buffer_dirty
                0x00000000c00af6a8                block_commit_write
                0x00000000c00af6dc                page_zero_new_buffers
                0x00000000c00af870                block_write_end
                0x00000000c00af8ec                generic_write_end
                0x00000000c00af9c0                nobh_write_end
                0x00000000c00afb44                mark_buffer_dirty_inode
                0x00000000c00afbf4                __set_page_dirty_buffers
                0x00000000c00afd00                invalidate_bdev
                0x00000000c00afd38                thaw_bdev
                0x00000000c00afda4                sync_blockdev
                0x00000000c00afdc8                freeze_bdev
                0x00000000c00afe50                fsync_bdev
                0x00000000c00afe98                __wait_on_buffer
                0x00000000c00afec8                unmap_underlying_metadata
                0x00000000c00aff98                unlock_buffer
                0x00000000c00affcc                bh_submit_read
                0x00000000c00b00dc                end_buffer_read_sync
                0x00000000c00b04ac                end_buffer_write_sync
                0x00000000c00b058c                __lock_buffer
                0x00000000c00b05d4                bh_uptodate_or_lock
                0x00000000c00b0640                sync_dirty_buffer
                0x00000000c00b0788                ll_rw_block
                0x00000000c00b0928                block_truncate_page
                0x00000000c00b0bb4                nobh_truncate_page
                0x00000000c00b12fc                block_prepare_write
                0x00000000c00b1360                block_page_mkwrite
                0x00000000c00b147c                block_write_begin
                0x00000000c00b1580                cont_write_begin
                0x00000000c00b1eb0                block_write_full_page
                0x00000000c00b1ff4                nobh_writepage
                0x00000000c00b212c                nobh_write_begin
                0x00000000c00b2610                block_read_full_page
                0x00000000c00b2a58                block_invalidatepage
                0x00000000c00b2c78                __getblk
                0x00000000c00b2ecc                __breadahead
                0x00000000c00b2f14                __bread
                0x00000000c00b2ff4                sync_mapping_buffers
                0x00000000c00b3330                inode_has_buffers
                0x00000000c00b3350                write_boundary_block
                0x00000000c00b33bc                remove_inode_buffers
                0x00000000c00b3468                sys_bdflush
                0x00000000c00b34f0                bio_get_nr_vecs
                0x00000000c00b353c                bio_endio
                0x00000000c00b359c                bio_sector_offset
                0x00000000c00b366c                bioset_free
                0x00000000c00b36bc                bioset_create
                0x00000000c00b37c4                bio_split
                0x00000000c00b38d4                bio_put
                0x00000000c00b3938                bio_pair_release
                0x00000000c00b39c4                bio_free
                0x00000000c00b3a34                bio_unmap_user
                0x00000000c00b3abc                __bio_clone
                0x00000000c00b3c34                bio_init
                0x00000000c00b3eac                bio_uncopy_user
                0x00000000c00b4178                bio_add_page
                0x00000000c00b41cc                bio_add_pc_page
                0x00000000c00b4200                bio_phys_segments
                0x00000000c00b422c                zero_fill_bio
                0x00000000c00b42dc                bvec_nr_vecs
                0x00000000c00b42fc                bvec_alloc_bs
                0x00000000c00b43f0                bio_alloc_bioset
                0x00000000c00b44d8                bio_clone
                0x00000000c00b4524                bio_kmalloc
                0x00000000c00b454c                bio_alloc
                0x00000000c00b457c                bio_map_kern
                0x00000000c00b46a8                bio_copy_user_iov
                0x00000000c00b4990                bio_copy_user
                0x00000000c00b49cc                bio_copy_kern
                0x00000000c00b4aac                bio_map_user_iov
                0x00000000c00b4d98                bio_map_user
                0x00000000c00b4dd4                bio_set_pages_dirty
                0x00000000c00b4f10                bio_check_pages_dirty
                0x00000000c00b4ffc                I_BDEV
                0x00000000c00b5050                bd_set_size
                0x00000000c00b52e4                bd_release
                0x00000000c00b5358                bd_claim
                0x00000000c00b550c                ioctl_by_bdev
                0x00000000c00b566c                __invalidate_device
                0x00000000c00b56f4                set_blocksize
                0x00000000c00b57a8                sb_set_blocksize
                0x00000000c00b57f8                sb_min_blocksize
                0x00000000c00b58e4                check_disk_change
                0x00000000c00b5944                check_disk_size_change
                0x00000000c00b5a4c                bd_release_from_disk
                0x00000000c00b5bbc                bd_claim_by_disk
                0x00000000c00b5d80                bdput
                0x00000000c00b5f00                blkdev_put
                0x00000000c00b5f68                close_bdev_exclusive
                0x00000000c00b6268                blkdev_get
                0x00000000c00b6280                revalidate_disk
                0x00000000c00b62ec                bdget
                0x00000000c00b6604                lookup_bdev
                0x00000000c00b6698                open_bdev_exclusive
                0x00000000c00b6730                open_by_devnum
                0x00000000c00b6988                nr_blockdev_pages
                0x00000000c00b6a30                bd_forget
                0x00000000c00b7328                __blockdev_direct_IO
                0x00000000c00b81c8                mpage_bio_submit
                0x00000000c00b81fc                mpage_writepages
                0x00000000c00b826c                __mpage_writepage
                0x00000000c00b8890                mpage_writepage
                0x00000000c00b8f7c                mpage_readpage
                0x00000000c00b9000                mpage_readpages
                0x00000000c00b9380                sys_ioprio_set
                0x00000000c00b95a4                ioprio_best
                0x00000000c00b95dc                sys_ioprio_get
                0x00000000c00b9824                get_inotify_watch
                0x00000000c00b9850                inotify_get_cookie
                0x00000000c00b9884                inotify_init_watch
                0x00000000c00b98c8                inotify_find_update_watch
                0x00000000c00b999c                inotify_find_watch
                0x00000000c00b9d4c                inotify_add_watch
                0x00000000c00b9ed0                inotify_inode_queue_event
                0x00000000c00b9fd8                inotify_remove_watch_locked
                0x00000000c00ba028                inotify_inode_is_dead
                0x00000000c00ba0a4                inotify_init
                0x00000000c00ba130                put_inotify_watch
                0x00000000c00ba1fc                inotify_rm_wd
                0x00000000c00ba2b8                inotify_rm_watch
                0x00000000c00ba2d0                inotify_destroy
                0x00000000c00ba3c8                inotify_unmount_inodes
                0x00000000c00ba5d8                inotify_dentry_parent_queue_event
                0x00000000c00ba6d0                pin_inotify_watch
                0x00000000c00ba7a0                unpin_inotify_watch
                0x00000000c00ba7c4                inotify_d_instantiate
                0x00000000c00ba838                inotify_d_move
                0x00000000c00ba86c                inotify_clone_watch
                0x00000000c00ba920                inotify_evict_watch
                0x00000000c00bb0e0                sys_inotify_init1
                0x00000000c00bb348                sys_inotify_init
                0x00000000c00bb360                sys_inotify_add_watch
                0x00000000c00bb504                sys_inotify_rm_watch
                0x00000000c00bbbb0                eventpoll_release_file
                0x00000000c00bbc30                sys_epoll_create1
                0x00000000c00bbd68                sys_epoll_create
                0x00000000c00bbd90                sys_epoll_ctl
                0x00000000c00bc310                sys_epoll_wait
                0x00000000c00bc8d4                anon_inode_getfd
                0x00000000c00bcfbc                sys_signalfd4
                0x00000000c00bd184                sys_signalfd
                0x00000000c00bd604                sys_timerfd_create
                0x00000000c00bd6b8                sys_timerfd_settime
                0x00000000c00bd994                sys_timerfd_gettime
                0x00000000c00be130                eventfd_signal
                0x00000000c00be1fc                eventfd_fget
                0x00000000c00be23c                sys_eventfd2
                0x00000000c00be2d0                sys_eventfd
                0x00000000c00be348                __locks_copy_lock
                0x00000000c00be398                locks_copy_lock
                0x00000000c00be56c                vfs_cancel_lock
                0x00000000c00be970                lock_may_write
                0x00000000c00bea28                lock_may_read
                0x00000000c00beaf0                posix_unblock_lock
                0x00000000c00beb60                posix_test_lock
                0x00000000c00bec64                vfs_test_lock
                0x00000000c00bee9c                lease_modify
                0x00000000c00bf87c                posix_lock_file
                0x00000000c00bf898                vfs_lock_file
                0x00000000c00bf8e0                locks_remove_posix
                0x00000000c00bfad4                posix_lock_file_wait
                0x00000000c00bfc08                flock_lock_file_wait
                0x00000000c00bffb0                generic_setlease
                0x00000000c00c0210                vfs_setlease
                0x00000000c00c0284                lease_get_mtime
                0x00000000c00c02f0                __break_lease
                0x00000000c00c06c0                locks_init_lock
                0x00000000c00c07a0                locks_mandatory_area
                0x00000000c00c09a0                locks_mandatory_locked
                0x00000000c00c0a10                fcntl_getlease
                0x00000000c00c0a90                fcntl_setlease
                0x00000000c00c0c20                sys_flock
                0x00000000c00c0d6c                fcntl_getlk
                0x00000000c00c0ee0                fcntl_setlk
                0x00000000c00c110c                fcntl_getlk64
                0x00000000c00c1254                fcntl_setlk64
                0x00000000c00c1480                locks_remove_flock
                0x00000000c00c3f64                __inode_dir_notify
                0x00000000c00c405c                dnotify_parent
                0x00000000c00c4138                dnotify_flush
                0x00000000c00c4220                fcntl_dirnotify
                0x00000000c00c4450                get_vmalloc_info
                0x00000000c00c5510                task_mem
                0x00000000c00c55f0                task_vsize
                0x00000000c00c5608                task_statm
                0x00000000c00c6074                de_get
                0x00000000c00c60a0                de_put
                0x00000000c00c6180                proc_get_inode
                0x00000000c00c62fc                proc_fill_super
                0x00000000c00c6690                pid_ns_prepare_proc
                0x00000000c00c66b8                pid_ns_release_proc
                0x00000000c00c670c                mem_lseek
                0x00000000c00c9ccc                mm_for_maps
                0x00000000c00c9da4                added_exe_file_vma
                0x00000000c00c9dc0                removed_exe_file_vma
                0x00000000c00c9dfc                set_mm_exe_file
                0x00000000c00c9e50                get_mm_exe_file
                0x00000000c00c9f58                dup_mm_exe_file
                0x00000000c00c9f74                proc_flush_task
                0x00000000c00ca274                proc_pid_lookup
                0x00000000c00ca410                proc_pid_readdir
                0x00000000c00cae6c                proc_net_mkdir
                0x00000000c00caed8                proc_lookup_de
                0x00000000c00cb010                proc_lookup
                0x00000000c00cb034                proc_readdir_de
                0x00000000c00cb2c0                proc_readdir
                0x00000000c00cb2f4                proc_symlink
                0x00000000c00cb3b0                proc_mkdir_mode
                0x00000000c00cb418                proc_mkdir
                0x00000000c00cb438                create_proc_entry
                0x00000000c00cb4e8                proc_create_data
                0x00000000c00cb5a8                free_proc_entry
                0x00000000c00cb634                remove_proc_entry
                0x00000000c00cc06c                proc_pid_status
                0x00000000c00cc630                proc_tid_stat
                0x00000000c00cc654                proc_tgid_stat
                0x00000000c00cc678                proc_pid_statm
                0x00000000c00ccad4                proc_tty_register_driver
                0x00000000c00ccb44                proc_tty_unregister_driver
                0x00000000c00ccf08                arch_report_meminfo
                0x00000000c00ce194                proc_net_remove
                0x00000000c00ce1b4                proc_net_fops_create
                0x00000000c00ce1e8                single_release_net
                0x00000000c00ce1fc                seq_release_net
                0x00000000c00ce214                single_open_net
                0x00000000c00ce254                seq_open_net
                0x00000000c00ce754                part_size_show
                0x00000000c00ce798                read_dev_sector
                0x00000000c00ce868                part_stat_show
                0x00000000c00ce974                __bdevname
                0x00000000c00ce9bc                disk_name
                0x00000000c00cea4c                bdevname
                0x00000000c00cea70                delete_partition
                0x00000000c00cead4                add_partition
                0x00000000c00cecb4                register_disk
                0x00000000c00cedec                rescan_partitions
                0x00000000c00cf100                del_gendisk
                0x00000000c00cf218                msdos_partition
                0x00000000c00cf990                sysfs_setattr
                0x00000000c00cfb58                sysfs_get_inode
                0x00000000c00cfd48                sysfs_hash_and_remove
                0x00000000c00d0454                sysfs_schedule_callback
                0x00000000c00d0594                sysfs_remove_file
                0x00000000c00d05b0                sysfs_remove_file_from_group
                0x00000000c00d0664                sysfs_chmod_file
                0x00000000c00d085c                sysfs_notify_dirent
                0x00000000c00d08dc                sysfs_notify
                0x00000000c00d098c                sysfs_printk_last_file
                0x00000000c00d09b0                sysfs_add_file_mode
                0x00000000c00d0a54                sysfs_add_file
                0x00000000c00d0a6c                sysfs_add_file_to_group
                0x00000000c00d0b40                sysfs_create_file
                0x00000000c00d0e7c                sysfs_get_dentry
                0x00000000c00d0f4c                sysfs_get_active_two
                0x00000000c00d0fa8                sysfs_put_active_two
                0x00000000c00d0fcc                release_sysfs_dirent
                0x00000000c00d1130                sysfs_new_dirent
                0x00000000c00d125c                sysfs_addrm_start
                0x00000000c00d1308                sysfs_remove_one
                0x00000000c00d13b8                sysfs_addrm_finish
                0x00000000c00d16a8                sysfs_find_dirent
                0x00000000c00d17c0                sysfs_get_dirent
                0x00000000c00d1840                __sysfs_add_one
                0x00000000c00d195c                sysfs_add_one
                0x00000000c00d1a54                sysfs_create_subdir
                0x00000000c00d1a78                sysfs_create_dir
                0x00000000c00d1acc                sysfs_remove_subdir
                0x00000000c00d1ae0                sysfs_remove_dir
                0x00000000c00d1b94                sysfs_rename_dir
                0x00000000c00d1ccc                sysfs_move_dir
                0x00000000c00d2124                sysfs_remove_link
                0x00000000c00d230c                sysfs_create_link
                0x00000000c00d2324                sysfs_create_link_nowarn
                0x00000000c00d233c                sysfs_put
                0x00000000c00d237c                sysfs_get
                0x00000000c00d2a24                sysfs_remove_bin_file
                0x00000000c00d2a40                sysfs_create_bin_file
                0x00000000c00d2ab0                sysfs_remove_group
                0x00000000c00d2d70                sysfs_update_group
                0x00000000c00d2d8c                sysfs_create_group
                0x00000000c00d3084                devpts_new_index
                0x00000000c00d312c                devpts_kill_index
                0x00000000c00d3168                devpts_pty_new
                0x00000000c00d3328                devpts_get_tty
                0x00000000c00d336c                devpts_pty_kill
                0x00000000c00d33f0                squashfs_read_data
                0x00000000c00d3bdc                squashfs_cache_get
                0x00000000c00d3fb4                squashfs_cache_put
                0x00000000c00d4060                squashfs_cache_delete
                0x00000000c00d4114                squashfs_cache_init
                0x00000000c00d42d4                squashfs_copy_data
                0x00000000c00d43d4                squashfs_read_metadata
                0x00000000c00d44c8                squashfs_get_fragment
                0x00000000c00d44f4                squashfs_get_datablock
                0x00000000c00d4520                squashfs_read_table
                0x00000000c00d4b2c                squashfs_read_inode_lookup_table
                0x00000000c00d56bc                squashfs_frag_lookup
                0x00000000c00d5728                squashfs_read_fragment_index_table
                0x00000000c00d57cc                squashfs_get_id
                0x00000000c00d5838                squashfs_read_id_index_table
                0x00000000c00d58dc                squashfs_read_inode
                0x00000000c00d5ed0                squashfs_iget
                0x00000000c00d6d70                ramfs_get_sb
                0x00000000c00d6da0                ramfs_get_inode
                0x00000000c00d71a4                utf8_mbtowc
                0x00000000c00d7268                utf8_mbstowcs
                0x00000000c00d72ec                utf8_wctomb
                0x00000000c00d73ac                utf8_wcstombs
                0x00000000c00d74d0                unload_nls
                0x00000000c00d75fc                load_nls
                0x00000000c00d7634                load_nls_default
                0x00000000c00d7660                unregister_nls
                0x00000000c00d7710                register_nls
                0x00000000c00d7c6c                debugfs_rename
                0x00000000c00d7f54                debugfs_remove_recursive
                0x00000000c00d807c                debugfs_remove
                0x00000000c00d8224                debugfs_create_file
                0x00000000c00d8434                debugfs_create_symlink
                0x00000000c00d84a4                debugfs_create_dir
                0x00000000c00d8624                debugfs_create_blob
                0x00000000c00d864c                debugfs_create_bool
                0x00000000c00d8674                debugfs_create_x32
                0x00000000c00d869c                debugfs_create_x16
                0x00000000c00d86c4                debugfs_create_x8
                0x00000000c00d86ec                debugfs_create_u64
                0x00000000c00d8714                debugfs_create_u32
                0x00000000c00d873c                debugfs_create_u16
                0x00000000c00d8764                debugfs_create_u8
 .text          0x00000000c00d8a80     0x5ef4 ipc/built-in.o
                0x00000000c00d8e98                ipc_init_ids
                0x00000000c00d8ee0                ipc_get_maxid
                0x00000000c00d8f5c                ipc_addid
                0x00000000c00d9084                ipc_rmid
                0x00000000c00d90d0                ipc_alloc
                0x00000000c00d90f8                ipc_free
                0x00000000c00d911c                ipc_rcu_alloc
                0x00000000c00d9180                ipc_rcu_getref
                0x00000000c00d919c                ipc_rcu_putref
                0x00000000c00d91e4                ipcperms
                0x00000000c00d9294                kernel_to_ipc64_perm
                0x00000000c00d92dc                ipc64_perm_to_ipc_perm
                0x00000000c00d937c                ipc_lock
                0x00000000c00d9444                ipc_lock_check
                0x00000000c00d94d0                ipcget
                0x00000000c00d9728                ipc_update_perm
                0x00000000c00d9760                ipcctl_pre_down
                0x00000000c00d982c                ipc_parse_version
                0x00000000c00d9854                store_msg
                0x00000000c00d9954                free_msg
                0x00000000c00d998c                load_msg
                0x00000000c00d9d5c                recompute_msgmni
                0x00000000c00d9ddc                msg_init_ns
                0x00000000c00d9e18                sys_msgget
                0x00000000c00d9e80                sys_msgctl
                0x00000000c00da514                do_msgsnd
                0x00000000c00da914                sys_msgsnd
                0x00000000c00da968                do_msgrcv
                0x00000000c00dadb4                sys_msgrcv
                0x00000000c00dbb6c                sem_init_ns
                0x00000000c00dbbac                sys_semget
                0x00000000c00dbc40                sys_semctl
                0x00000000c00dc2c8                sys_semtimedop
                0x00000000c00dcba4                sys_semop
                0x00000000c00dcbbc                copy_semundo
                0x00000000c00dcc64                exit_sem
                0x00000000c00dd510                shm_init_ns
                0x00000000c00dd548                is_file_shm_hugepages
                0x00000000c00dd55c                sys_shmget
                0x00000000c00dd5cc                sys_shmctl
                0x00000000c00ddd9c                do_shmat
                0x00000000c00de198                sys_shmat
                0x00000000c00de1c0                sys_shmdt
                0x00000000c00de380                register_ipcns_notifier
                0x00000000c00de3d4                cond_register_ipcns_notifier
                0x00000000c00de428                unregister_ipcns_notifier
                0x00000000c00de454                ipcns_notify
 .text          0x00000000c00de974      0xb00 security/built-in.o
                0x00000000c00de974                cap_netlink_recv
                0x00000000c00de9a4                cap_netlink_send
                0x00000000c00de9d8                cap_capable
                0x00000000c00dea08                cap_settime
                0x00000000c00dea2c                cap_ptrace_may_access
                0x00000000c00deaa8                cap_ptrace_traceme
                0x00000000c00deb24                cap_capget
                0x00000000c00deb64                cap_capset_check
                0x00000000c00dec78                cap_capset_set
                0x00000000c00decb0                cap_inode_need_killpriv
                0x00000000c00decc4                cap_inode_killpriv
                0x00000000c00decd8                cap_bprm_set_security
                0x00000000c00ded74                cap_bprm_apply_creds
                0x00000000c00def14                cap_bprm_secureexec
                0x00000000c00def98                cap_inode_setxattr
                0x00000000c00df014                cap_inode_removexattr
                0x00000000c00df090                cap_task_post_setuid
                0x00000000c00df27c                cap_task_setscheduler
                0x00000000c00df290                cap_task_setioprio
                0x00000000c00df2a4                cap_task_setnice
                0x00000000c00df2b8                cap_task_prctl
                0x00000000c00df3b0                cap_task_reparent_to_init
                0x00000000c00df408                cap_syslog
                0x00000000c00df440                cap_vm_enough_memory
 .text          0x00000000c00df474     0x128c crypto/built-in.o
                0x00000000c00df4e0                crypto_shoot_alg
                0x00000000c00df518                __crypto_alloc_tfm
                0x00000000c00df69c                crypto_probing_notify
                0x00000000c00df6ec                crypto_larval_kill
                0x00000000c00df778                crypto_larval_alloc
                0x00000000c00df7fc                crypto_mod_put
                0x00000000c00df84c                crypto_free_tfm
                0x00000000c00df8f4                crypto_mod_get
                0x00000000c00dfb64                crypto_alg_lookup
                0x00000000c00dfbb0                crypto_larval_lookup
                0x00000000c00dfcbc                crypto_alg_mod_lookup
                0x00000000c00dfd44                crypto_has_alg
                0x00000000c00dfd70                crypto_alloc_base
                0x00000000c00dfff4                crypto_init_cipher_ops
                0x00000000c00e0048                crypto_exit_cipher_ops
                0x00000000c00e054c                crypto_init_digest_ops
                0x00000000c00e05d4                crypto_exit_digest_ops
                0x00000000c00e05e4                crypto_init_digest_ops_async
                0x00000000c00e06c4                crypto_init_compress_ops
                0x00000000c00e06f0                crypto_exit_compress_ops
 .text          0x00000000c00e0700     0xf590 block/built-in.o
                0x00000000c00e0700                elv_rq_merge_ok
                0x00000000c00e07c0                elv_rb_find
                0x00000000c00e080c                elv_dispatch_sort
                0x00000000c00e08e8                elv_dispatch_add_tail
                0x00000000c00e0960                elv_queue_empty
                0x00000000c00e0a0c                elv_rb_latter_request
                0x00000000c00e0a2c                elv_rb_former_request
                0x00000000c00e0a4c                elv_unregister
                0x00000000c00e0bd0                elv_register
                0x00000000c00e0f70                elevator_exit
                0x00000000c00e0fc0                elv_abort_queue
                0x00000000c00e1010                elv_next_request
                0x00000000c00e1214                elv_rb_del
                0x00000000c00e125c                elv_rb_add
                0x00000000c00e1398                elevator_init
                0x00000000c00e1488                elv_merge
                0x00000000c00e160c                elv_merged_request
                0x00000000c00e16c0                elv_merge_requests
                0x00000000c00e179c                elv_insert
                0x00000000c00e19d4                __elv_add_request
                0x00000000c00e1aa4                elv_add_request
                0x00000000c00e1afc                elv_requeue_request
                0x00000000c00e1b88                elv_dequeue_request
                0x00000000c00e1be8                elv_latter_request
                0x00000000c00e1c18                elv_former_request
                0x00000000c00e1c48                elv_set_request
                0x00000000c00e1c7c                elv_put_request
                0x00000000c00e1ca8                elv_may_queue
                0x00000000c00e1cd8                elv_completed_request
                0x00000000c00e1d98                elv_register_queue
                0x00000000c00e1e18                elv_unregister_queue
                0x00000000c00e1e3c                elv_iosched_store
                0x00000000c00e20c8                elv_iosched_show
                0x00000000c00e21b4                blk_get_backing_dev_info
                0x00000000c00e21f8                blk_unplug_work
                0x00000000c00e2214                blk_unplug
                0x00000000c00e2234                blk_rq_bytes
                0x00000000c00e2258                blk_rq_cur_bytes
                0x00000000c00e2290                blk_lld_busy
                0x00000000c00e22b8                kblockd_flush_work
                0x00000000c00e22cc                kblockd_schedule_work
                0x00000000c00e22ec                part_round_stats
                0x00000000c00e23f0                blk_dump_rq_flags
                0x00000000c00e25c4                blk_rq_check_limits
                0x00000000c00e2a74                blk_update_request
                0x00000000c00e2aa4                blkdev_dequeue_request
                0x00000000c00e2acc                blk_insert_cloned_request
                0x00000000c00e2c18                generic_make_request
                0x00000000c00e2e64                submit_bio
                0x00000000c00e306c                __blk_put_request
                0x00000000c00e33b0                blk_end_request_callback
                0x00000000c00e33d4                blk_end_bidi_request
                0x00000000c00e33f8                blk_end_request
                0x00000000c00e3420                __blk_end_request
                0x00000000c00e3470                end_request
                0x00000000c00e349c                blk_put_request
                0x00000000c00e34fc                blk_start_queue
                0x00000000c00e3548                blk_requeue_request
                0x00000000c00e35a8                blk_alloc_queue_node
                0x00000000c00e367c                blk_alloc_queue
                0x00000000c00e3694                blk_sync_queue
                0x00000000c00e36b8                blk_cleanup_queue
                0x00000000c00e370c                blk_remove_plug
                0x00000000c00e3768                __blk_run_queue
                0x00000000c00e3798                blk_run_queue
                0x00000000c00e37f0                blk_stop_queue
                0x00000000c00e3814                blk_plug_device
                0x00000000c00e3888                blk_plug_device_unlocked
                0x00000000c00e38e0                blk_rq_init
                0x00000000c00e3c44                blk_queue_congestion_threshold
                0x00000000c00e3c80                blk_init_queue_node
                0x00000000c00e3dec                blk_init_queue
                0x00000000c00e3e04                __generic_unplug_device
                0x00000000c00e3e3c                blk_start_queueing
                0x00000000c00e3e74                blk_insert_request
                0x00000000c00e4090                blk_get_request
                0x00000000c00e4128                generic_unplug_device
                0x00000000c00e4194                blk_unplug_timeout
                0x00000000c00e41ac                blk_put_queue
                0x00000000c00e41c4                blk_get_queue
                0x00000000c00e41f8                blk_rq_bio_prep
                0x00000000c00e42f8                init_request_from_bio
                0x00000000c00e47f0                blk_queue_free_tags
                0x00000000c00e480c                blk_queue_invalidate_tags
                0x00000000c00e484c                blk_queue_find_tag
                0x00000000c00e4880                blk_queue_start_tag
                0x00000000c00e496c                blk_queue_end_tag
                0x00000000c00e4b18                blk_queue_resize_tags
                0x00000000c00e4c38                blk_init_tags
                0x00000000c00e4c54                blk_queue_init_tags
                0x00000000c00e4d9c                blk_free_tags
                0x00000000c00e4db8                __blk_queue_free_tags
                0x00000000c00e540c                blk_register_queue
                0x00000000c00e54a4                blk_unregister_queue
                0x00000000c00e5500                blkdev_issue_discard
                0x00000000c00e5690                blkdev_issue_flush
                0x00000000c00e582c                blk_queue_ordered
                0x00000000c00e58c8                blk_ordered_cur_seq
                0x00000000c00e58fc                blk_ordered_req_seq
                0x00000000c00e5980                blk_ordered_complete_seq
                0x00000000c00e5a98                blk_do_ordered
                0x00000000c00e5d0c                blk_queue_prep_rq
                0x00000000c00e5d20                blk_queue_set_discard
                0x00000000c00e5d34                blk_queue_merge_bvec
                0x00000000c00e5d48                blk_queue_softirq_done
                0x00000000c00e5d5c                blk_queue_rq_timeout
                0x00000000c00e5d70                blk_queue_rq_timed_out
                0x00000000c00e5d84                blk_queue_lld_busy
                0x00000000c00e5d98                blk_queue_bounce_limit
                0x00000000c00e5dd4                blk_queue_hardsect_size
                0x00000000c00e5dec                blk_queue_dma_pad
                0x00000000c00e5e00                blk_queue_update_dma_pad
                0x00000000c00e5e1c                blk_queue_dma_drain
                0x00000000c00e5e74                blk_queue_dma_alignment
                0x00000000c00e5e88                blk_queue_update_dma_alignment
                0x00000000c00e5eb0                blk_queue_segment_boundary
                0x00000000c00e5efc                blk_queue_max_segment_size
                0x00000000c00e5f3c                blk_queue_max_hw_segments
                0x00000000c00e5f84                blk_queue_max_phys_segments
                0x00000000c00e5fc8                blk_queue_max_sectors
                0x00000000c00e6028                blk_queue_stack_limits
                0x00000000c00e61b8                blk_queue_make_request
                0x00000000c00e629c                put_io_context
                0x00000000c00e6378                copy_io_context
                0x00000000c00e63d0                exit_io_context
                0x00000000c00e64b4                alloc_io_context
                0x00000000c00e6528                current_io_context
                0x00000000c00e656c                get_io_context
                0x00000000c00e65dc                blk_rq_map_kern
                0x00000000c00e6738                blk_rq_unmap_user
                0x00000000c00e67a0                blk_rq_map_user_iov
                0x00000000c00e6914                blk_rq_append_bio
                0x00000000c00e6970                blk_rq_map_user
                0x00000000c00e6bc0                blk_execute_rq_nowait
                0x00000000c00e6cb0                blk_execute_rq
                0x00000000c00e70c8                blk_rq_map_sg
                0x00000000c00e7404                blk_recalc_rq_sectors
                0x00000000c00e7524                blk_recalc_rq_segments
                0x00000000c00e7738                blk_recount_segments
                0x00000000c00e778c                ll_back_merge_fn
                0x00000000c00e789c                ll_front_merge_fn
                0x00000000c00e79b0                attempt_back_merge
                0x00000000c00e79e8                attempt_front_merge
                0x00000000c00e7ac0                __blk_complete_request
                0x00000000c00e7b30                blk_complete_request
                0x00000000c00e7b68                blk_delete_timer
                0x00000000c00e7bb0                blk_add_timer
                0x00000000c00e7cf4                blk_abort_request
                0x00000000c00e7d38                blk_abort_queue
                0x00000000c00e7dc8                blk_rq_timed_out_timer
                0x00000000c00e7f54                __blkdev_driver_ioctl
                0x00000000c00e8038                blkdev_ioctl
                0x00000000c00e8a04                disk_map_sector_rcu
                0x00000000c00e8a80                set_device_ro
                0x00000000c00e8a98                bdev_read_only
                0x00000000c00e8db0                disk_part_iter_init
                0x00000000c00e8e30                put_disk
                0x00000000c00e8e50                get_disk
                0x00000000c00e8f54                disk_part_iter_exit
                0x00000000c00e8f84                unregister_blkdev
                0x00000000c00e9070                blk_unregister_region
                0x00000000c00e909c                blk_register_region
                0x00000000c00e90f0                register_blkdev
                0x00000000c00e9258                disk_part_iter_next
                0x00000000c00e95b0                set_disk_ro
                0x00000000c00e9600                disk_get_part
                0x00000000c00e9698                blk_lookup_devt
                0x00000000c00e972c                bdget_disk
                0x00000000c00e9764                invalidate_partition
                0x00000000c00e97a0                blkdev_show
                0x00000000c00e9810                blk_alloc_devt
                0x00000000c00e98dc                add_disk
                0x00000000c00e9a20                blk_free_devt
                0x00000000c00e9a70                unlink_gendisk
                0x00000000c00e9ab4                get_gendisk
                0x00000000c00e9b78                disk_expand_part_tbl
                0x00000000c00e9c58                alloc_disk_node
                0x00000000c00e9d08                alloc_disk
                0x00000000c00e9d20                blk_set_cmd_filter_defaults
                0x00000000c00ea1cc                sg_scsi_ioctl
                0x00000000c00ea5e0                scsi_cmd_ioctl
                0x00000000c00eaa50                blk_verify_command
 .text          0x00000000c00efc90       0x1c arch/arm/lib/lib.a(ashldi3.o)
                0x00000000c00efc90                __ashldi3
                0x00000000c00efc90                __aeabi_llsl
 .text          0x00000000c00efcac       0x1c arch/arm/lib/lib.a(ashrdi3.o)
                0x00000000c00efcac                __ashrdi3
                0x00000000c00efcac                __aeabi_lasr
 .text          0x00000000c00efcc8      0x160 arch/arm/lib/lib.a(backtrace.o)
                0x00000000c00efcc8                __backtrace
                0x00000000c00efcd0                c_backtrace
 .text          0x00000000c00efe28       0x2c arch/arm/lib/lib.a(changebit.o)
                0x00000000c00efe28                _change_bit_be
                0x00000000c00efe2c                _change_bit_le
 .text          0x00000000c00efe54       0x64 arch/arm/lib/lib.a(clear_user.o)
                0x00000000c00efe54                __clear_user
 .text          0x00000000c00efeb8       0x2c arch/arm/lib/lib.a(clearbit.o)
                0x00000000c00efeb8                _clear_bit_be
                0x00000000c00efebc                _clear_bit_le
 .text          0x00000000c00efee4      0x39c arch/arm/lib/lib.a(copy_from_user.o)
                0x00000000c00efee4                __copy_from_user
 .text          0x00000000c00f0280       0x60 arch/arm/lib/lib.a(copy_page.o)
                0x00000000c00f0280                copy_page
 .text          0x00000000c00f02e0      0x3a8 arch/arm/lib/lib.a(copy_to_user.o)
                0x00000000c00f02e0                __copy_to_user
 .text          0x00000000c00f0688       0x40 arch/arm/lib/lib.a(csumipv6.o)
                0x00000000c00f0688                __csum_ipv6_magic
 .text          0x00000000c00f06c8      0x10c arch/arm/lib/lib.a(csumpartial.o)
                0x00000000c00f0750                csum_partial
 .text          0x00000000c00f07d4      0x418 arch/arm/lib/lib.a(csumpartialcopy.o)
                0x00000000c00f0880                csum_partial_copy_nocheck
 .text          0x00000000c00f0bec      0x448 arch/arm/lib/lib.a(csumpartialcopyuser.o)
                0x00000000c00f0c98                csum_partial_copy_from_user
 .text          0x00000000c00f1034       0x38 arch/arm/lib/lib.a(delay.o)
                0x00000000c00f103c                __udelay
                0x00000000c00f1044                __const_udelay
                0x00000000c00f1060                __delay
 .text          0x00000000c00f106c      0x100 arch/arm/lib/lib.a(div64.o)
                0x00000000c00f106c                __do_div64
 .text          0x00000000c00f116c       0xc4 arch/arm/lib/lib.a(findbit.o)
                0x00000000c00f116c                _find_first_zero_bit_le
                0x00000000c00f1198                _find_next_zero_bit_le
                0x00000000c00f11c4                _find_first_bit_le
                0x00000000c00f11f0                _find_next_bit_le
 .text          0x00000000c00f1230       0x38 arch/arm/lib/lib.a(getuser.o)
                0x00000000c00f1230                __get_user_1
                0x00000000c00f123c                __get_user_2
                0x00000000c00f1250                __get_user_4
 .text          0x00000000c00f1268      0x180 arch/arm/lib/lib.a(io-readsb.o)
                0x00000000c00f1298                __raw_readsb
 .text          0x00000000c00f13e8       0xec arch/arm/lib/lib.a(io-readsl.o)
                0x00000000c00f13e8                __raw_readsl
 .text          0x00000000c00f14d4      0x114 arch/arm/lib/lib.a(io-readsw-armv4.o)
                0x00000000c00f14e8                __raw_readsw
 .text          0x00000000c00f15e8      0x164 arch/arm/lib/lib.a(io-writesb.o)
                0x00000000c00f1618                __raw_writesb
 .text          0x00000000c00f174c       0xc0 arch/arm/lib/lib.a(io-writesl.o)
                0x00000000c00f174c                __raw_writesl
 .text          0x00000000c00f180c       0xf8 arch/arm/lib/lib.a(io-writesw-armv4.o)
                0x00000000c00f1820                __raw_writesw
 .text          0x00000000c00f1904      0x300 arch/arm/lib/lib.a(lib1funcs.o)
                0x00000000c00f1904                __udivsi3
                0x00000000c00f1904                __aeabi_uidiv
                0x00000000c00f19a0                __umodsi3
                0x00000000c00f1a40                __divsi3
                0x00000000c00f1a40                __aeabi_idiv
                0x00000000c00f1b0c                __modsi3
                0x00000000c00f1bc4                __aeabi_uidivmod
                0x00000000c00f1bdc                __aeabi_idivmod
 .text          0x00000000c00f1c04       0x1c arch/arm/lib/lib.a(lshrdi3.o)
                0x00000000c00f1c04                __aeabi_llsr
                0x00000000c00f1c04                __lshrdi3
 .text          0x00000000c00f1c20       0x20 arch/arm/lib/lib.a(memchr.o)
                0x00000000c00f1c20                memchr
 .text          0x00000000c00f1c40      0x330 arch/arm/lib/lib.a(memcpy.o)
                0x00000000c00f1c40                memcpy
 .text          0x00000000c00f1f70      0x340 arch/arm/lib/lib.a(memmove.o)
                0x00000000c00f1f70                memmove
 *fill*         0x00000000c00f22b0       0x10 00
 .text          0x00000000c00f22c0       0xc0 arch/arm/lib/lib.a(memset.o)
                0x00000000c00f22e0                memset
 .text          0x00000000c00f2380       0xa0 arch/arm/lib/lib.a(memzero.o)
                0x00000000c00f23a0                __memzero
 .text          0x00000000c00f2420       0x3c arch/arm/lib/lib.a(muldi3.o)
                0x00000000c00f2420                __muldi3
                0x00000000c00f2420                __aeabi_lmul
 .text          0x00000000c00f245c       0x44 arch/arm/lib/lib.a(putuser.o)
                0x00000000c00f245c                __put_user_1
                0x00000000c00f2468                __put_user_2
                0x00000000c00f247c                __put_user_4
                0x00000000c00f2488                __put_user_8
 .text          0x00000000c00f24a0       0x2c arch/arm/lib/lib.a(setbit.o)
                0x00000000c00f24a0                _set_bit_be
                0x00000000c00f24a4                _set_bit_le
 .text          0x00000000c00f24cc      0x37c arch/arm/lib/lib.a(sha1.o)
                0x00000000c00f24cc                sha_transform
                0x00000000c00f2834                sha_init
 *fill*         0x00000000c00f2848       0x18 00
 .text          0x00000000c00f2860       0x40 arch/arm/lib/lib.a(strchr.o)
                0x00000000c00f2860                strchr
 .text          0x00000000c00f28a0       0x40 arch/arm/lib/lib.a(strncpy_from_user.o)
                0x00000000c00f28a0                __strncpy_from_user
 .text          0x00000000c00f28e0       0x40 arch/arm/lib/lib.a(strnlen_user.o)
                0x00000000c00f28e0                __strnlen_user
 .text          0x00000000c00f2920       0x20 arch/arm/lib/lib.a(strrchr.o)
                0x00000000c00f2920                strrchr
 .text          0x00000000c00f2940       0x34 arch/arm/lib/lib.a(testchangebit.o)
                0x00000000c00f2940                _test_and_change_bit_be
                0x00000000c00f2944                _test_and_change_bit_le
 .text          0x00000000c00f2974       0x34 arch/arm/lib/lib.a(testclearbit.o)
                0x00000000c00f2974                _test_and_clear_bit_be
                0x00000000c00f2978                _test_and_clear_bit_le
 .text          0x00000000c00f29a8       0x34 arch/arm/lib/lib.a(testsetbit.o)
                0x00000000c00f29a8                _test_and_set_bit_be
                0x00000000c00f29ac                _test_and_set_bit_le
 .text          0x00000000c00f29dc       0x30 arch/arm/lib/lib.a(ucmpdi2.o)
                0x00000000c00f29dc                __ucmpdi2
                0x00000000c00f29f4                __aeabi_ulcmp
 .text          0x00000000c00f2a0c      0x188 lib/lib.a(argv_split.o)
                0x00000000c00f2a0c                argv_free
                0x00000000c00f2a48                argv_split
 .text          0x00000000c00f2b94      0x25c lib/lib.a(cmdline.o)
                0x00000000c00f2b94                memparse
                0x00000000c00f2ca8                get_option
                0x00000000c00f2d28                get_options
 .text          0x00000000c00f2df0        0x0 lib/lib.a(ctype.o)
 .text          0x00000000c00f2df0       0x78 lib/lib.a(dec_and_lock.o)
                0x00000000c00f2df0                _atomic_dec_and_lock
 .text          0x00000000c00f2e68       0xb8 lib/lib.a(extable.o)
                0x00000000c00f2e94                sort_extable
                0x00000000c00f2ecc                search_extable
 .text          0x00000000c00f2f20      0xf7c lib/lib.a(idr.o)
                0x00000000c00f2f8c                idr_init
                0x00000000c00f2fa4                ida_init
                0x00000000c00f2fe0                idr_replace
                0x00000000c00f3088                idr_find
                0x00000000c00f3148                idr_for_each
                0x00000000c00f3218                idr_pre_get
                0x00000000c00f32c0                idr_remove_all
                0x00000000c00f341c                ida_pre_get
                0x00000000c00f3514                idr_destroy
                0x00000000c00f3568                ida_destroy
                0x00000000c00f38d4                idr_get_new
                0x00000000c00f3910                idr_get_new_above
                0x00000000c00f3948                ida_get_new_above
                0x00000000c00f3b4c                ida_get_new
                0x00000000c00f3b68                idr_remove
                0x00000000c00f3d84                ida_remove
 .text          0x00000000c00f3e9c       0x60 lib/lib.a(int_sqrt.o)
                0x00000000c00f3e9c                int_sqrt
 .text          0x00000000c00f3efc        0x0 lib/lib.a(irq_regs.o)
 .text          0x00000000c00f3efc      0xb34 lib/lib.a(kobject.o)
                0x00000000c00f3f78                kobject_init
                0x00000000c00f4014                kobject_put
                0x00000000c00f4074                kset_unregister
                0x00000000c00f4120                kobject_del
                0x00000000c00f41c0                kobject_get
                0x00000000c00f4424                kobject_init_and_add
                0x00000000c00f4490                kobject_add
                0x00000000c00f4528                kobject_set_name
                0x00000000c00f4558                kobject_get_path
                0x00000000c00f4608                kobject_rename
                0x00000000c00f46e4                kobject_move
                0x00000000c00f47c8                kobject_create
                0x00000000c00f4808                kobject_create_and_add
                0x00000000c00f4874                kset_init
                0x00000000c00f48bc                kset_register
                0x00000000c00f48e8                kset_create_and_add
                0x00000000c00f4970                kset_find_obj
 .text          0x00000000c00f4a30      0x104 lib/lib.a(kref.o)
                0x00000000c00f4a30                kref_set
                0x00000000c00f4a44                kref_init
                0x00000000c00f4a5c                kref_put
                0x00000000c00f4ae4                kref_get
 .text          0x00000000c00f4b34      0x8ac lib/lib.a(prio_tree.o)
                0x00000000c00f4d6c                prio_tree_replace
                0x00000000c00f4dec                prio_tree_remove
                0x00000000c00f4ef0                prio_tree_insert
                0x00000000c00f5160                prio_tree_next
 .text          0x00000000c00f53e0      0x778 lib/lib.a(proportions.o)
                0x00000000c00f562c                prop_descriptor_init
                0x00000000c00f5680                prop_change_shift
                0x00000000c00f5750                prop_local_init_percpu
                0x00000000c00f577c                prop_local_destroy_percpu
                0x00000000c00f578c                __prop_inc_percpu
                0x00000000c00f5860                __prop_inc_percpu_max
                0x00000000c00f5980                prop_fraction_percpu
                0x00000000c00f5a04                prop_local_init_single
                0x00000000c00f5a28                prop_local_destroy_single
                0x00000000c00f5a38                __prop_inc_single
                0x00000000c00f5ad4                prop_fraction_single
 .text          0x00000000c00f5b58     0x1050 lib/lib.a(radix-tree.o)
                0x00000000c00f5b58                radix_tree_lookup_slot
                0x00000000c00f5bf0                radix_tree_lookup
                0x00000000c00f5c80                radix_tree_tag_clear
                0x00000000c00f5e28                radix_tree_next_hole
                0x00000000c00f5f90                radix_tree_gang_lookup
                0x00000000c00f608c                radix_tree_gang_lookup_slot
                0x00000000c00f6298                radix_tree_gang_lookup_tag
                0x00000000c00f63b0                radix_tree_gang_lookup_tag_slot
                0x00000000c00f648c                radix_tree_tagged
                0x00000000c00f64c4                radix_tree_tag_set
                0x00000000c00f65a4                radix_tree_delete
                0x00000000c00f6870                radix_tree_preload
                0x00000000c00f69a0                radix_tree_insert
 .text          0x00000000c00f6ba8      0x140 lib/lib.a(ratelimit.o)
                0x00000000c00f6ba8                __ratelimit
 .text          0x00000000c00f6ce8      0x7a4 lib/lib.a(rbtree.o)
                0x00000000c00f6de0                rb_insert_color
                0x00000000c00f6f50                rb_erase
                0x00000000c00f72d8                rb_first
                0x00000000c00f7308                rb_last
                0x00000000c00f7338                rb_next
                0x00000000c00f73ac                rb_prev
                0x00000000c00f7420                rb_replace_node
 .text          0x00000000c00f748c       0x38 lib/lib.a(reciprocal_div.o)
                0x00000000c00f748c                reciprocal_value
 .text          0x00000000c00f74c4      0x558 lib/lib.a(rwsem-spinlock.o)
                0x00000000c00f74c4                __init_rwsem
                0x00000000c00f74e8                __down_write_trylock
                0x00000000c00f757c                __down_read_trylock
                0x00000000c00f7610                __downgrade_write
                0x00000000c00f7768                __up_write
                0x00000000c00f7938                __up_read
 .text          0x00000000c00f7a1c      0x9ac lib/lib.a(string.o)
                0x00000000c00f7a1c                strnicmp
                0x00000000c00f7aa8                strcasecmp
                0x00000000c00f7b08                strncasecmp
                0x00000000c00f7b74                strcpy
                0x00000000c00f7b98                strncpy
                0x00000000c00f7bcc                strcat
                0x00000000c00f7c10                strncat
                0x00000000c00f7c70                strcmp
                0x00000000c00f7cb0                strncmp
                0x00000000c00f7d28                strnchr
                0x00000000c00f7d9c                strstrip
                0x00000000c00f7e60                strlen
                0x00000000c00f7e9c                strnlen
                0x00000000c00f7f00                strspn
                0x00000000c00f7f74                strcspn
                0x00000000c00f7fe0                strpbrk
                0x00000000c00f8044                strsep
                0x00000000c00f80cc                sysfs_streq
                0x00000000c00f817c                memcmp
                0x00000000c00f81d0                memscan
                0x00000000c00f8218                strstr
                0x00000000c00f82d4                strlcat
                0x00000000c00f8364                strlcpy
 .text          0x00000000c00f83c8     0x1b84 lib/lib.a(vsprintf.o)
                0x00000000c00f83c8                simple_strtoul
                0x00000000c00f84c0                simple_strtol
                0x00000000c00f84f0                simple_strtoull
                0x00000000c00f8cc0                strict_strtoull
                0x00000000c00f8d50                strict_strtoll
                0x00000000c00f8d98                strict_strtoul
                0x00000000c00f8e1c                strict_strtol
                0x00000000c00f8e5c                vsnprintf
                0x00000000c00f9658                sprintf
                0x00000000c00f968c                vsprintf
                0x00000000c00f96b0                scnprintf
                0x00000000c00f96ec                snprintf
                0x00000000c00f971c                vscnprintf
                0x00000000c00f973c                simple_strtoll
                0x00000000c00f9788                vsscanf
                0x00000000c00f9f1c                sscanf
 .text          0x00000000c00f9f4c     0x6618 lib/built-in.o
                0x00000000c00f9f4c                bcd2bin
                0x00000000c00f9f6c                bin2bcd
                0x00000000c00f9f9c                __div64_32
                0x00000000c00fa0b4                iter_div_u64_rem
                0x00000000c00fa104                div64_u64
                0x00000000c00fa160                div_s64_rem
                0x00000000c00fa230                sort
                0x00000000c00fa444                match_strlcpy
                0x00000000c00fa48c                match_strdup
                0x00000000c00fa568                match_hex
                0x00000000c00fa580                match_octal
                0x00000000c00fa598                match_int
                0x00000000c00fa5b0                match_token
                0x00000000c00fa7f4                half_md4_transform
                0x00000000c00fab3c                debug_locks_off
                0x00000000c00faba8                srandom32
                0x00000000c00fac30                random32
                0x00000000c00fac8c                bust_spinlocks
                0x00000000c00facd8                hex_dump_to_buffer
                0x00000000c00fb058                print_hex_dump
                0x00000000c00fb18c                print_hex_dump_bytes
                0x00000000c00fb1d4                kvasprintf
                0x00000000c00fb23c                kasprintf
                0x00000000c00fb26c                __bitmap_empty
                0x00000000c00fb308                __bitmap_full
                0x00000000c00fb3ac                __bitmap_equal
                0x00000000c00fb460                __bitmap_complement
                0x00000000c00fb4e0                __bitmap_and
                0x00000000c00fb524                __bitmap_or
                0x00000000c00fb568                __bitmap_xor
                0x00000000c00fb5ac                __bitmap_andnot
                0x00000000c00fb5f0                __bitmap_intersects
                0x00000000c00fb6a0                __bitmap_subset
                0x00000000c00fb87c                bitmap_find_free_region
                0x00000000c00fb8fc                bitmap_release_region
                0x00000000c00fb914                bitmap_allocate_region
                0x00000000c00fb960                bitmap_copy_le
                0x00000000c00fba64                bitmap_fold
                0x00000000c00fbb14                bitmap_onto
                0x00000000c00fbbe4                __bitmap_shift_left
                0x00000000c00fbd28                __bitmap_parse
                0x00000000c00fbf28                bitmap_parse_user
                0x00000000c00fbf80                __bitmap_shift_right
                0x00000000c00fc0bc                __bitmap_weight
                0x00000000c00fc1dc                bitmap_bitremap
                0x00000000c00fc288                bitmap_remap
                0x00000000c00fc3c8                bitmap_parselist
                0x00000000c00fc4e8                bitmap_scnlistprintf
                0x00000000c00fc5e4                bitmap_scnprintf
                0x00000000c00fc688                sg_last
                0x00000000c00fc6a0                __sg_free_table
                0x00000000c00fc71c                sg_free_table
                0x00000000c00fc73c                sg_next
                0x00000000c00fc770                sg_miter_stop
                0x00000000c00fc830                sg_miter_next
                0x00000000c00fc984                sg_miter_start
                0x00000000c00fca78                sg_copy_to_buffer
                0x00000000c00fca9c                sg_copy_from_buffer
                0x00000000c00fcac0                sg_init_table
                0x00000000c00fcaf8                __sg_alloc_table
                0x00000000c00fcbe8                sg_alloc_table
                0x00000000c00fcc98                sg_init_one
                0x00000000c00fcd0c                string_get_size
                0x00000000c00fcf68                __iowrite32_copy
                0x00000000c00fcf94                __iowrite64_copy
                0x00000000c00fd004                devm_ioport_unmap
                0x00000000c00fd058                devm_ioport_map
                0x00000000c00fd0cc                devm_iounmap
                0x00000000c00fd120                devm_ioremap_release
                0x00000000c00fd138                devm_ioremap_nocache
                0x00000000c00fd1b0                devm_ioremap
                0x00000000c00fd228                hweight32
                0x00000000c00fd278                hweight16
                0x00000000c00fd2c4                hweight8
                0x00000000c00fd2f8                hweight64
                0x00000000c00fd324                plist_add
                0x00000000c00fd3f8                plist_del
                0x00000000c00fd478                bitrev16
                0x00000000c00fd4a0                bitrev32
                0x00000000c00fd4f0                crc_ccitt
                0x00000000c00fd530                crc32_be
                0x00000000c00fd644                crc32_le
                0x00000000c00fd74c                inflate_fast
                0x00000000c00fde70                zlib_inflate_workspacesize
                0x00000000c00fde88                zlib_inflateReset
                0x00000000c00fdf1c                zlib_inflateInit2
                0x00000000c00fdf8c                zlib_inflate
                0x00000000c00ff6dc                zlib_inflateEnd
                0x00000000c00ff70c                zlib_inflateIncomp
                0x00000000c00ff980                zlib_inflate_blob
                0x00000000c00ffa3c                zlib_inflate_table
                0x00000000c0100018                textsearch_find_continuous
                0x00000000c0100078                textsearch_destroy
                0x00000000c01000ec                textsearch_prepare
                0x00000000c0100388                textsearch_unregister
                0x00000000c0100450                textsearch_register
 .text          0x00000000c0100564    0x3ac40 drivers/built-in.o
                0x00000000c0100564                gpiochip_is_requested
                0x00000000c01005c0                __gpio_get_value
                0x00000000c0100604                __gpio_set_value
                0x00000000c010063c                __gpio_cansleep
                0x00000000c0100664                __gpio_to_irq
                0x00000000c01006a8                gpio_get_value_cansleep
                0x00000000c01006ec                gpio_set_value_cansleep
                0x00000000c0100724                gpio_interrupt_clear
                0x00000000c0100768                gpio_interrupt_setup
                0x00000000c01007b0                gpio_interrupt_enable
                0x00000000c01007f4                gpio_interrupt_disable
                0x00000000c0100838                gpio_interrupt_mask
                0x00000000c010087c                gpio_interrupt_unmask
                0x00000000c0100c08                gpiochip_remove
                0x00000000c0100e2c                gpio_direction_output
                0x00000000c0100fb0                gpio_direction_input
                0x00000000c0101114                gpiochip_add
                0x00000000c0101304                gpio_free
                0x00000000c0101440                gpio_request
                0x00000000c0101be8                fb_notifier_call_chain
                0x00000000c0101c10                fb_unregister_client
                0x00000000c0101c30                fb_register_client
                0x00000000c010251c                unxlate_dev_mem_ptr
                0x00000000c01027b0                phys_mem_access_prot_allowed
                0x00000000c01027c4                map_devmem
                0x00000000c0102800                unmap_devmem
                0x00000000c0103110                get_random_bytes
                0x00000000c01031ac                generate_random_uuid
                0x00000000c0103a00                secure_ipv4_port_ephemeral
                0x00000000c0103b90                add_input_randomness
                0x00000000c0103bcc                add_interrupt_randomness
                0x00000000c0103c14                add_disk_randomness
                0x00000000c0103c44                rand_initialize_irq
                0x00000000c0103cc4                rand_initialize_disk
                0x00000000c0103cf8                secure_ip_id
                0x00000000c0103d58                secure_tcp_sequence_number
                0x00000000c0103dec                get_random_int
                0x00000000c0103e24                randomize_range
                0x00000000c0103f00                tty_hung_up_p
                0x00000000c0103f28                tty_put_char
                0x00000000c0103f70                tty_set_operations
                0x00000000c0103f84                tty_devnum
                0x00000000c0103fac                tty_get_pgrp
                0x00000000c010403c                get_current_tty
                0x00000000c01041ac                tty_free_termios
                0x00000000c01041e4                tty_shutdown
                0x00000000c0104234                tty_unregister_driver
                0x00000000c01042a0                tty_driver_kref_put
                0x00000000c01042c0                put_tty_driver
                0x00000000c01042d4                tty_kref_put
                0x00000000c0104498                alloc_tty_driver
                0x00000000c01044e8                tty_unregister_device
                0x00000000c01045d0                tty_register_device
                0x00000000c01046bc                tty_register_driver
                0x00000000c0104884                stop_tty
                0x00000000c0104984                tty_wakeup
                0x00000000c01049fc                start_tty
                0x00000000c0104af0                do_SAK
                0x00000000c0104b10                tty_hangup
                0x00000000c0104b28                tty_ldisc_flush
                0x00000000c0104b70                tty_check_change
                0x00000000c0104c9c                tty_name
                0x00000000c0104ce4                alloc_tty_struct
                0x00000000c0104d0c                free_tty_struct
                0x00000000c0104dec                tty_paranoia_check
                0x00000000c01054b4                tty_vhangup
                0x00000000c010562c                tty_vhangup_self
                0x00000000c0105658                tty_write_unlock
                0x00000000c0105688                tty_write_lock
                0x00000000c0105920                redirected_tty_write
                0x00000000c0105ad8                tty_write_message
                0x00000000c0105b48                tty_driver_lookup_tty
                0x00000000c0105b7c                tty_init_termios
                0x00000000c0105c30                tty_do_resize
                0x00000000c0105d80                __do_SAK
                0x00000000c0105fac                initialize_tty_struct
                0x00000000c01060dc                tty_init_dev
                0x00000000c01062a0                proc_clear_tty
                0x00000000c010635c                tty_release_dev
                0x00000000c0106c50                disassociate_ctty
                0x00000000c0106eb4                no_tty
                0x00000000c0106efc                tty_ioctl
                0x00000000c0107924                tty_default_fops
                0x00000000c0109b50                is_ignored
                0x00000000c010a310                tty_chars_in_buffer
                0x00000000c010a33c                tty_write_room
                0x00000000c010a368                tty_driver_flush_buffer
                0x00000000c010a38c                tty_throttle
                0x00000000c010a3d4                tty_unthrottle
                0x00000000c010a41c                tty_termios_baud_rate
                0x00000000c010a46c                tty_termios_input_baud_rate
                0x00000000c010a4d4                tty_termios_encode_baud_rate
                0x00000000c010a670                tty_encode_baud_rate
                0x00000000c010a688                tty_termios_copy_hw
                0x00000000c010a6c4                tty_termios_hw_change
                0x00000000c010a7d0                tty_perform_flush
                0x00000000c010a888                tty_get_baud_rate
                0x00000000c010a8e8                tty_wait_until_sent
                0x00000000c010aeb8                tty_mode_ioctl
                0x00000000c010b358                n_tty_ioctl_helper
                0x00000000c010b624                tty_ldisc_ref
                0x00000000c010b644                tty_unregister_ldisc
                0x00000000c010b6d8                tty_register_ldisc
                0x00000000c010b790                tty_ldisc_deref
                0x00000000c010b838                tty_ldisc_ref_wait
                0x00000000c010bb50                tty_ldisc_enable
                0x00000000c010bb94                tty_set_ldisc
                0x00000000c010c070                tty_ldisc_setup
                0x00000000c010c104                tty_ldisc_release
                0x00000000c010c374                tty_ldisc_init
                0x00000000c010c3c8                tty_ldisc_begin
                0x00000000c010c3e8                tty_schedule_flip
                0x00000000c010c758                tty_flip_buffer_push
                0x00000000c010c7f4                tty_buffer_request_room
                0x00000000c010c970                tty_prepare_flip_string_flags
                0x00000000c010c9cc                tty_prepare_flip_string
                0x00000000c010ca2c                tty_insert_flip_string_flags
                0x00000000c010cac0                tty_insert_flip_string
                0x00000000c010cb48                tty_buffer_free_all
                0x00000000c010cbb0                tty_buffer_flush
                0x00000000c010ccd0                tty_buffer_init
                0x00000000c010cd18                tty_port_tty_set
                0x00000000c010cd98                tty_port_tty_get
                0x00000000c010ce08                tty_port_free_xmit_buf
                0x00000000c010ce4c                tty_port_alloc_xmit_buf
                0x00000000c010cea0                tty_port_init
                0x00000000c010dc5c                misc_deregister
                0x00000000c010dd0c                misc_register
                0x00000000c010de6c                cn_queue_wrapper
                0x00000000c010dea8                cn_cb_equal
                0x00000000c010dee4                cn_queue_add_callback
                0x00000000c010e088                cn_queue_del_callback
                0x00000000c010e19c                cn_queue_alloc_dev
                0x00000000c010e250                cn_queue_free_dev
                0x00000000c010e814                cn_netlink_send
                0x00000000c010eb60                cn_del_callback
                0x00000000c010eb94                cn_add_callback
                0x00000000c010ed50                proc_fork_connector
                0x00000000c010ee98                proc_exec_connector
                0x00000000c010efc4                proc_id_connector
                0x00000000c010f120                proc_exit_connector
                0x00000000c010f2b0                uart_update_timeout
                0x00000000c010f310                uart_get_divisor
                0x00000000c010f41c                uart_console_write
                0x00000000c010f508                uart_match_port
                0x00000000c010f608                uart_remove_one_port
                0x00000000c010fee0                uart_unregister_driver
                0x00000000c011049c                uart_set_options
                0x00000000c01116b4                uart_register_driver
                0x00000000c0111828                uart_resume_port
                0x00000000c0111aa0                uart_suspend_port
                0x00000000c0111cb0                uart_parse_options
                0x00000000c0111d3c                uart_get_baud_rate
                0x00000000c0111e64                uart_write_wakeup
                0x00000000c0111eb0                uart_add_one_port
                0x00000000c0112d44                uart_console_device
                0x00000000c0114794                serial8250_suspend_port
                0x00000000c01147c0                serial8250_unregister_port
                0x00000000c0114840                serial8250_register_port
                0x00000000c01149fc                serial8250_resume_port
                0x00000000c011554c                serial8250_find_port
                0x00000000c01155bc                serial8250_find_port_for_earlycon
                0x00000000c0115658                dev_driver_string
                0x00000000c01157a4                put_device
                0x00000000c0115978                dev_set_name
                0x00000000c0115b00                device_for_each_child
                0x00000000c0115dd8                get_device
                0x00000000c0115dfc                device_move
                0x00000000c0115f48                device_rename
                0x00000000c01160a4                device_find_child
                0x00000000c01161c4                device_initialize
                0x00000000c011624c                device_schedule_callback_owner
                0x00000000c0116270                device_remove_bin_file
                0x00000000c0116290                device_create_bin_file
                0x00000000c01162b8                device_remove_file
                0x00000000c0116368                device_del
                0x00000000c01164bc                device_unregister
                0x00000000c01164dc                device_destroy
                0x00000000c0116520                device_create_file
                0x00000000c0116540                device_add
                0x00000000c0116a9c                device_register
                0x00000000c0116abc                device_create_vargs
                0x00000000c0116b74                device_create
                0x00000000c0116ba4                device_shutdown
                0x00000000c0116d68                sysdev_show_int
                0x00000000c0116d94                sysdev_show_ulong
                0x00000000c0116dc0                sysdev_store_int
                0x00000000c0116e0c                sysdev_store_ulong
                0x00000000c0116e58                sysdev_unregister
                0x00000000c0116ed4                sysdev_driver_unregister
                0x00000000c0116f74                sysdev_register
                0x00000000c0117044                sysdev_driver_register
                0x00000000c0117174                sysdev_class_unregister
                0x00000000c011718c                sysdev_class_register
                0x00000000c01171f8                sysdev_class_remove_file
                0x00000000c0117210                sysdev_remove_file
                0x00000000c0117228                sysdev_class_create_file
                0x00000000c0117240                sysdev_create_file
                0x00000000c0117258                sysdev_shutdown
                0x00000000c0117344                sysdev_suspend
                0x00000000c011755c                sysdev_resume
                0x00000000c01176f4                bus_get_kset
                0x00000000c0117708                bus_get_device_klist
                0x00000000c0117720                bus_sort_breadthfirst
                0x00000000c01178a4                bus_unregister_notifier
                0x00000000c01178c0                bus_register_notifier
                0x00000000c0117980                device_reprobe
                0x00000000c0117a30                bus_for_each_drv
                0x00000000c0117ac0                bus_find_device
                0x00000000c0117b58                bus_find_device_by_name
                0x00000000c0117b74                bus_for_each_dev
                0x00000000c0117bfc                bus_rescan_devices
                0x00000000c0117c40                bus_remove_file
                0x00000000c0117c7c                bus_unregister
                0x00000000c0117d04                bus_create_file
                0x00000000c0117d4c                bus_register
                0x00000000c0117fa4                bus_add_device
                0x00000000c0118104                bus_attach_device
                0x00000000c0118164                bus_remove_device
                0x00000000c0118210                bus_add_driver
                0x00000000c01183e4                bus_remove_driver
                0x00000000c0118554                device_release_driver
                0x00000000c0118584                driver_attach
                0x00000000c0118694                device_bind_driver
                0x00000000c01186c0                device_attach
                0x00000000c0118750                driver_probe_done
                0x00000000c0118774                driver_probe_device
                0x00000000c01189bc                driver_detach
                0x00000000c0118aac                driver_find
                0x00000000c0118ad4                driver_unregister
                0x00000000c0118b1c                put_driver
                0x00000000c0118b34                driver_register
                0x00000000c0118c5c                get_driver
                0x00000000c0118c80                driver_add_kobj
                0x00000000c0118cf0                driver_remove_file
                0x00000000c0118d10                driver_create_file
                0x00000000c0118d38                driver_find_device
                0x00000000c0118dd0                driver_for_each_device
                0x00000000c0118f28                class_dev_iter_exit
                0x00000000c0118f3c                class_dev_iter_next
                0x00000000c0118f7c                class_dev_iter_init
                0x00000000c0118fb0                class_interface_unregister
                0x00000000c0119058                class_interface_register
                0x00000000c0119118                class_find_device
                0x00000000c01191d0                class_for_each_device
                0x00000000c01192ac                class_remove_file
                0x00000000c01192d0                class_unregister
                0x00000000c0119328                class_destroy
                0x00000000c011934c                class_create_file
                0x00000000c0119378                __class_register
                0x00000000c0119514                __class_create
                0x00000000c011958c                make_class_name
                0x00000000c0119600                platform_get_resource
                0x00000000c0119668                platform_get_irq
                0x00000000c0119804                dma_get_required_mask
                0x00000000c011987c                platform_driver_unregister
                0x00000000c0119894                platform_driver_register
                0x00000000c0119928                platform_driver_probe
                0x00000000c01199d8                platform_device_del
                0x00000000c0119a54                platform_device_add
                0x00000000c0119bf0                platform_device_register
                0x00000000c0119c14                platform_device_add_data
                0x00000000c0119c60                platform_device_add_resources
                0x00000000c0119cb8                platform_device_alloc
                0x00000000c0119d44                platform_device_put
                0x00000000c0119d64                platform_device_register_simple
                0x00000000c0119dd4                platform_device_unregister
                0x00000000c0119df4                platform_add_devices
                0x00000000c0119e5c                platform_get_resource_byname
                0x00000000c0119ed4                platform_get_irq_byname
                0x00000000c0119efc                platform_device_register_data
                0x00000000c0119f7c                get_cpu_sysdev
                0x00000000c011a040                kobj_map
                0x00000000c011a194                kobj_unmap
                0x00000000c011a270                kobj_lookup
                0x00000000c011a420                kobj_map_init
                0x00000000c011a630                devres_alloc
                0x00000000c011a698                devres_close_group
                0x00000000c011a740                devres_remove
                0x00000000c011a7d0                devres_find
                0x00000000c011a844                devres_add
                0x00000000c011a8c4                devm_kzalloc
                0x00000000c011a934                devres_remove_group
                0x00000000c011a9e8                devres_free
                0x00000000c011aa18                devres_destroy
                0x00000000c011aa44                devm_kfree
                0x00000000c011aa84                devres_get
                0x00000000c011ab38                devres_open_group
                0x00000000c011ae70                devres_release_group
                0x00000000c011af10                devres_release_all
                0x00000000c011af50                attribute_container_classdev_to_container
                0x00000000c011af64                attribute_container_find_class_device
                0x00000000c011b018                attribute_container_unregister
                0x00000000c011b0b8                attribute_container_register
                0x00000000c011b11c                attribute_container_device_trigger
                0x00000000c011b21c                attribute_container_trigger
                0x00000000c011b2b4                attribute_container_add_attrs
                0x00000000c011b334                attribute_container_add_class_device
                0x00000000c011b35c                attribute_container_add_device
                0x00000000c011b4a4                attribute_container_add_class_device_adapter
                0x00000000c011b4bc                attribute_container_remove_attrs
                0x00000000c011b530                attribute_container_remove_device
                0x00000000c011b63c                attribute_container_class_device_del
                0x00000000c011b6c0                transport_destroy_device
                0x00000000c011b70c                transport_remove_device
                0x00000000c011b728                transport_configure_device
                0x00000000c011b744                transport_add_device
                0x00000000c011b7fc                transport_setup_device
                0x00000000c011b818                anon_transport_class_unregister
                0x00000000c011b838                anon_transport_class_register
                0x00000000c011b878                transport_class_unregister
                0x00000000c011b88c                transport_class_register
                0x00000000c011b8b8                dmam_release_declared_memory
                0x00000000c011b8f4                dmam_free_noncoherent
                0x00000000c011b9c0                dmam_declare_coherent_memory
                0x00000000c011ba48                dmam_alloc_noncoherent
                0x00000000c011ba7c                dmam_free_coherent
                0x00000000c011bb04                dmam_alloc_coherent
                0x00000000c011bbf0                module_add_driver
                0x00000000c011bca8                module_remove_driver
                0x00000000c011c6b0                loop_register_transfer
                0x00000000c011c77c                loop_unregister_transfer
                0x00000000c011e748                mii_ethtool_gset
                0x00000000c011e9d8                mii_ethtool_sset
                0x00000000c011ec24                mii_check_gmii_support
                0x00000000c011ec74                mii_link_ok
                0x00000000c011ecbc                mii_nway_restart
                0x00000000c011ed14                generic_mii_ioctl
                0x00000000c011eeac                mii_check_media
                0x00000000c011f0b4                mii_check_link
                0x00000000c011f2d8                default_mtd_writev
                0x00000000c011f3ac                register_mtd_user
                0x00000000c011f534                put_mtd_device
                0x00000000c011f590                unregister_mtd_user
                0x00000000c011f614                get_mtd_device_nm
                0x00000000c011f740                get_mtd_device
                0x00000000c011f890                del_mtd_device
                0x00000000c011f958                add_mtd_device
                0x00000000c011fab0                kill_mtd_super
                0x00000000c011fba4                get_sb_mtd
                0x00000000c01201a0                mtd_erase_callback
                0x00000000c0120640                parse_mtd_partitions
                0x00000000c012070c                deregister_mtd_parser
                0x00000000c012077c                register_mtd_parser
                0x00000000c01207e0                del_mtd_partitions
                0x00000000c01208a0                add_mtd_partitions
                0x00000000c0121500                mtd_concat_destroy
                0x00000000c0121530                mtd_concat_create
                0x00000000c0123804                deregister_mtd_blktrans
                0x00000000c01238f0                register_mtd_blktrans
                0x00000000c0123da4                del_mtd_blktrans_dev
                0x00000000c0123e10                add_mtd_blktrans_dev
                0x00000000c0124948                map_destroy
                0x00000000c0124aa0                do_map_probe
                0x00000000c0124b14                unregister_mtd_chip_driver
                0x00000000c0124b80                register_mtd_chip_driver
                0x00000000c0124c70                simple_map_init
                0x00000000c0125a30                spi_sync
                0x00000000c0125aa0                spi_write_then_read
                0x00000000c0125be8                spi_busnum_to_master
                0x00000000c0125c20                spi_unregister_master
                0x00000000c0125c78                spi_alloc_master
                0x00000000c0125d20                spi_alloc_device
                0x00000000c0125db4                spi_add_device
                0x00000000c0125f24                spi_new_device
                0x00000000c0125fd8                spi_register_master
                0x00000000c0126118                spi_register_driver
                0x00000000c012702c                serio_close
                0x00000000c012705c                serio_open
                0x00000000c012742c                serio_unregister_child_port
                0x00000000c012746c                serio_unregister_port
                0x00000000c0127674                serio_unregister_driver
                0x00000000c01278f4                __serio_register_driver
                0x00000000c012798c                serio_reconnect
                0x00000000c01279a8                serio_rescan
                0x00000000c01279c4                serio_interrupt
                0x00000000c0127a6c                __serio_register_port
                0x00000000c0127ee4                ps2_cmd_aborted
                0x00000000c0127f2c                ps2_handle_response
                0x00000000c0127fc8                ps2_handle_ack
                0x00000000c01280b0                ps2_init
                0x00000000c01280ec                ps2_drain
                0x00000000c012821c                ps2_sendbyte
                0x00000000c0128398                ps2_is_keyboard_id
                0x00000000c01283c4                ps2_command
                0x00000000c01288e8                input_get_keycode
                0x00000000c0128e4c                input_set_keycode
                0x00000000c0129208                input_flush_device
                0x00000000c0129594                input_unregister_handle
                0x00000000c0129600                input_register_handle
                0x00000000c0129718                input_release_device
                0x00000000c0129750                input_close_device
                0x00000000c01297c8                input_open_device
                0x00000000c0129878                input_grab_device
                0x00000000c01298d0                input_unregister_handler
                0x00000000c01299c4                input_register_handler
                0x00000000c0129acc                input_unregister_device
                0x00000000c012a2cc                input_register_device
                0x00000000c012aabc                input_inject_event
                0x00000000c012ab78                input_set_capability
                0x00000000c012ad38                input_free_device
                0x00000000c012aef4                input_allocate_device
                0x00000000c012af7c                input_event
                0x00000000c012b244                input_ff_event
                0x00000000c012b2fc                input_ff_destroy
                0x00000000c012b364                input_ff_create
                0x00000000c012b660                input_ff_erase
                0x00000000c012b6bc                input_ff_upload
                0x00000000c012e584                rtc_month_days
                0x00000000c012e608                rtc_year_days
                0x00000000c012e68c                rtc_time_to_tm
                0x00000000c012e81c                rtc_valid_tm
                0x00000000c012e8a0                rtc_tm_to_time
                0x00000000c012e8f0                rtc_device_unregister
                0x00000000c012e998                rtc_device_register
                0x00000000c012eb70                rtc_irq_set_freq
                0x00000000c012ec68                rtc_irq_set_state
                0x00000000c012ed34                rtc_irq_unregister
                0x00000000c012eda0                rtc_irq_register
                0x00000000c012ee84                rtc_class_close
                0x00000000c012eea8                rtc_class_open
                0x00000000c012efa8                rtc_update_irq
                0x00000000c012f070                rtc_set_alarm
                0x00000000c012f0f0                rtc_set_time
                0x00000000c012f170                rtc_set_mmss
                0x00000000c012f26c                rtc_read_time
                0x00000000c012f2e8                rtc_read_alarm
                0x00000000c012fdcc                rtc_dev_prepare
                0x00000000c012fe24                rtc_dev_add_device
                0x00000000c012fe74                rtc_dev_del_device
                0x00000000c0130180                rtc_proc_add_device
                0x00000000c01301d0                rtc_proc_del_device
                0x00000000c01304c8                rtc_sysfs_add_device
                0x00000000c0130534                rtc_sysfs_del_device
                0x00000000c0130670                i2c_verify_client
                0x00000000c01309e8                i2c_put_adapter
                0x00000000c0130a00                i2c_get_adapter
                0x00000000c0130ac0                i2c_clients_command
                0x00000000c0130af4                i2c_transfer
                0x00000000c0130bac                i2c_smbus_xfer
                0x00000000c01310bc                i2c_smbus_write_i2c_block_data
                0x00000000c0131120                i2c_smbus_read_i2c_block_data
                0x00000000c01311a0                i2c_smbus_write_block_data
                0x00000000c0131204                i2c_smbus_read_block_data
                0x00000000c0131274                i2c_smbus_process_call
                0x00000000c01312cc                i2c_smbus_write_word_data
                0x00000000c013131c                i2c_smbus_read_word_data
                0x00000000c0131368                i2c_smbus_write_byte_data
                0x00000000c01313b8                i2c_smbus_read_byte_data
                0x00000000c0131404                i2c_smbus_write_byte
                0x00000000c013144c                i2c_smbus_read_byte
                0x00000000c01315d8                i2c_probe
                0x00000000c0131834                i2c_master_recv
                0x00000000c013188c                i2c_master_send
                0x00000000c01318e0                i2c_release_client
                0x00000000c0131900                i2c_use_client
                0x00000000c0131934                i2c_detach_client
                0x00000000c01319e8                i2c_attach_client
                0x00000000c0131b98                i2c_del_driver
                0x00000000c0131be8                i2c_unregister_device
                0x00000000c0131f44                i2c_register_driver
                0x00000000c013203c                i2c_del_adapter
                0x00000000c013219c                i2c_new_device
                0x00000000c0132230                i2c_new_probed_device
                0x00000000c0132ae4                i2c_add_numbered_adapter
                0x00000000c0132bac                i2c_add_adapter
                0x00000000c0132c48                i2c_new_dummy
                0x00000000c0133a88                ftiic010_set_clock_speed
                0x00000000c01340b8                mmc_request_done
                0x00000000c0134138                mmc_set_data_timeout
                0x00000000c0134230                mmc_align_data_size
                0x00000000c0134248                mmc_detect_change
                0x00000000c0134270                mmc_release_host
                0x00000000c0134310                __mmc_claim_host
                0x00000000c0134460                mmc_wait_for_req
                0x00000000c013457c                mmc_wait_for_cmd
                0x00000000c0134610                mmc_set_chip_select
                0x00000000c0134634                mmc_set_clock
                0x00000000c0134690                mmc_set_bus_mode
                0x00000000c01346b4                mmc_set_bus_width
                0x00000000c01346d8                mmc_select_voltage
                0x00000000c013472c                mmc_set_timing
                0x00000000c0134750                mmc_attach_bus
                0x00000000c013481c                mmc_detach_bus
                0x00000000c0134988                mmc_rescan
                0x00000000c0134d10                mmc_start_host
                0x00000000c0134d78                mmc_stop_host
                0x00000000c0135098                mmc_unregister_driver
                0x00000000c01350b8                mmc_register_driver
                0x00000000c01350d8                mmc_register_bus
                0x00000000c01350f4                mmc_unregister_bus
                0x00000000c0135110                mmc_alloc_card
                0x00000000c0135180                mmc_add_card
                0x00000000c01352b8                mmc_remove_card
                0x00000000c013532c                mmc_free_host
                0x00000000c0135390                mmc_remove_host
                0x00000000c01353b8                mmc_add_host
                0x00000000c0135438                mmc_alloc_host
                0x00000000c013557c                mmc_register_host_class
                0x00000000c01355a0                mmc_unregister_host_class
                0x00000000c0135824                mmc_attach_mmc
                0x00000000c0136170                mmc_select_card
                0x00000000c0136194                mmc_deselect_cards
                0x00000000c01361ac                mmc_go_idle
                0x00000000c0136250                mmc_send_op_cond
                0x00000000c013632c                mmc_all_send_cid
                0x00000000c01363a8                mmc_set_relative_addr
                0x00000000c0136414                mmc_send_csd
                0x00000000c0136494                mmc_send_cid
                0x00000000c013651c                mmc_send_ext_csd
                0x00000000c0136540                mmc_spi_read_ocr
                0x00000000c01365a4                mmc_spi_set_crc
                0x00000000c013660c                mmc_switch
                0x00000000c013668c                mmc_send_status
                0x00000000c01369b0                mmc_attach_sd
                0x00000000c0137240                mmc_wait_for_app_cmd
                0x00000000c013730c                mmc_app_set_bus_width
                0x00000000c0137390                mmc_send_app_op_cond
                0x00000000c0137470                mmc_send_if_cond
                0x00000000c01374f8                mmc_send_relative_addr
                0x00000000c013756c                mmc_app_send_scr
                0x00000000c01376a4                mmc_sd_switch
                0x00000000c01378ac                mmc_attach_sdio
                0x00000000c0137e50                mmc_send_io_op_cond
                0x00000000c0137f2c                mmc_io_rw_direct
                0x00000000c0138044                mmc_io_rw_extended
                0x00000000c01383c8                sdio_unregister_driver
                0x00000000c01383ec                sdio_register_driver
                0x00000000c0138564                sdio_register_bus
                0x00000000c0138580                sdio_unregister_bus
                0x00000000c013859c                sdio_alloc_func
                0x00000000c0138604                sdio_add_func
                0x00000000c0138650                sdio_remove_func
                0x00000000c0138c00                sdio_read_common_cis
                0x00000000c0138c18                sdio_free_common_cis
                0x00000000c0138c54                sdio_read_func_cis
                0x00000000c0138ccc                sdio_free_func_cis
                0x00000000c0138d38                sdio_f0_writeb
                0x00000000c0138da8                sdio_f0_readb
                0x00000000c0138e24                sdio_writeb
                0x00000000c0138e7c                sdio_readb
                0x00000000c0138ef8                sdio_set_block_size
                0x00000000c0138fb8                sdio_disable_func
                0x00000000c01391e4                sdio_writesb
                0x00000000c0139214                sdio_readsb
                0x00000000c0139240                sdio_memcpy_toio
                0x00000000c0139270                sdio_writel
                0x00000000c01392a0                sdio_writew
                0x00000000c01392d4                sdio_memcpy_fromio
                0x00000000c01392fc                sdio_readl
                0x00000000c013934c                sdio_readw
                0x00000000c01393a0                sdio_align_size
                0x00000000c0139540                sdio_enable_func
                0x00000000c0139644                sdio_release_host
                0x00000000c0139678                sdio_claim_host
                0x00000000c01396b0                sdio_release_irq
                0x00000000c01397bc                sdio_claim_irq
                0x00000000c0139d60                mmc_add_host_debugfs
                0x00000000c0139dfc                mmc_remove_host_debugfs
                0x00000000c0139e14                mmc_add_card_debugfs
                0x00000000c0139eec                mmc_remove_card_debugfs
                0x00000000c013ab94                mmc_init_queue
                0x00000000c013ae9c                mmc_queue_suspend
                0x00000000c013af1c                mmc_queue_resume
                0x00000000c013af98                mmc_cleanup_queue
                0x00000000c013b058                mmc_queue_map_sg
                0x00000000c013b0f4                mmc_queue_bounce_pre
                0x00000000c013b14c                mmc_queue_bounce_post
 .text          0x00000000c013b1a4    0x728b8 net/built-in.o
                0x00000000c013b1dc                sock_sendmsg
                0x00000000c013b2a4                kernel_sendmsg
                0x00000000c013b31c                sock_recvmsg
                0x00000000c013b3f4                kernel_recvmsg
                0x00000000c013b500                kernel_bind
                0x00000000c013b51c                kernel_listen
                0x00000000c013b538                kernel_connect
                0x00000000c013b554                kernel_getsockname
                0x00000000c013b574                kernel_getpeername
                0x00000000c013b594                kernel_sock_ioctl
                0x00000000c013b608                kernel_sock_shutdown
                0x00000000c013b968                kernel_sendpage
                0x00000000c013b9a8                kernel_setsockopt
                0x00000000c013ba34                kernel_getsockopt
                0x00000000c013bafc                sock_unregister
                0x00000000c013bb7c                sock_register
                0x00000000c013c02c                dlci_ioctl_set
                0x00000000c013c064                vlan_ioctl_set
                0x00000000c013c09c                brioctl_set
                0x00000000c013c1f8                sock_create_lite
                0x00000000c013c344                sock_map_fd
                0x00000000c013c3e8                sock_wake_async
                0x00000000c013c490                __sock_recv_timestamp
                0x00000000c013c560                sock_release
                0x00000000c013c654                kernel_accept
                0x00000000c013c758                sockfd_lookup
                0x00000000c013caa0                sock_create_kern
                0x00000000c013cae0                sock_create
                0x00000000c013cb30                move_addr_to_kernel
                0x00000000c013cbb0                move_addr_to_user
                0x00000000c013cc60                sys_socket
                0x00000000c013ccd8                sys_socketpair
                0x00000000c013ce98                sys_bind
                0x00000000c013cf28                sys_listen
                0x00000000c013cfa4                sys_accept4
                0x00000000c013d1bc                sys_accept
                0x00000000c013d1d4                sys_connect
                0x00000000c013d26c                sys_getsockname
                0x00000000c013d300                sys_getpeername
                0x00000000c013d398                sys_sendto
                0x00000000c013d474                sys_send
                0x00000000c013d49c                sys_recvfrom
                0x00000000c013d588                sys_recv
                0x00000000c013d5b0                sys_setsockopt
                0x00000000c013d664                sys_getsockopt
                0x00000000c013d708                sys_shutdown
                0x00000000c013d774                sys_sendmsg
                0x00000000c013d9d4                sys_recvmsg
                0x00000000c013dbb8                socket_seq_show
                0x00000000c013dbe4                __sk_mem_schedule
                0x00000000c013ddf4                __sk_mem_reclaim
                0x00000000c013de74                sock_no_bind
                0x00000000c013de88                sock_no_connect
                0x00000000c013de9c                sock_no_socketpair
                0x00000000c013deb0                sock_no_accept
                0x00000000c013dec4                sock_no_getname
                0x00000000c013ded8                sock_no_poll
                0x00000000c013deec                sock_no_ioctl
                0x00000000c013df00                sock_no_listen
                0x00000000c013df14                sock_no_shutdown
                0x00000000c013df28                sock_no_setsockopt
                0x00000000c013df3c                sock_no_getsockopt
                0x00000000c013df50                sock_no_sendmsg
                0x00000000c013df64                sock_no_recvmsg
                0x00000000c013df78                sock_no_mmap
                0x00000000c013df8c                sock_common_getsockopt
                0x00000000c013dfbc                sock_common_recvmsg
                0x00000000c013e018                sock_common_setsockopt
                0x00000000c013e048                sock_prot_inuse_add
                0x00000000c013e070                sock_prot_inuse_get
                0x00000000c013e460                sock_i_ino
                0x00000000c013e4c4                sock_i_uid
                0x00000000c013e578                sock_kfree_s
                0x00000000c013e5b4                proto_unregister
                0x00000000c013e6c0                sock_kmalloc
                0x00000000c013e754                proto_register
                0x00000000c013ea10                release_sock
                0x00000000c013eaf0                lock_sock_nested
                0x00000000c013ebd8                sock_init_data
                0x00000000c013eee4                sk_stop_timer
                0x00000000c013ef30                sk_reset_timer
                0x00000000c013ef74                sk_send_sigurg
                0x00000000c013efd8                sock_no_sendpage
                0x00000000c013f064                sk_wait_data
                0x00000000c013f158                sock_wmalloc
                0x00000000c013f1f4                sock_rfree
                0x00000000c013f268                sk_setup_caps
                0x00000000c013f2e0                sk_dst_check
                0x00000000c013f3e0                __sk_dst_check
                0x00000000c013f43c                sk_free
                0x00000000c013f548                sk_common_release
                0x00000000c013f62c                sock_wfree
                0x00000000c013f6a8                sk_release_kernel
                0x00000000c013f8dc                sk_receive_skb
                0x00000000c013f9c8                sock_queue_rcv_skb
                0x00000000c013fbb8                sk_alloc
                0x00000000c013fc04                sk_clone
                0x00000000c013fdb8                sock_alloc_send_skb
                0x00000000c0140008                sock_getsockopt
                0x00000000c0140470                sock_rmalloc
                0x00000000c014050c                sock_enable_timestamp
                0x00000000c0140538                sock_get_timestampns
                0x00000000c0140604                sock_get_timestamp
                0x00000000c01406f4                sock_setsockopt
                0x00000000c0140ddc                reqsk_queue_alloc
                0x00000000c0140ee4                __reqsk_queue_destroy
                0x00000000c0140f18                reqsk_queue_destroy
                0x00000000c0141070                skb_add_rx_frag
                0x00000000c01410cc                skb_prepare_seq_read
                0x00000000c01410f8                skb_find_text
                0x00000000c0141190                __skb_warn_lro_forwarding
                0x00000000c01411c0                skb_under_panic
                0x00000000c0141228                skb_over_panic
                0x00000000c0141290                skb_partial_csum_set
                0x00000000c0141324                skb_pull
                0x00000000c0141370                skb_trim
                0x00000000c01415d4                skb_to_sgvec
                0x00000000c0141b10                skb_pull_rcsum
                0x00000000c0141ba4                skb_append_datato_frags
                0x00000000c0141d3c                __netdev_alloc_page
                0x00000000c0141d64                skb_abort_seq_read
                0x00000000c0141dc0                skb_seq_read
                0x00000000c014206c                skb_checksum
                0x00000000c014232c                skb_store_bits
                0x00000000c0142594                skb_copy_bits
                0x00000000c014280c                skb_insert
                0x00000000c014287c                skb_append
                0x00000000c01428f0                skb_unlink
                0x00000000c014296c                skb_queue_tail
                0x00000000c01429dc                skb_queue_head
                0x00000000c0142a50                skb_dequeue_tail
                0x00000000c0142ae8                skb_dequeue
                0x00000000c0142b80                skb_copy_and_csum_bits
                0x00000000c0142e84                skb_copy_and_csum_dev
                0x00000000c0142f58                skb_push
                0x00000000c0142fa4                skb_put
                0x00000000c0142ff8                skb_split
                0x00000000c0143254                skb_clone
                0x00000000c01433b0                __kfree_skb
                0x00000000c0143480                kfree_skb
                0x00000000c01434d0                skb_queue_purge
                0x00000000c014361c                pskb_expand_head
                0x00000000c01437c8                __pskb_pull_tail
                0x00000000c0143ac0                ___pskb_trim
                0x00000000c0143d10                skb_pad
                0x00000000c0143f20                skb_morph
                0x00000000c014401c                skb_recycle_check
                0x00000000c01440e8                __alloc_skb
                0x00000000c01441d4                skb_segment
                0x00000000c014452c                skb_copy_expand
                0x00000000c01445f4                pskb_copy
                0x00000000c0144784                skb_realloc_headroom
                0x00000000c0144800                skb_copy
                0x00000000c0144898                skb_cow_data
                0x00000000c0144b60                dev_alloc_skb
                0x00000000c0144ba4                __netdev_alloc_skb
                0x00000000c0144bf0                skb_truesize_bug
                0x00000000c0144c48                skb_splice_bits
                0x00000000c0144d68                memcpy_fromiovecend
                0x00000000c0144e48                memcpy_fromiovec
                0x00000000c0144f20                csum_partial_copy_fromiovecend
                0x00000000c01451ec                memcpy_toiovec
                0x00000000c01452a0                verify_iovec
                0x00000000c01453a8                datagram_poll
                0x00000000c0145828                __skb_checksum_complete_head
                0x00000000c014588c                __skb_checksum_complete
                0x00000000c01458a4                skb_copy_datagram_from_iovec
                0x00000000c0145a90                skb_copy_datagram_iovec
                0x00000000c0145c7c                skb_copy_and_csum_datagram_iovec
                0x00000000c0145d8c                skb_kill_datagram
                0x00000000c0145e6c                skb_free_datagram
                0x00000000c0145eac                __skb_recv_datagram
                0x00000000c014610c                skb_recv_datagram
                0x00000000c014613c                sk_stream_kill_queues
                0x00000000c014625c                sk_stream_error
                0x00000000c01462d8                sk_stream_wait_memory
                0x00000000c0146538                sk_stream_wait_close
                0x00000000c014662c                sk_stream_wait_connect
                0x00000000c01467b0                sk_stream_write_space
                0x00000000c0146854                scm_fp_dup
                0x00000000c01468e8                put_cmsg
                0x00000000c0146a00                __scm_destroy
                0x00000000c0146ae8                scm_detach_fds
                0x00000000c0146c60                __scm_send
                0x00000000c0146f3c                gnet_stats_finish_copy
                0x00000000c0147000                gnet_stats_copy_app
                0x00000000c0147070                gnet_stats_copy_queue
                0x00000000c0147100                gnet_stats_copy_rate_est
                0x00000000c014717c                gnet_stats_copy_basic
                0x00000000c01471fc                gnet_stats_start_copy_compat
                0x00000000c01472ac                gnet_stats_start_copy
                0x00000000c01472d8                gen_kill_estimator
                0x00000000c0147408                gen_new_estimator
                0x00000000c0147568                gen_replace_estimator
                0x00000000c0147750                unregister_pernet_device
                0x00000000c01477a4                register_pernet_device
                0x00000000c0147818                unregister_pernet_subsys
                0x00000000c0147858                register_pernet_subsys
                0x00000000c01478bc                net_assign_generic
                0x00000000c0147978                unregister_pernet_gen_device
                0x00000000c01479e0                unregister_pernet_gen_subsys
                0x00000000c0147a34                register_pernet_gen_device
                0x00000000c0147aec                register_pernet_gen_subsys
                0x00000000c0147b80                copy_net_ns
                0x00000000c0147b9c                skb_dma_unmap
                0x00000000c0147bac                skb_dma_map
                0x00000000c0147ccc                __dev_get_by_index
                0x00000000c0147d24                net_enable_timestamp
                0x00000000c0147d58                net_disable_timestamp
                0x00000000c0147d8c                netif_device_detach
                0x00000000c0147dec                __napi_schedule
                0x00000000c0147e3c                register_gifconf
                0x00000000c0147e6c                dev_seq_start
                0x00000000c0147f1c                dev_seq_next
                0x00000000c0148200                dev_get_flags
                0x00000000c01482a0                netdev_increment_features
                0x00000000c0148328                netdev_fix_features
                0x00000000c0148814                dev_seq_stop
                0x00000000c014884c                dev_get_by_flags
                0x00000000c0148910                dev_get_by_index
                0x00000000c0148b88                dev_disable_lro
                0x00000000c0148d70                __netif_schedule
                0x00000000c0148dd4                dev_kfree_skb_irq
                0x00000000c0148f40                __dev_getfirstbyhwtype
                0x00000000c0148fe0                dev_getfirstbyhwtype
                0x00000000c0149034                __dev_remove_pack
                0x00000000c0149108                dev_add_pack
                0x00000000c01491bc                __dev_get_by_name
                0x00000000c0149274                dev_get_by_name
                0x00000000c01492f4                synchronize_net
                0x00000000c0149308                dev_remove_pack
                0x00000000c0149320                free_netdev
                0x00000000c0149374                alloc_netdev_mq
                0x00000000c0149504                dev_kfree_skb_any
                0x00000000c014954c                netdev_set_master
                0x00000000c0149630                dev_getbyhwaddr
                0x00000000c01496d8                netif_receive_skb
                0x00000000c0149af4                netif_rx
                0x00000000c0149c24                netif_rx_ni
                0x00000000c0149ca4                netdev_rx_csum_fault
                0x00000000c0149ce4                dev_pick_tx
                0x00000000c0149e88                skb_gso_segment
                0x00000000c014a0a4                skb_checksum_help
                0x00000000c014a1d8                netif_device_attach
                0x00000000c014a260                unregister_netdevice_notifier
                0x00000000c014a294                register_netdevice_notifier
                0x00000000c014a42c                dev_load
                0x00000000c014a4b8                dev_valid_name
                0x00000000c014a56c                netdev_boot_setup_check
                0x00000000c014a600                dev_alloc_name
                0x00000000c014a780                netdev_boot_base
                0x00000000c014a818                dev_set_alias
                0x00000000c014a8d0                call_netdevice_notifiers
                0x00000000c014a8f8                dev_set_mac_address
                0x00000000c014a960                dev_set_mtu
                0x00000000c014a9e0                dev_close
                0x00000000c014acb4                unregister_netdevice
                0x00000000c014ad24                unregister_netdev
                0x00000000c014ad48                register_netdevice
                0x00000000c014b134                register_netdev
                0x00000000c014b188                netdev_bonding_change
                0x00000000c014b1a4                netdev_state_change
                0x00000000c014b1e0                netdev_features_change
                0x00000000c014b1fc                dev_change_name
                0x00000000c014b42c                dev_hard_start_xmit
                0x00000000c014b6d0                dev_queue_xmit
                0x00000000c014ba98                netif_nit_deliver
                0x00000000c014bb94                __dev_set_rx_mode
                0x00000000c014bc34                dev_set_rx_mode
                0x00000000c014bc7c                dev_set_allmulti
                0x00000000c014bd58                dev_set_promiscuity
                0x00000000c014bd98                dev_change_flags
                0x00000000c014c308                dev_open
                0x00000000c014c410                __dev_addr_delete
                0x00000000c014c4dc                dev_unicast_delete
                0x00000000c014c58c                __dev_addr_add
                0x00000000c014c688                dev_unicast_add
                0x00000000c014c738                __dev_addr_sync
                0x00000000c014c824                dev_unicast_sync
                0x00000000c014c890                __dev_addr_unsync
                0x00000000c014c92c                dev_unicast_unsync
                0x00000000c014c9b8                dev_ioctl
                0x00000000c014d20c                netdev_run_todo
                0x00000000c014d488                dev_change_net_namespace
                0x00000000c014d4f0                netdev_drivername
                0x00000000c014d54c                ethtool_op_get_link
                0x00000000c014d56c                ethtool_op_get_tx_csum
                0x00000000c014d58c                ethtool_op_set_tx_csum
                0x00000000c014d5b4                ethtool_op_set_tx_hw_csum
                0x00000000c014d5dc                ethtool_op_set_tx_ipv6_csum
                0x00000000c014d604                ethtool_op_get_sg
                0x00000000c014d61c                ethtool_op_set_sg
                0x00000000c014d644                ethtool_op_get_tso
                0x00000000c014d664                ethtool_op_set_tso
                0x00000000c014d68c                ethtool_op_get_ufo
                0x00000000c014d6ac                ethtool_op_set_ufo
                0x00000000c014d6d4                ethtool_op_get_flags
                0x00000000c014d6ec                ethtool_op_set_flags
                0x00000000c014d894                dev_ethtool
                0x00000000c014f4a0                dev_mc_unsync
                0x00000000c014f52c                dev_mc_sync
                0x00000000c014f598                dev_mc_add
                0x00000000c014f618                dev_mc_delete
                0x00000000c014f948                dst_release
                0x00000000c014f9a0                dst_destroy
                0x00000000c014fcf0                __dst_free
                0x00000000c014fde4                dst_alloc
                0x00000000c014fe8c                dst_discard
                0x00000000c014fea4                call_netevent_notifiers
                0x00000000c014fecc                unregister_netevent_notifier
                0x00000000c014feec                register_netevent_notifier
                0x00000000c01501a4                neigh_seq_start
                0x00000000c015035c                neigh_seq_stop
                0x00000000c0150388                neigh_for_each
                0x00000000c0150414                neigh_seq_next
                0x00000000c0150f70                neigh_sysctl_unregister
                0x00000000c0150fe8                neigh_sysctl_register
                0x00000000c01513b0                neigh_connected_output
                0x00000000c01516d0                __neigh_event_send
                0x00000000c01518d0                neigh_resolve_output
                0x00000000c0151ba0                neigh_parms_release
                0x00000000c0151c8c                neigh_rand_reach_time
                0x00000000c0151cbc                neigh_table_init_no_netlink
                0x00000000c0151e64                neigh_table_init
                0x00000000c0151f24                neigh_parms_alloc
                0x00000000c015203c                pneigh_enqueue
                0x00000000c0152158                neigh_compat_output
                0x00000000c015221c                neigh_lookup_nodev
                0x00000000c015234c                neigh_lookup
                0x00000000c015248c                neigh_destroy
                0x00000000c0152728                __pneigh_lookup
                0x00000000c0152768                pneigh_lookup
                0x00000000c0152a3c                __neigh_for_each_release
                0x00000000c0152d28                neigh_create
                0x00000000c01533f0                neigh_ifdown
                0x00000000c01534e8                neigh_table_clear
                0x00000000c0153600                neigh_changeaddr
                0x00000000c015367c                neigh_update
                0x00000000c0153b1c                neigh_event_ns
                0x00000000c01548f0                pneigh_delete
                0x00000000c0154bec                rtnl_is_locked
                0x00000000c0154c10                __rtnl_link_register
                0x00000000c0154c5c                __rtnl_link_unregister
                0x00000000c0154fcc                rtnl_unregister_all
                0x00000000c0155004                rtnl_unregister
                0x00000000c015505c                __rtnl_register
                0x00000000c01550f8                rtnl_register
                0x00000000c015579c                __rta_fill
                0x00000000c01557f4                rtnetlink_put_metrics
                0x00000000c0155e8c                rtnl_create_link
                0x00000000c0155f7c                rtnl_put_cacheinfo
                0x00000000c015601c                rtnl_set_sk_err
                0x00000000c0156044                rtnl_notify
                0x00000000c0156094                rtnl_unicast
                0x00000000c01561fc                rtnl_trylock
                0x00000000c0156218                rtnl_unlock
                0x00000000c015622c                rtnl_lock
                0x00000000c0156274                rtnl_link_unregister
                0x00000000c0156298                rtnl_kill_links
                0x00000000c0156308                rtnl_link_register
                0x00000000c0156358                __rtnl_unlock
                0x00000000c0156960                rtnetlink_send
                0x00000000c01569f4                rtmsg_ifinfo
                0x00000000c0156b74                inet_proto_csum_replace4
                0x00000000c0156c40                in4_pton
                0x00000000c0156de4                in6_pton
                0x00000000c015716c                in_aton
                0x00000000c015720c                net_ratelimit
                0x00000000c015740c                linkwatch_fire_event
                0x00000000c01576d8                linkwatch_run_queue
                0x00000000c01576f0                sk_chk_filter
                0x00000000c0157b4c                sk_run_filter
                0x00000000c015846c                sk_filter
                0x00000000c01584fc                sk_attach_filter
                0x00000000c015865c                sk_detach_filter
                0x00000000c01588f4                flow_cache_lookup
                0x00000000c0158c60                flow_cache_flush
                0x00000000c0159140                netdev_class_remove_file
                0x00000000c0159160                netdev_class_create_file
                0x00000000c0159780                netdev_unregister_kobject
                0x00000000c01597a4                netdev_register_kobject
                0x00000000c01597f0                netdev_initialize_kobject
                0x00000000c0159808                netdev_kobject_init
                0x00000000c0159934                print_mac
                0x00000000c015995c                sysfs_format_mac
                0x00000000c01599a0                alloc_etherdev_mq
                0x00000000c01599c8                ether_setup
                0x00000000c0159ac4                eth_header_cache_update
                0x00000000c0159ae4                eth_header_cache
                0x00000000c0159b50                eth_header_parse
                0x00000000c0159b7c                eth_type_trans
                0x00000000c0159ca8                eth_rebuild_header
                0x00000000c0159d08                eth_header
                0x00000000c0159ef0                qdisc_reset
                0x00000000c015a5cc                qdisc_destroy
                0x00000000c015a6f8                netif_carrier_off
                0x00000000c015a73c                __qdisc_run
                0x00000000c015a9d0                __netdev_watchdog_up
                0x00000000c015aa48                netif_carrier_on
                0x00000000c015aaa4                qdisc_alloc
                0x00000000c015ab60                qdisc_create_dflt
                0x00000000c015ac24                dev_activate
                0x00000000c015ad40                dev_deactivate
                0x00000000c015af88                dev_init_scheduler
                0x00000000c015affc                dev_shutdown
                0x00000000c015b430                netlink_set_nonroot
                0x00000000c015b720                netlink_has_listeners
                0x00000000c015c0c4                netlink_clear_multicast_users
                0x00000000c015c63c                netlink_dump_start
                0x00000000c015c9a8                netlink_unregister_notifier
                0x00000000c015c9c8                netlink_register_notifier
                0x00000000c015c9e8                netlink_change_ngroups
                0x00000000c015caa8                netlink_kernel_release
                0x00000000c015cabc                netlink_broadcast
                0x00000000c015d0a8                netlink_kernel_create
                0x00000000c015d548                netlink_getsockbyfilp
                0x00000000c015d5a8                netlink_attachskb
                0x00000000c015d7b4                netlink_sendskb
                0x00000000c015d814                netlink_unicast
                0x00000000c015ddb8                nlmsg_notify
                0x00000000c015de54                netlink_ack
                0x00000000c015dff8                netlink_rcv_skb
                0x00000000c015e0d8                netlink_detachskb
                0x00000000c015e120                netlink_set_err
                0x00000000c015e220                nla_find
                0x00000000c015e2a4                nla_append
                0x00000000c015e300                nla_memcpy
                0x00000000c015e330                __nla_reserve_nohdr
                0x00000000c015e368                __nla_put_nohdr
                0x00000000c015e390                nla_put_nohdr
                0x00000000c015e3d8                nla_reserve_nohdr
                0x00000000c015e41c                __nla_reserve
                0x00000000c015e46c                __nla_put
                0x00000000c015e498                nla_put
                0x00000000c015e4e0                nla_reserve
                0x00000000c015e524                nla_strlcpy
                0x00000000c015e58c                nla_strcmp
                0x00000000c015e5cc                nla_memcmp
                0x00000000c015e7b0                nla_parse
                0x00000000c015e888                nla_validate
                0x00000000c015f5d8                genl_unregister_family
                0x00000000c015f700                genl_unregister_ops
                0x00000000c015f7b8                genl_register_ops
                0x00000000c015f8c4                genl_register_family
                0x00000000c015fa54                genl_register_mc_group
                0x00000000c015fba4                genl_unregister_mc_group
                0x00000000c015fbe0                nf_conntrack_destroy
                0x00000000c015fc40                nf_ct_attach
                0x00000000c015fca8                skb_make_writable
                0x00000000c015fd60                nf_unregister_hook
                0x00000000c015fda8                nf_unregister_hooks
                0x00000000c015fde0                nf_register_hook
                0x00000000c015fe88                nf_register_hooks
                0x00000000c015fef4                nf_register_afinfo
                0x00000000c015ff3c                nf_unregister_afinfo
                0x00000000c015ff84                nf_iterate
                0x00000000c0160040                nf_hook_slow
                0x00000000c0160298                nf_log_packet
                0x00000000c0160354                nf_log_unregister
                0x00000000c01603a4                nf_log_unregister_pf
                0x00000000c01603e8                nf_log_register
                0x00000000c016057c                nf_queue_entry_release_refs
                0x00000000c0160850                nf_reinject
                0x00000000c01609e8                nf_register_queue_handler
                0x00000000c0160a5c                nf_unregister_queue_handlers
                0x00000000c0160aac                nf_unregister_queue_handler
                0x00000000c0160b24                nf_queue
                0x00000000c0160c38                nf_register_sockopt
                0x00000000c0160d2c                nf_unregister_sockopt
                0x00000000c0160f58                nf_getsockopt
                0x00000000c0160f84                nf_setsockopt
                0x00000000c0162788                __ip_route_output_key
                0x00000000c016329c                ip_route_output_flow
                0x00000000c01634c8                ip_route_output_key
                0x00000000c01634f0                ip_route_input
                0x00000000c016497c                rt_cache_flush
                0x00000000c0164b38                rt_bind_peer
                0x00000000c0164ba4                __ip_select_ident
                0x00000000c0164ca0                ip_rt_redirect
                0x00000000c01652cc                ip_rt_send_redirect
                0x00000000c016545c                ip_rt_frag_needed
                0x00000000c01657c0                ip_rt_get_source
                0x00000000c01658c4                ip_rt_dump
                0x00000000c0165a5c                ip_rt_multicast_event
                0x00000000c0165c1c                inet_putpeer
                0x00000000c0165f34                inet_getpeer
                0x00000000c0166284                inet_add_protocol
                0x00000000c01662e8                inet_del_protocol
                0x00000000c01668d4                ip_call_ra_chain
                0x00000000c0166a50                ip_local_deliver
                0x00000000c0166b10                ip_rcv
                0x00000000c0167174                ip_defrag
                0x00000000c0167cb0                ip_frag_nqueues
                0x00000000c0167cc4                ip_frag_mem
                0x00000000c0167d28                ip_forward
                0x00000000c01680f0                ip_options_build
                0x00000000c01682f8                ip_options_echo
                0x00000000c0168724                ip_options_fragment
                0x00000000c01687c8                ip_options_compile
                0x00000000c0168e04                ip_options_undo
                0x00000000c0168f34                ip_options_get_from_user
                0x00000000c0168fdc                ip_options_get
                0x00000000c0169058                ip_forward_options
                0x00000000c01691f8                ip_options_rcv_srr
                0x00000000c0169410                ip_send_check
                0x00000000c01694d8                ip_generic_getfrag
                0x00000000c01696d4                ip_fragment
                0x00000000c016a610                __ip_local_out
                0x00000000c016a6ec                ip_local_out
                0x00000000c016a71c                ip_queue_xmit
                0x00000000c016aa84                ip_build_and_send_pkt
                0x00000000c016abf4                ip_mc_output
                0x00000000c016ae0c                ip_output
                0x00000000c016aefc                ip_append_data
                0x00000000c016b904                ip_append_page
                0x00000000c016bdec                ip_push_pending_frames
                0x00000000c016c1cc                ip_flush_pending_frames
                0x00000000c016c250                ip_send_reply
                0x00000000c016cb8c                ip_getsockopt
                0x00000000c016cc40                ip_cmsg_recv
                0x00000000c016cdd0                ip_cmsg_send
                0x00000000c016cef0                ip_ra_control
                0x00000000c016ddf4                ip_setsockopt
                0x00000000c016de98                ip_icmp_error
                0x00000000c016dfd8                ip_local_error
                0x00000000c016e138                ip_recv_error
                0x00000000c016e324                __inet_hash_nolisten
                0x00000000c016e46c                __inet_lookup_established
                0x00000000c016e648                __inet_lookup_listener
                0x00000000c016e7cc                __inet_inherit_port
                0x00000000c016eb78                inet_bind_bucket_create
                0x00000000c016ebd4                inet_bind_bucket_destroy
                0x00000000c016ec08                inet_put_port
                0x00000000c016ec98                inet_bind_hash
                0x00000000c016ecd8                inet_listen_wlock
                0x00000000c016ed94                inet_unhash
                0x00000000c016ee68                inet_hash
                0x00000000c016ef68                __inet_hash_connect
                0x00000000c016f2e0                inet_hash_connect
                0x00000000c016f338                inet_twsk_schedule
                0x00000000c016f534                inet_twsk_alloc
                0x00000000c016f688                __inet_twsk_hashdance
                0x00000000c016f7d0                inet_twsk_put
                0x00000000c016f948                inet_twdr_twcal_tick
                0x00000000c016fb04                inet_twsk_deschedule
                0x00000000c016fba8                inet_twsk_purge
                0x00000000c016fdc0                inet_twdr_twkill_work
                0x00000000c016fea0                inet_twdr_hangman
                0x00000000c016ff8c                inet_csk_addr2sockaddr
                0x00000000c016ffb8                inet_csk_bind_conflict
                0x00000000c0170084                inet_get_local_port_range
                0x00000000c01700d4                inet_csk_search_req
                0x00000000c01701cc                inet_csk_listen_start
                0x00000000c01702c0                inet_csk_destroy_sock
                0x00000000c0170410                inet_csk_clone
                0x00000000c017049c                inet_csk_route_req
                0x00000000c0170604                inet_csk_reset_keepalive_timer
                0x00000000c017062c                inet_csk_reqsk_queue_prune
                0x00000000c01708b4                inet_csk_reqsk_queue_hash_add
                0x00000000c01709dc                inet_csk_delete_keepalive_timer
                0x00000000c01709f4                inet_csk_listen_stop
                0x00000000c0170b9c                inet_csk_clear_xmit_timers
                0x00000000c0170be0                inet_csk_init_xmit_timers
                0x00000000c0170c38                inet_csk_accept
                0x00000000c0170e20                inet_csk_get_port
                0x00000000c0171144                tcp_poll
                0x00000000c01712c8                tcp_tso_segment
                0x00000000c0171534                tcp_get_info
                0x00000000c0171720                tcp_ioctl
                0x00000000c0171888                tcp_enter_memory_pressure
                0x00000000c01719dc                tcp_set_state
                0x00000000c0171b5c                tcp_done
                0x00000000c0171be8                tcp_disconnect
                0x00000000c0171f30                tcp_close
                0x00000000c01723f8                tcp_shutdown
                0x00000000c0172490                tcp_getsockopt
                0x00000000c01727dc                sk_stream_alloc_skb
                0x00000000c01728dc                tcp_sendmsg
                0x00000000c01734d0                tcp_sendpage
                0x00000000c0173b50                tcp_cleanup_rbuf
                0x00000000c0173c74                tcp_setsockopt
                0x00000000c0174084                tcp_recvmsg
                0x00000000c0174958                tcp_read_sock
                0x00000000c0174b50                tcp_splice_read
                0x00000000c0174f44                tcp_initialize_rcv_mss
                0x00000000c01764c0                tcp_parse_options
                0x00000000c01772a8                tcp_enter_quickack_mode
                0x00000000c01779bc                tcp_rcv_space_adjust
                0x00000000c0178780                tcp_update_metrics
                0x00000000c017897c                tcp_init_cwnd
                0x00000000c01789dc                tcp_enter_cwr
                0x00000000c0178aac                tcp_skb_mark_lost_uncond_verify
                0x00000000c0179610                tcp_limit_reno_sacked
                0x00000000c0179654                tcp_use_frto
                0x00000000c0179710                tcp_enter_frto
                0x00000000c0179944                tcp_clear_retrans
                0x00000000c0179970                tcp_enter_loss
                0x00000000c017b764                tcp_rcv_state_process
                0x00000000c017c214                tcp_rcv_established
                0x00000000c017c814                tcp_cwnd_application_limited
                0x00000000c017c8f0                tcp_select_initial_window
                0x00000000c017cb48                tcp_mtup_init
                0x00000000c017cf9c                tcp_make_synack
                0x00000000c017d448                tcp_fragment
                0x00000000c017d934                tcp_mtu_to_mss
                0x00000000c017d990                tcp_sync_mss
                0x00000000c017da18                tcp_mss_to_mtu
                0x00000000c017da50                tcp_current_mss
                0x00000000c017dba0                tcp_trim_head
                0x00000000c017dcc8                tcp_may_send_now
                0x00000000c017dd24                __tcp_select_window
                0x00000000c017e660                tcp_connect
                0x00000000c017e9ec                tcp_push_one
                0x00000000c017eb40                __tcp_push_pending_frames
                0x00000000c017f370                tcp_retransmit_skb
                0x00000000c017f958                tcp_xmit_retransmit_queue
                0x00000000c017fba4                tcp_simple_retransmit
                0x00000000c017fd44                tcp_send_fin
                0x00000000c017feec                tcp_send_active_reset
                0x00000000c01800bc                tcp_send_synack
                0x00000000c0180298                tcp_send_ack
                0x00000000c0180390                tcp_send_delayed_ack
                0x00000000c0180478                tcp_write_wakeup
                0x00000000c0180600                tcp_send_probe0
                0x00000000c0180704                tcp_init_xmit_timers
                0x00000000c01813dc                tcp_set_keepalive
                0x00000000c01816f8                tcp_v4_send_check
                0x00000000c0181c94                tcp_proc_unregister
                0x00000000c0181ccc                tcp_proc_register
                0x00000000c0182630                tcp_v4_destroy_sock
                0x00000000c01827fc                tcp_twsk_unique
                0x00000000c01828a8                tcp_v4_remember_stamp
                0x00000000c0182994                tcp_v4_do_rcv
                0x00000000c0182b68                tcp_v4_syn_recv_sock
                0x00000000c0182cf0                tcp_v4_connect
                0x00000000c0183320                tcp_v4_conn_request
                0x00000000c01837a0                tcp_v4_err
                0x00000000c0183c0c                tcp_v4_gso_send_check
                0x00000000c0183cb8                tcp_v4_rcv
                0x00000000c0184430                tcp_v4_tw_remember_stamp
                0x00000000c01844b4                tcp4_proc_exit
                0x00000000c01844d0                tcp_twsk_destructor
                0x00000000c01844e0                tcp_child_process
                0x00000000c01845cc                tcp_check_req
                0x00000000c0184a04                tcp_create_openreq_child
                0x00000000c0184d0c                tcp_timewait_state_process
                0x00000000c01850ac                tcp_time_wait
                0x00000000c018521c                tcp_is_cwnd_limited
                0x00000000c018529c                tcp_slow_start
                0x00000000c0185350                tcp_reno_cong_avoid
                0x00000000c0185400                tcp_reno_ssthresh
                0x00000000c0185420                tcp_reno_min_cwnd
                0x00000000c0185438                tcp_unregister_congestion_control
                0x00000000c0185500                tcp_register_congestion_control
                0x00000000c01855e8                tcp_init_congestion_control
                0x00000000c018571c                tcp_cleanup_congestion_control
                0x00000000c0185750                tcp_set_default_congestion_control
                0x00000000c018584c                tcp_get_available_congestion_control
                0x00000000c0185920                tcp_get_default_congestion_control
                0x00000000c018598c                tcp_get_allowed_congestion_control
                0x00000000c0185a60                tcp_set_allowed_congestion_control
                0x00000000c0185ba4                tcp_set_congestion_control
                0x00000000c0185d5c                ip4_datagram_connect
                0x00000000c0185ffc                raw_seq_start
                0x00000000c0186134                raw_seq_next
                0x00000000c0186264                raw_seq_stop
                0x00000000c018689c                raw_seq_open
                0x00000000c01868f8                raw_hash_sk
                0x00000000c0186994                raw_unhash_sk
                0x00000000c018729c                raw_icmp_error
                0x00000000c0187438                raw_rcv
                0x00000000c0187558                raw_local_deliver
                0x00000000c01878f8                udp_ioctl
                0x00000000c0187b2c                udp4_seq_show
                0x00000000c0187c74                udp_proc_unregister
                0x00000000c0187cac                udp_proc_register
                0x00000000c0187de0                udp_poll
                0x00000000c0187f20                udp_lib_getsockopt
                0x00000000c0188030                udp_getsockopt
                0x00000000c018845c                udp_lib_setsockopt
                0x00000000c01885fc                udp_setsockopt
                0x00000000c0188644                udp_disconnect
                0x00000000c01886f8                udp_recvmsg
                0x00000000c0188a34                udp_flush_pending_frames
                0x00000000c0188a68                udp_destroy_sock
                0x00000000c0188a94                udp_sendmsg
                0x00000000c018913c                udp_sendpage
                0x00000000c0189368                udp_lib_get_port
                0x00000000c01894fc                udp_v4_get_port
                0x00000000c0189694                udp4_lib_lookup
                0x00000000c01896d8                __udp4_lib_err
                0x00000000c0189860                udp_err
                0x00000000c018987c                udp_queue_rcv_skb
                0x00000000c0189b48                __udp4_lib_rcv
                0x00000000c018a424                udp_rcv
                0x00000000c018a444                udp4_proc_exit
                0x00000000c018a780                arp_xmit
                0x00000000c018aa24                arp_create
                0x00000000c018ac04                arp_send
                0x00000000c018b6b0                arp_mc_map
                0x00000000c018ba10                arp_find
                0x00000000c018bc24                arp_bind_neighbour
                0x00000000c018bcb4                arp_ioctl
                0x00000000c018c28c                arp_ifdown
                0x00000000c018c2ac                xrlim_allow
                0x00000000c018cdcc                icmp_send
                0x00000000c018d308                icmp_out_count
                0x00000000c018d3d0                icmp_rcv
                0x00000000c018d790                in_dev_finish_destroy
                0x00000000c018e4f4                inet_select_addr
                0x00000000c018eaac                ipv4_doint_and_flush_strategy
                0x00000000c018eaf4                ipv4_doint_and_flush
                0x00000000c018eb58                inetdev_by_index
                0x00000000c018edb0                unregister_inetaddr_notifier
                0x00000000c018edd0                register_inetaddr_notifier
                0x00000000c018f3f0                inet_addr_onlink
                0x00000000c018f4b8                inet_ifa_byprefix
                0x00000000c018f558                devinet_ioctl
                0x00000000c018fcb4                inet_confirm_addr
                0x00000000c018fdcc                snmp_fold_field
                0x00000000c0190268                inet_sendmsg
                0x00000000c01902dc                inet_dgram_connect
                0x00000000c0190368                inet_shutdown
                0x00000000c0190498                snmp_mib_free
                0x00000000c01904d0                snmp_mib_init
                0x00000000c0190544                inet_ctl_sock_create
                0x00000000c01905a4                inet_sk_rebuild_header
                0x00000000c0190890                inet_accept
                0x00000000c0190968                inet_unregister_protosw
                0x00000000c01909e4                inet_register_protosw
                0x00000000c0190acc                inet_ioctl
                0x00000000c0190c94                inet_getname
                0x00000000c0190d38                inet_stream_connect
                0x00000000c0190fd0                inet_bind
                0x00000000c01911f0                inet_release
                0x00000000c0191268                build_ehash_secret
                0x00000000c0191688                inet_listen
                0x00000000c0191718                inet_sock_destruct
                0x00000000c01918b8                ip_mc_rejoin_group
                0x00000000c01927c8                ip_mc_dec_group
                0x00000000c0192928                ip_mc_inc_group
                0x00000000c0193110                ip_mc_join_group
                0x00000000c019321c                ip_mc_down
                0x00000000c0193290                ip_mc_init_dev
                0x00000000c01932dc                ip_mc_up
                0x00000000c0193350                ip_mc_destroy_dev
                0x00000000c0193410                ip_mc_leave_group
                0x00000000c0193514                ip_mc_source
                0x00000000c01938e0                ip_mc_msfilter
                0x00000000c0193b0c                ip_mc_msfget
                0x00000000c0193c8c                ip_mc_gsfget
                0x00000000c0193e30                ip_mc_sf_allow
                0x00000000c0193f28                ip_mc_drop_socket
                0x00000000c0194000                ip_check_mc
                0x00000000c019424c                inet_dev_addr_type
                0x00000000c0194334                inet_addr_type
                0x00000000c01943fc                ip_dev_find
                0x00000000c0194a1c                fib_select_default
                0x00000000c0194a58                fib_validate_source
                0x00000000c0194dac                ip_rt_ioctl
                0x00000000c0195214                fib_add_ifaddr
                0x00000000c0195758                free_fib_info
                0x00000000c01957d4                fib_release_info
                0x00000000c0195904                ip_fib_check_default
                0x00000000c01959ec                fib_find_alias
                0x00000000c0195a60                fib_detect_death
                0x00000000c0195b38                fib_nh_match
                0x00000000c0195bac                fib_create_info
                0x00000000c01965e0                fib_semantic_match
                0x00000000c0196718                __fib_res_prefsrc
                0x00000000c019673c                fib_dump_info
                0x00000000c019698c                rtmsg_fib
                0x00000000c0196ac4                fib_sync_down_addr
                0x00000000c0196b78                fib_sync_down_dev
                0x00000000c0196c88                inet_frags_init_net
                0x00000000c0196cb0                inet_frag_kill
                0x00000000c0196dac                inet_frags_fini
                0x00000000c0196dc4                inet_frag_destroy
                0x00000000c0196ee0                inet_frag_evictor
                0x00000000c0197068                inet_frags_exit_net
                0x00000000c019709c                inet_frags_init
                0x00000000c019724c                inet_frag_find
                0x00000000c019941c                fib_hash_table
                0x00000000c019a3d0                nf_ip_checksum
                0x00000000c019a59c                ip_xfrm_me_harder
                0x00000000c019a680                ip_route_me_harder
                0x00000000c019a924                inet_diag_unregister
                0x00000000c019a968                inet_diag_register
                0x00000000c019ced4                xfrm4_extract_header
                0x00000000c019cfa4                xfrm4_rcv_encap
                0x00000000c019cfc8                xfrm4_rcv
                0x00000000c019cfec                xfrm4_extract_input
                0x00000000c019d004                xfrm4_transport_finish
                0x00000000c019d108                xfrm4_udp_encap_rcv
                0x00000000c019d30c                xfrm4_prepare_output
                0x00000000c019d368                xfrm4_extract_output
                0x00000000c019d408                xfrm4_output
                0x00000000c019d48c                xfrm_policy_walk_init
                0x00000000c019d4b8                xfrm_dst_ifdown
                0x00000000c019d584                xfrm_policy_walk_done
                0x00000000c019d5f4                xfrm_policy_walk
                0x00000000c019d760                xfrm_spd_getinfo
                0x00000000c019d7e8                xfrm_policy_unregister_afinfo
                0x00000000c019d88c                xfrm_policy_register_afinfo
                0x00000000c019dcfc                xfrm_policy_destroy
                0x00000000c019e030                xfrm_policy_delete
                0x00000000c019e148                xfrm_policy_flush
                0x00000000c019e3b4                xfrm_policy_byid
                0x00000000c019e58c                xfrm_policy_bysel_ctx
                0x00000000c019e750                xfrm_policy_alloc
                0x00000000c019eba8                xfrm_policy_insert
                0x00000000c019f0a0                __xfrm_decode_session
                0x00000000c019f77c                xfrm_selector_match
                0x00000000c019fb34                xfrm_bundle_ok
                0x00000000c019fea8                __xfrm_lookup
                0x00000000c01a0988                xfrm_lookup
                0x00000000c01a09bc                __xfrm_route_forward
                0x00000000c01a0a10                __xfrm_policy_check
                0x00000000c01a1310                xfrm_sk_policy_insert
                0x00000000c01a1440                __xfrm_sk_clone_policy
                0x00000000c01a1554                xfrm_state_walk_init
                0x00000000c01a1580                xfrm_state_walk_done
                0x00000000c01a15f0                xfrm_unregister_km
                0x00000000c01a1658                xfrm_register_km
                0x00000000c01a16b8                xfrm_state_walk
                0x00000000c01a1820                xfrm_get_acqseq
                0x00000000c01a1884                xfrm_find_acq_byseq
                0x00000000c01a18d4                xfrm_sad_getinfo
                0x00000000c01a1a70                xfrm_state_unregister_afinfo
                0x00000000c01a1afc                xfrm_state_register_afinfo
                0x00000000c01a1c74                km_report
                0x00000000c01a1d28                km_new_mapping
                0x00000000c01a1de0                km_query
                0x00000000c01a1e90                km_state_notify
                0x00000000c01a1f24                km_state_expired
                0x00000000c01a1f78                km_policy_notify
                0x00000000c01a2014                km_policy_expired
                0x00000000c01a21c0                xfrm_state_lookup
                0x00000000c01a23d4                xfrm_state_lookup_byaddr
                0x00000000c01a243c                xfrm_user_policy
                0x00000000c01a2b80                xfrm_state_check_expire
                0x00000000c01a2dd0                xfrm_state_insert
                0x00000000c01a2e20                xfrm_stateonly_find
                0x00000000c01a3060                __xfrm_state_destroy
                0x00000000c01a30f0                xfrm_alloc_spi
                0x00000000c01a3328                __xfrm_state_delete
                0x00000000c01a3484                xfrm_state_delete
                0x00000000c01a36c8                xfrm_state_delete_tunnel
                0x00000000c01a375c                xfrm_state_update
                0x00000000c01a39f8                xfrm_state_flush
                0x00000000c01a3b74                xfrm_state_alloc
                0x00000000c01a411c                xfrm_find_acq
                0x00000000c01a41a4                xfrm_state_add
                0x00000000c01a43e0                xfrm_unregister_mode
                0x00000000c01a4450                xfrm_unregister_type
                0x00000000c01a449c                xfrm_register_type
                0x00000000c01a44e8                xfrm_register_mode
                0x00000000c01a4710                xfrm_init_state
                0x00000000c01a495c                xfrm_state_find
                0x00000000c01a4fa8                xfrm_replay_notify
                0x00000000c01a5194                xfrm_replay_check
                0x00000000c01a521c                xfrm_replay_advance
                0x00000000c01a5300                xfrm_state_mtu
                0x00000000c01a539c                xfrm_hash_alloc
                0x00000000c01a5418                xfrm_hash_free
                0x00000000c01a5478                xfrm_prepare_input
                0x00000000c01a5524                secpath_dup
                0x00000000c01a55c4                __secpath_destroy
                0x00000000c01a564c                xfrm_parse_spi
                0x00000000c01a5788                xfrm_input
                0x00000000c01a5b94                xfrm_input_resume
                0x00000000c01a5bb0                xfrm_inner_extract_output
                0x00000000c01a5c4c                xfrm_output_resume
                0x00000000c01a6004                xfrm_output
                0x00000000c01a60f4                xfrm_aalg_get_byidx
                0x00000000c01a611c                xfrm_ealg_get_byidx
                0x00000000c01a6144                xfrm_count_auth_supported
                0x00000000c01a6184                xfrm_count_enc_supported
                0x00000000c01a61c4                skb_icv_walk
                0x00000000c01a63d4                xfrm_probe_algs
                0x00000000c01a65ac                xfrm_aead_get_byname
                0x00000000c01a65e8                xfrm_calg_get_byname
                0x00000000c01a6614                xfrm_ealg_get_byname
                0x00000000c01a6640                xfrm_aalg_get_byname
                0x00000000c01a666c                xfrm_calg_get_byid
                0x00000000c01a6698                xfrm_ealg_get_byid
                0x00000000c01a66c4                xfrm_aalg_get_byid
                0x00000000c01aa41c                unix_inflight
                0x00000000c01aa4f0                unix_notinflight
                0x00000000c01aa5a4                wait_for_unix_gc
                0x00000000c01aa638                unix_gc
                0x00000000c01aa9c8                unix_sysctl_register
                0x00000000c01aaa38                unix_sysctl_unregister
                0x00000000c01ad9b4                unregister_net_sysctl_table
                0x00000000c01ad9c8                register_net_sysctl_rotable
                0x00000000c01ad9f4                register_net_sysctl_table
 .text          0x00000000c01ada5c      0x538 lib/lib.a(klist.o)
                0x00000000c01ada5c                klist_init
                0x00000000c01ada74                klist_node_attached
                0x00000000c01ada90                klist_iter_init
                0x00000000c01adaa8                klist_iter_init_node
                0x00000000c01adacc                klist_next
                0x00000000c01adc8c                klist_iter_exit
                0x00000000c01adcbc                klist_del
                0x00000000c01add40                klist_remove
                0x00000000c01addd0                klist_add_before
                0x00000000c01ade44                klist_add_after
                0x00000000c01adeb8                klist_add_tail
                0x00000000c01adf28                klist_add_head
 *(.ref.text)
 .ref.text      0x00000000c01adf94       0x88 init/built-in.o
 .ref.text      0x00000000c01ae01c      0x390 mm/built-in.o
 .ref.text      0x00000000c01ae3ac       0x2c fs/built-in.o
 .ref.text      0x00000000c01ae3d8       0x18 drivers/built-in.o
 .ref.text      0x00000000c01ae3f0      0x4b0 net/built-in.o
                0x00000000c01ae844                fib_proc_exit
 *(.text.init.refok)
 *(.exit.text.refok)
 *(.text.unlikely)
 .text.unlikely
                0x00000000c01ae8a0       0x14 arch/arm/kernel/built-in.o
                0x00000000c01ae8a0                dump_stack
 .text.unlikely
                0x00000000c01ae8b4      0x15c kernel/built-in.o
                0x00000000c01ae8b4                panic
                0x00000000c01ae9e0                printk
                0x00000000c01aea10                . = ALIGN (0x8)
                0x00000000c01aea10                __sched_text_start = .
 *(.sched.text)
 .sched.text    0x00000000c01aea10     0x22dc kernel/built-in.o
                0x00000000c01aea10                schedule
                0x00000000c01aedb8                io_schedule
                0x00000000c01aee0c                cond_resched_softirq
                0x00000000c01aee74                _cond_resched
                0x00000000c01aeed4                preempt_schedule
                0x00000000c01af040                sleep_on_timeout
                0x00000000c01af05c                sleep_on
                0x00000000c01af078                interruptible_sleep_on_timeout
                0x00000000c01af094                interruptible_sleep_on
                0x00000000c01af284                wait_for_completion_killable
                0x00000000c01af2a8                wait_for_completion_interruptible_timeout
                0x00000000c01af2c0                wait_for_completion_interruptible
                0x00000000c01af2e4                wait_for_completion_timeout
                0x00000000c01af2fc                wait_for_completion
                0x00000000c01af318                preempt_schedule_irq
                0x00000000c01af390                yield
                0x00000000c01af3bc                io_schedule_timeout
                0x00000000c01af410                console_conditional_schedule
                0x00000000c01af438                schedule_timeout
                0x00000000c01af50c                schedule_timeout_uninterruptible
                0x00000000c01af538                schedule_timeout_killable
                0x00000000c01af564                schedule_timeout_interruptible
                0x00000000c01af590                __wait_on_bit_lock
                0x00000000c01af628                out_of_line_wait_on_bit_lock
                0x00000000c01af6a0                __wait_on_bit
                0x00000000c01af760                out_of_line_wait_on_bit
                0x00000000c01af7d8                mutex_trylock
                0x00000000c01af964                mutex_lock_interruptible
                0x00000000c01afa88                mutex_lock
                0x00000000c01afc04                mutex_lock_killable
                0x00000000c01afc88                mutex_unlock
                0x00000000c01afdb4                hrtimer_nanosleep_restart
                0x00000000c01afe30                schedule_hrtimeout_range
                0x00000000c01affa8                schedule_hrtimeout
                0x00000000c01affc4                down_write
                0x00000000c01affd8                down_read
                0x00000000c01b0600                rt_mutex_unlock
                0x00000000c01b0c1c                rt_mutex_lock
                0x00000000c01b0c3c                rt_mutex_lock_interruptible
                0x00000000c01b0c5c                rt_mutex_trylock
 .sched.text    0x00000000c01b0cec      0x27c lib/lib.a(rwsem-spinlock.o)
                0x00000000c01b0cec                __down_write_nested
                0x00000000c01b0e1c                __down_write
                0x00000000c01b0e34                __down_read
                0x00000000c01b0f68                __sched_text_end = .
                0x00000000c01b0f68                . = ALIGN (0x8)
                0x00000000c01b0f68                __lock_text_start = .
 *(.spinlock.text)
 .spinlock.text
                0x00000000c01b0f68       0xf0 lib/built-in.o
                0x00000000c01b0f68                lock_kernel
                0x00000000c01b0fa8                unlock_kernel
                0x00000000c01b1004                __reacquire_kernel_lock
                0x00000000c01b1030                __release_kernel_lock
                0x00000000c01b1058                __lock_text_end = .
                0x00000000c01b1058                . = ALIGN (0x8)
                0x00000000c01b1058                __kprobes_text_start = .
 *(.kprobes.text)
                0x00000000c01b1058                __kprobes_text_end = .
 *(.fixup)
 .fixup         0x00000000c01b1058      0x228 arch/arm/kernel/built-in.o
 .fixup         0x00000000c01b1280      0x194 arch/arm/mm/built-in.o
 .fixup         0x00000000c01b1414      0x134 kernel/built-in.o
 .fixup         0x00000000c01b1548       0x34 mm/built-in.o
 .fixup         0x00000000c01b157c      0x1c0 fs/built-in.o
 .fixup         0x00000000c01b173c        0x4 arch/arm/lib/lib.a(clear_user.o)
 .fixup         0x00000000c01b1740       0x28 arch/arm/lib/lib.a(copy_from_user.o)
 .fixup         0x00000000c01b1768       0x1c arch/arm/lib/lib.a(copy_to_user.o)
 *fill*         0x00000000c01b1784        0xc 00
 .fixup         0x00000000c01b1790       0x30 arch/arm/lib/lib.a(csumpartialcopyuser.o)
 .fixup         0x00000000c01b17c0       0x10 arch/arm/lib/lib.a(strncpy_from_user.o)
 .fixup         0x00000000c01b17d0        0x8 arch/arm/lib/lib.a(strnlen_user.o)
 .fixup         0x00000000c01b17d8        0xc lib/built-in.o
 .fixup         0x00000000c01b17e4       0x18 net/built-in.o
 *(.gnu.warning)
 *(.rodata)
 .rodata        0x00000000c01b17fc      0x428 init/built-in.o
                0x00000000c01b180c                linux_banner
                0x00000000c01b188c                linux_proc_banner
 .rodata        0x00000000c01b1c24      0x320 arch/arm/mach-GM/platform-GM8126/built-in.o
                0x00000000c01b1c24                UART_FTUART010_irq
                0x00000000c01b1c2c                TIMER_FTTMR010_irq
                0x00000000c01b1c30                NAND_FTNAND023_irq
                0x00000000c01b1c34                USB_FOTG2XX_irq
                0x00000000c01b1c38                DMAC_FTDMAC020_irq
                0x00000000c01b1c40                APBBRG_FTAPBBRG020S_irq
                0x00000000c01b1c44                CPU_MEM_pa_base
                0x00000000c01b1c48                CPU_MEM_pa_limit
                0x00000000c01b1c4c                CPU_MEM_pa_size
                0x00000000c01b1c50                PMU_FTPMU010_pa_base
                0x00000000c01b1c54                PMU_FTPMU010_pa_limit
                0x00000000c01b1c58                PMU_FTPMU010_pa_size
                0x00000000c01b1c5c                PMU_FTPMU010_va_base
                0x00000000c01b1c60                PMU_FTPMU010_va_limit
                0x00000000c01b1c64                PMU_FTPMU010_va_size
                0x00000000c01b1c68                DDRC_FTDDRC010_pa_base
                0x00000000c01b1c6c                DDRC_FTDDRC010_pa_limit
                0x00000000c01b1c70                DDRC_FTDDRC010_pa_size
                0x00000000c01b1c74                DDRC_FTDDRC010_va_base
                0x00000000c01b1c78                DDRC_FTDDRC010_va_limit
                0x00000000c01b1c7c                DDRC_FTDDRC010_va_size
                0x00000000c01b1c80                AHBC_FTAHBC010_pa_base
                0x00000000c01b1cac                AHBC_FTAHBC010_pa_limit
                0x00000000c01b1cd8                AHBC_FTAHBC010_pa_size
                0x00000000c01b1d04                AHBC_FTAHBC010_va_base
                0x00000000c01b1d30                AHBC_FTAHBC010_va_limit
                0x00000000c01b1d5c                AHBC_FTAHBC010_va_size
                0x00000000c01b1d88                UART_FTUART010_pa_base
                0x00000000c01b1d9c                UART_FTUART010_pa_limit
                0x00000000c01b1db0                UART_FTUART010_pa_size
                0x00000000c01b1dc4                UART_FTUART010_va_base
                0x00000000c01b1dd8                UART_FTUART010_va_limit
                0x00000000c01b1dec                UART_FTUART010_va_size
                0x00000000c01b1e00                TIMER_FTTMR010_pa_base
                0x00000000c01b1e04                TIMER_FTTMR010_pa_limit
                0x00000000c01b1e08                TIMER_FTTMR010_pa_size
                0x00000000c01b1e0c                TIMER_FTTMR010_va_base
                0x00000000c01b1e10                TIMER_FTTMR010_va_limit
                0x00000000c01b1e14                TIMER_FTTMR010_va_size
                0x00000000c01b1e18                INTC_FTINTC010_pa_base
                0x00000000c01b1e1c                INTC_FTINTC010_pa_limit
                0x00000000c01b1e20                INTC_FTINTC010_pa_size
                0x00000000c01b1e24                INTC_FTINTC010_va_base
                0x00000000c01b1e28                INTC_FTINTC010_va_limit
                0x00000000c01b1e2c                INTC_FTINTC010_va_size
                0x00000000c01b1e30                SRAM_FTSMC010_pa_base
                0x00000000c01b1e34                SRAM_FTSMC010_pa_limit
                0x00000000c01b1e38                SRAM_FTSMC010_pa_size
                0x00000000c01b1e3c                SRAM_FTSMC010_va_base
                0x00000000c01b1e40                SRAM_FTSMC010_va_limit
                0x00000000c01b1e44                SRAM_FTSMC010_va_size
                0x00000000c01b1e48                NAND_FTNAND023_pa_base
                0x00000000c01b1e4c                NAND_FTNAND023_pa_limit
                0x00000000c01b1e50                NAND_FTNAND023_pa_size
                0x00000000c01b1e54                NAND_FTNAND023_va_base
                0x00000000c01b1e58                NAND_FTNAND023_va_limit
                0x00000000c01b1e5c                NAND_FTNAND023_va_size
                0x00000000c01b1e60                NANDDP_FTNAND023_pa_base
                0x00000000c01b1e64                NANDDP_FTNAND023_pa_limit
                0x00000000c01b1e68                NANDDP_FTNAND023_pa_size
                0x00000000c01b1e6c                NANDDP_FTNAND023_va_base
                0x00000000c01b1e70                NANDDP_FTNAND023_va_limit
                0x00000000c01b1e74                NANDDP_FTNAND023_va_size
                0x00000000c01b1e78                USB_FOTG2XX_pa_base
                0x00000000c01b1e7c                USB_FOTG2XX_pa_limit
                0x00000000c01b1e80                USB_FOTG2XX_pa_size
                0x00000000c01b1e84                USB_FOTG2XX_va_base
                0x00000000c01b1e88                USB_FOTG2XX_va_limit
                0x00000000c01b1e8c                USB_FOTG2XX_va_size
                0x00000000c01b1e90                DMAC_FTDMAC020_pa_base
                0x00000000c01b1e94                DMAC_FTDMAC020_pa_limit
                0x00000000c01b1e98                DMAC_FTDMAC020_pa_size
                0x00000000c01b1e9c                DMAC_FTDMAC020_va_base
                0x00000000c01b1ea0                DMAC_FTDMAC020_va_limit
                0x00000000c01b1ea4                DMAC_FTDMAC020_va_size
                0x00000000c01b1ea8                APBBRG_FTAPBBRG020S_pa_base
                0x00000000c01b1eac                APBBRG_FTAPBBRG020S_pa_limit
                0x00000000c01b1eb0                APBBRG_FTAPBBRG020S_pa_size
                0x00000000c01b1eb4                APBBRG_FTAPBBRG020S_va_base
                0x00000000c01b1eb8                APBBRG_FTAPBBRG020S_va_limit
                0x00000000c01b1ebc                APBBRG_FTAPBBRG020S_va_size
 .rodata        0x00000000c01b1f44      0x16c arch/arm/kernel/built-in.o
                0x00000000c01b2074                cpuinfo_op
                0x00000000c01b2084                sigreturn_codes
 .rodata        0x00000000c01b20b0       0x8c arch/arm/mm/built-in.o
 .rodata        0x00000000c01b213c       0x94 arch/arm/mach-GM/built-in.o
 .rodata        0x00000000c01b21d0     0x2318 kernel/built-in.o
                0x00000000c01b24c0                cpu_bit_bitmap
                0x00000000c01b2544                cpu_all_bits
                0x00000000c01b2638                __cap_empty_set
                0x00000000c01b2640                __cap_full_set
                0x00000000c01b2648                __cap_init_eff_set
 .rodata        0x00000000c01b44e8      0x944 mm/built-in.o
 .rodata        0x00000000c01b4e2c     0x861c fs/built-in.o
                0x00000000c01b4e38                generic_ro_fops
                0x00000000c01b4ea4                def_chr_fops
                0x00000000c01b4f2c                rdwr_pipefifo_fops
                0x00000000c01b4f98                write_pipefifo_fops
                0x00000000c01b5004                read_pipefifo_fops
                0x00000000c01b5078                page_symlink_inode_operations
                0x00000000c01b50ec                def_fifo_fops
                0x00000000c01b530c                mounts_op
                0x00000000c01b531c                mountinfo_op
                0x00000000c01b532c                mountstats_op
                0x00000000c01b5380                simple_dir_inode_operations
                0x00000000c01b53dc                simple_dir_operations
                0x00000000c01b5518                def_blk_fops
                0x00000000c01b5868                proc_maps_operations
                0x00000000c01b58d4                proc_smaps_operations
                0x00000000c01b5940                proc_clear_refs_operations
                0x00000000c01b59ac                proc_pagemap_operations
                0x00000000c01b7168                proc_net_inode_operations
                0x00000000c01b71c4                proc_net_operations
                0x00000000c01b7458                sysfs_file_operations
                0x00000000c01b74c4                sysfs_dir_inode_operations
                0x00000000c01b7520                sysfs_dir_operations
                0x00000000c01b758c                sysfs_symlink_inode_operations
                0x00000000c01b7640                bin_fops
                0x00000000c01b7718                squashfs_dir_ops
                0x00000000c01b7784                squashfs_export_ops
                0x00000000c01b7798                squashfs_aops
                0x00000000c01b77d8                squashfs_dir_inode_ops
                0x00000000c01b7834                squashfs_symlink_aops
                0x00000000c01b7914                ramfs_aops
                0x00000000c01b7954                ramfs_file_operations
                0x00000000c01b79c0                ramfs_file_inode_operations
                0x00000000c01bd380                debugfs_file_operations
                0x00000000c01bd3ec                debugfs_link_operations
 .rodata        0x00000000c01bd448       0xd8 ipc/built-in.o
 .rodata        0x00000000c01bd520      0x234 block/built-in.o
                0x00000000c01bd74c                scsi_command_size_tbl
 .rodata        0x00000000c01bd754       0x30 lib/lib.a(kobject.o)
 .rodata        0x00000000c01bd784        0xc lib/lib.a(ratelimit.o)
 .rodata        0x00000000c01bd790       0x10 lib/lib.a(vsprintf.o)
 .rodata        0x00000000c01bd7a0     0x1514 lib/built-in.o
                0x00000000c01bd7a0                hex_asc
                0x00000000c01bd80c                byte_rev_table
                0x00000000c01bd90c                crc_ccitt_table
 .rodata        0x00000000c01becb4     0x1c60 drivers/built-in.o
                0x00000000c01bf0f4                random_fops
                0x00000000c01bf160                urandom_fops
                0x00000000c01bf42c                tty_ldiscs_proc_fops
 *fill*         0x00000000c01c0914        0xc 00
 .rodata        0x00000000c01c0920     0x17e0 net/built-in.o
                0x00000000c01c098c                bad_sock_fops
                0x00000000c01c0d7c                ifla_policy
                0x00000000c01c0ea0                eth_header_ops
                0x00000000c01c1214                ip_tos2prio
                0x00000000c01c1224                inet_csk_timer_bug_msg
                0x00000000c01c143c                inet_stream_ops
                0x00000000c01c1494                inet_dgram_ops
                0x00000000c01c163c                rtm_ipv4_policy
 *(.rodata.*)
 .rodata.str1.4
                0x00000000c01c2100      0xce2 init/built-in.o
                                        0xedc (size before relaxing)
 *fill*         0x00000000c01c2de2        0x2 00
 .rodata.str1.4
                0x00000000c01c2de4      0x2ca arch/arm/mach-GM/platform-GM8126/built-in.o
                                        0x2d8 (size before relaxing)
 *fill*         0x00000000c01c30ae        0x2 00
 .rodata.str1.4
                0x00000000c01c30b0      0xcf6 arch/arm/kernel/built-in.o
                                        0xd38 (size before relaxing)
 *fill*         0x00000000c01c3da6        0x2 00
 .rodata.str1.4
                0x00000000c01c3da8      0xd3c arch/arm/mm/built-in.o
                                        0xd68 (size before relaxing)
 .rodata.str1.4
                0x00000000c01c4ae4      0x7bd arch/arm/mach-GM/built-in.o
                                        0x7c4 (size before relaxing)
 *fill*         0x00000000c01c52a1        0x3 00
 .rodata.str1.4
                0x00000000c01c52a4     0x2533 kernel/built-in.o
                                       0x2644 (size before relaxing)
 *fill*         0x00000000c01c77d7        0x1 00
 .rodata.str1.4
                0x00000000c01c77d8     0x1dba mm/built-in.o
                                       0x1ea0 (size before relaxing)
 *fill*         0x00000000c01c9592        0x2 00
 .rodata.str1.4
                0x00000000c01c9594     0x27d6 fs/built-in.o
                                       0x2ad8 (size before relaxing)
 *fill*         0x00000000c01cbd6a        0x2 00
 .rodata.str1.4
                0x00000000c01cbd6c      0x2a8 ipc/built-in.o
                                        0x2b4 (size before relaxing)
 .rodata.str1.4
                0x00000000c01cc014       0x14 security/built-in.o
                                         0x20 (size before relaxing)
 .rodata.str1.4
                0x00000000c01cc028       0x1c crypto/built-in.o
 .rodata.str1.4
                0x00000000c01cc044      0xa83 block/built-in.o
                                        0xb34 (size before relaxing)
 *fill*         0x00000000c01ccac7        0x1 00
 .rodata.str1.4
                0x00000000c01ccac8       0x80 lib/lib.a(idr.o)
 .rodata.str1.4
                0x00000000c01ccb48      0x292 lib/lib.a(kobject.o)
                                        0x298 (size before relaxing)
 *fill*         0x00000000c01ccdda        0x2 00
 .rodata.str1.4
                0x00000000c01ccddc        0xb lib/lib.a(kref.o)
                                          0xc (size before relaxing)
 *fill*         0x00000000c01ccde7        0x1 00
 .rodata.str1.4
                0x00000000c01ccde8        0xb lib/lib.a(proportions.o)
                                          0xc (size before relaxing)
 *fill*         0x00000000c01ccdf3        0x1 00
 .rodata.str1.4
                0x00000000c01ccdf4       0x10 lib/lib.a(radix-tree.o)
 .rodata.str1.4
                0x00000000c01cce04       0x20 lib/lib.a(ratelimit.o)
 .rodata.str1.4
                0x00000000c01cce24       0x17 lib/lib.a(vsprintf.o)
                                         0x18 (size before relaxing)
 *fill*         0x00000000c01cce3b        0x1 00
 .rodata.str1.4
                0x00000000c01cce3c      0x24e lib/built-in.o
                                        0x2c0 (size before relaxing)
 *fill*         0x00000000c01cd08a        0x2 00
 .rodata.str1.4
                0x00000000c01cd08c     0x402e drivers/built-in.o
                                       0x4528 (size before relaxing)
 *fill*         0x00000000c01d10ba        0x2 00
 .rodata.str1.4
                0x00000000c01d10bc     0x437d net/built-in.o
                                       0x4644 (size before relaxing)
 *fill*         0x00000000c01d5439        0x3 00
 .rodata.str1.4
                0x00000000c01d543c        0xc lib/lib.a(klist.o)
 *(.glue_7)
 .glue_7        0x0000000000000000        0x0 linker stubs
 *(.glue_7t)
 .glue_7t       0x0000000000000000        0x0 linker stubs
 *(.got)

.vfp11_veneer   0x00000000c01d5448        0x0
 .vfp11_veneer  0x0000000000000000        0x0 linker stubs

.v4_bx          0x00000000c01d5448        0x0
 .v4_bx         0x0000000000000000        0x0 linker stubs
                0x00000000c01d6000                . = ALIGN (0x1000)

.rodata         0x00000000c01d6000        0x0
                0x00000000c01d6000                __start_rodata = .
 *(.rodata)
 *(.rodata.*)
 *(__vermagic)
 *(__markers_strings)
 *(__tracepoints_strings)

.rodata1
 *(.rodata1)

.pci_fixup      0x00000000c01d6000        0x0
                0x00000000c01d6000                __start_pci_fixups_early = .
 *(.pci_fixup_early)
                0x00000000c01d6000                __end_pci_fixups_early = .
                0x00000000c01d6000                __start_pci_fixups_header = .
 *(.pci_fixup_header)
                0x00000000c01d6000                __end_pci_fixups_header = .
                0x00000000c01d6000                __start_pci_fixups_final = .
 *(.pci_fixup_final)
                0x00000000c01d6000                __end_pci_fixups_final = .
                0x00000000c01d6000                __start_pci_fixups_enable = .
 *(.pci_fixup_enable)
                0x00000000c01d6000                __end_pci_fixups_enable = .
                0x00000000c01d6000                __start_pci_fixups_resume = .
 *(.pci_fixup_resume)
                0x00000000c01d6000                __end_pci_fixups_resume = .
                0x00000000c01d6000                __start_pci_fixups_resume_early = .
 *(.pci_fixup_resume_early)
                0x00000000c01d6000                __end_pci_fixups_resume_early = .
                0x00000000c01d6000                __start_pci_fixups_suspend = .
 *(.pci_fixup_suspend)
                0x00000000c01d6000                __end_pci_fixups_suspend = .

.builtin_fw     0x00000000c01d6000        0x0
                0x00000000c01d6000                __start_builtin_fw = .
 *(.builtin_fw)
                0x00000000c01d6000                __end_builtin_fw = .

.rio_route      0x00000000c01d6000        0x0
                0x00000000c01d6000                __start_rio_route_ops = .
 *(.rio_route_ops)
                0x00000000c01d6000                __end_rio_route_ops = .

__ksymtab       0x00000000c01d6000     0x4450
                0x00000000c01d6000                __start___ksymtab = .
 *(__ksymtab)
 __ksymtab      0x00000000c01d6000       0x10 arch/arm/kernel/init_task.o
 __ksymtab      0x00000000c01d6010       0x18 init/built-in.o
 __ksymtab      0x00000000c01d6028      0x2b0 arch/arm/mach-GM/platform-GM8126/built-in.o
 __ksymtab      0x00000000c01d62d8      0x338 arch/arm/kernel/built-in.o
 __ksymtab      0x00000000c01d6610       0xe8 arch/arm/mm/built-in.o
 __ksymtab      0x00000000c01d66f8      0x1d8 arch/arm/mach-GM/built-in.o
 __ksymtab      0x00000000c01d68d0      0x8f8 kernel/built-in.o
 __ksymtab      0x00000000c01d71c8      0x4d8 mm/built-in.o
 __ksymtab      0x00000000c01d76a0      0xc38 fs/built-in.o
 __ksymtab      0x00000000c01d82d8        0x8 security/built-in.o
 __ksymtab      0x00000000c01d82e0      0x348 block/built-in.o
 __ksymtab      0x00000000c01d8628       0x10 lib/lib.a(argv_split.o)
 __ksymtab      0x00000000c01d8638       0x18 lib/lib.a(cmdline.o)
 __ksymtab      0x00000000c01d8650        0x8 lib/lib.a(ctype.o)
 __ksymtab      0x00000000c01d8658        0x8 lib/lib.a(dec_and_lock.o)
 __ksymtab      0x00000000c01d8660       0x80 lib/lib.a(idr.o)
 __ksymtab      0x00000000c01d86e0        0x8 lib/lib.a(int_sqrt.o)
 __ksymtab      0x00000000c01d86e8        0x8 lib/lib.a(irq_regs.o)
 __ksymtab      0x00000000c01d86f0       0x40 lib/lib.a(kobject.o)
 __ksymtab      0x00000000c01d8730       0x20 lib/lib.a(kref.o)
 __ksymtab      0x00000000c01d8750       0x68 lib/lib.a(radix-tree.o)
 __ksymtab      0x00000000c01d87b8        0x8 lib/lib.a(ratelimit.o)
 __ksymtab      0x00000000c01d87c0       0x38 lib/lib.a(rbtree.o)
 __ksymtab      0x00000000c01d87f8       0x48 lib/lib.a(rwsem-spinlock.o)
 __ksymtab      0x00000000c01d8840       0xb8 lib/lib.a(string.o)
 __ksymtab      0x00000000c01d88f8       0x78 lib/lib.a(vsprintf.o)
 __ksymtab      0x00000000c01d8970      0x2d8 lib/built-in.o
 __ksymtab      0x00000000c01d8c48      0x5a0 drivers/built-in.o
 __ksymtab      0x00000000c01d91e8     0x1268 net/built-in.o
                0x00000000c01da450                __stop___ksymtab = .

__ksymtab_gpl   0x00000000c01da450     0x1570
                0x00000000c01da450                __start___ksymtab_gpl = .
 *(__ksymtab_gpl)
 __ksymtab_gpl  0x00000000c01da450        0x8 init/built-in.o
 __ksymtab_gpl  0x00000000c01da458       0x10 arch/arm/kernel/built-in.o
 __ksymtab_gpl  0x00000000c01da468      0x3c0 kernel/built-in.o
 __ksymtab_gpl  0x00000000c01da828       0xf0 mm/built-in.o
 __ksymtab_gpl  0x00000000c01da918      0x318 fs/built-in.o
 __ksymtab_gpl  0x00000000c01dac30       0x80 crypto/built-in.o
 __ksymtab_gpl  0x00000000c01dacb0       0xf0 block/built-in.o
 __ksymtab_gpl  0x00000000c01dada0       0x28 lib/lib.a(kobject.o)
 __ksymtab_gpl  0x00000000c01dadc8       0x18 lib/built-in.o
 __ksymtab_gpl  0x00000000c01dade0      0x7c8 drivers/built-in.o
 __ksymtab_gpl  0x00000000c01db5a8      0x3b8 net/built-in.o
 __ksymtab_gpl  0x00000000c01db960       0x60 lib/lib.a(klist.o)
                0x00000000c01db9c0                __stop___ksymtab_gpl = .

__ksymtab_unused
                0x00000000c01db9c0        0x0
                0x00000000c01db9c0                __start___ksymtab_unused = .
 *(__ksymtab_unused)
                0x00000000c01db9c0                __stop___ksymtab_unused = .

__ksymtab_unused_gpl
                0x00000000c01db9c0        0x0
                0x00000000c01db9c0                __start___ksymtab_unused_gpl = .
 *(__ksymtab_unused_gpl)
                0x00000000c01db9c0                __stop___ksymtab_unused_gpl = .

__ksymtab_gpl_future
                0x00000000c01db9c0        0x0
                0x00000000c01db9c0                __start___ksymtab_gpl_future = .
 *(__ksymtab_gpl_future)
                0x00000000c01db9c0                __stop___ksymtab_gpl_future = .

__kcrctab       0x00000000c01db9c0        0x0
                0x00000000c01db9c0                __start___kcrctab = .
 *(__kcrctab)
                0x00000000c01db9c0                __stop___kcrctab = .

__kcrctab_gpl   0x00000000c01db9c0        0x0
                0x00000000c01db9c0                __start___kcrctab_gpl = .
 *(__kcrctab_gpl)
                0x00000000c01db9c0                __stop___kcrctab_gpl = .

__kcrctab_unused
                0x00000000c01db9c0        0x0
                0x00000000c01db9c0                __start___kcrctab_unused = .
 *(__kcrctab_unused)
                0x00000000c01db9c0                __stop___kcrctab_unused = .

__kcrctab_unused_gpl
                0x00000000c01db9c0        0x0
                0x00000000c01db9c0                __start___kcrctab_unused_gpl = .
 *(__kcrctab_unused_gpl)
                0x00000000c01db9c0                __stop___kcrctab_unused_gpl = .

__kcrctab_gpl_future
                0x00000000c01db9c0        0x0
                0x00000000c01db9c0                __start___kcrctab_gpl_future = .
 *(__kcrctab_gpl_future)
                0x00000000c01db9c0                __stop___kcrctab_gpl_future = .

__ksymtab_strings
                0x00000000c01db9c0     0xc055
 *(__ksymtab_strings)
 __ksymtab_strings
                0x00000000c01db9c0       0x12 arch/arm/kernel/init_task.o
 __ksymtab_strings
                0x00000000c01db9d2       0x37 init/built-in.o
 __ksymtab_strings
                0x00000000c01dba09      0x797 arch/arm/mach-GM/platform-GM8126/built-in.o
 __ksymtab_strings
                0x00000000c01dc1a0      0x56e arch/arm/kernel/built-in.o
 __ksymtab_strings
                0x00000000c01dc70e      0x219 arch/arm/mm/built-in.o
 __ksymtab_strings
                0x00000000c01dc927      0x4dc arch/arm/mach-GM/built-in.o
 __ksymtab_strings
                0x00000000c01dce03     0x1be6 kernel/built-in.o
 __ksymtab_strings
                0x00000000c01de9e9      0xc59 mm/built-in.o
 __ksymtab_strings
                0x00000000c01df642     0x1df1 fs/built-in.o
 __ksymtab_strings
                0x00000000c01e1433       0x11 security/built-in.o
 __ksymtab_strings
                0x00000000c01e1444      0x119 crypto/built-in.o
 __ksymtab_strings
                0x00000000c01e155d      0x99b block/built-in.o
 __ksymtab_strings
                0x00000000c01e1ef8       0x15 lib/lib.a(argv_split.o)
 __ksymtab_strings
                0x00000000c01e1f0d       0x20 lib/lib.a(cmdline.o)
 __ksymtab_strings
                0x00000000c01e1f2d        0x7 lib/lib.a(ctype.o)
 __ksymtab_strings
                0x00000000c01e1f34       0x15 lib/lib.a(dec_and_lock.o)
 __ksymtab_strings
                0x00000000c01e1f49       0xc5 lib/lib.a(idr.o)
 __ksymtab_strings
                0x00000000c01e200e        0x9 lib/lib.a(int_sqrt.o)
 __ksymtab_strings
                0x00000000c01e2017       0x14 lib/lib.a(irq_regs.o)
 __ksymtab_strings
                0x00000000c01e202b       0xcc lib/lib.a(kobject.o)
 __ksymtab_strings
                0x00000000c01e20f7       0x25 lib/lib.a(kref.o)
 __ksymtab_strings
                0x00000000c01e211c      0x11d lib/lib.a(radix-tree.o)
 __ksymtab_strings
                0x00000000c01e2239        0xc lib/lib.a(ratelimit.o)
 __ksymtab_strings
                0x00000000c01e2245       0x4a lib/lib.a(rbtree.o)
 __ksymtab_strings
                0x00000000c01e228f       0x8a lib/lib.a(rwsem-spinlock.o)
 __ksymtab_strings
                0x00000000c01e2319       0xbd lib/lib.a(string.o)
 __ksymtab_strings
                0x00000000c01e23d6       0xb1 lib/lib.a(vsprintf.o)
 __ksymtab_strings
                0x00000000c01e2487      0x572 lib/built-in.o
 __ksymtab_strings
                0x00000000c01e29f9     0x1f23 drivers/built-in.o
 __ksymtab_strings
                0x00000000c01e491c     0x3044 net/built-in.o
 __ksymtab_strings
                0x00000000c01e7960       0xb5 lib/lib.a(klist.o)

__init_rodata
 *(.ref.rodata)

__param         0x00000000c01e7a18      0x5e8
                0x00000000c01e7a18                __start___param = .
 *(__param)
 __param        0x00000000c01e7a18       0x14 init/built-in.o
 __param        0x00000000c01e7a2c       0xa0 kernel/built-in.o
 __param        0x00000000c01e7acc      0x154 drivers/built-in.o
 __param        0x00000000c01e7c20       0x64 net/built-in.o
                0x00000000c01e7c84                __stop___param = .
                0x00000000c01e8000                . = ALIGN (0x1000)
 *fill*         0x00000000c01e7c84      0x37c 00
                0x00000000c01e8000                __end_rodata = .
                0x00000000c01e8000                . = ALIGN (0x1000)
                0x00000000c01e8000                _etext = .
                0x00000000c01e8000                . = ALIGN (0x2000)
                0x00000000c01e8000                __data_loc = .

.data           0x00000000c01e8000    0x10738
                0x00000000c01e8000                __data_start = .
 *(.data.init_task)
 .data.init_task
                0x00000000c01e8000     0x2000 arch/arm/kernel/init_task.o
                0x00000000c01e8000                init_thread_union
                0x00000000c01ea000                . = ALIGN (0x1000)
                0x00000000c01ea000                __nosave_begin = .
 *(.data.nosave)
                0x00000000c01ea000                . = ALIGN (0x1000)
                0x00000000c01ea000                __nosave_end = .
                0x00000000c01ea000                . = ALIGN (0x20)
 *(.data.cacheline_aligned)
 .data.cacheline_aligned
                0x00000000c01ea000        0x0 kernel/built-in.o
                0x00000000c01ea000                tasklist_lock
 .data.cacheline_aligned
                0x00000000c01ea000       0xc0 net/built-in.o
                0x00000000c01ea000                tcp_hashinfo
                0x00000000c01ea0c0                . = ALIGN (0x20)
                0x00000000c01ea0c0                __start___ex_table = .
 *(__ex_table)
 __ex_table     0x00000000c01ea0c0      0x1c8 arch/arm/kernel/built-in.o
 __ex_table     0x00000000c01ea288      0x258 arch/arm/mm/built-in.o
 __ex_table     0x00000000c01ea4e0      0x158 kernel/built-in.o
 __ex_table     0x00000000c01ea638       0x28 mm/built-in.o
 __ex_table     0x00000000c01ea660      0x208 fs/built-in.o
 __ex_table     0x00000000c01ea868       0x20 arch/arm/lib/lib.a(backtrace.o)
 __ex_table     0x00000000c01ea888       0x48 arch/arm/lib/lib.a(clear_user.o)
 __ex_table     0x00000000c01ea8d0      0x188 arch/arm/lib/lib.a(copy_from_user.o)
 __ex_table     0x00000000c01eaa58      0x180 arch/arm/lib/lib.a(copy_to_user.o)
 __ex_table     0x00000000c01eabd8      0x138 arch/arm/lib/lib.a(csumpartialcopyuser.o)
 __ex_table     0x00000000c01ead10       0x20 arch/arm/lib/lib.a(getuser.o)
 __ex_table     0x00000000c01ead30       0x30 arch/arm/lib/lib.a(putuser.o)
 __ex_table     0x00000000c01ead60        0x8 arch/arm/lib/lib.a(strncpy_from_user.o)
 __ex_table     0x00000000c01ead68        0x8 arch/arm/lib/lib.a(strnlen_user.o)
 __ex_table     0x00000000c01ead70        0x8 lib/built-in.o
 __ex_table     0x00000000c01ead78       0x18 net/built-in.o
                0x00000000c01ead90                __stop___ex_table = .
 *(.data)
 .data          0x00000000c01ead90        0x0 usr/built-in.o
 .data          0x00000000c01ead90        0x0 arch/arm/kernel/head.o
 .data          0x00000000c01ead90      0xb20 arch/arm/kernel/init_task.o
                0x00000000c01ead90                init_mm
                0x00000000c01eaef8                init_task
 .data          0x00000000c01eb8b0      0x2ac init/built-in.o
                0x00000000c01eb938                envp_init
                0x00000000c01eb9c0                loops_per_jiffy
                0x00000000c01eb9c4                init_uts_ns
                0x00000000c01ebb50                root_mountflags
 *fill*         0x00000000c01ebb5c        0x4 00
 .data          0x00000000c01ebb60      0xe44 arch/arm/mach-GM/platform-GM8126/built-in.o
                0x00000000c01ebb60                gate_tbl
                0x00000000c01ebc3c                clock_info
                0x00000000c01ebdb0                ftpmu010_h264e_fd
                0x00000000c01ebdd8                ftpmu010_mcp100_fd
                0x00000000c01ebf60                gm_sys_timer
                0x00000000c01ec8ec                spi_0_fd
                0x00000000c01ec914                spi_1_fd
 .data          0x00000000c01ec9a4      0x194 arch/arm/kernel/built-in.o
                0x00000000c01ec9a4                fp_enter
                0x00000000c01ec9a8                cr_alignment
                0x00000000c01ec9ac                cr_no_alignment
                0x00000000c01ec9f0                arm_pm_restart
 .data          0x00000000c01ecb38     0x1cfc arch/arm/mm/built-in.o
                0x00000000c01ece34                discontig_node_data
 .data          0x00000000c01ee834       0x84 arch/arm/mach-GM/built-in.o
 .data          0x00000000c01ee8b8     0x2b90 kernel/built-in.o
                0x00000000c01ee8b8                sysctl_sched_wakeup_granularity
                0x00000000c01ee8bc                sysctl_sched_latency
                0x00000000c01ee8c0                sysctl_sched_min_granularity
                0x00000000c01ee8c4                sysctl_sched_rt_runtime
                0x00000000c01ee8c8                sysctl_sched_rt_period
                0x00000000c01ee8d8                sysctl_sched_shares_ratelimit
                0x00000000c01ee8dc                sysctl_sched_shares_thresh
                0x00000000c01ee8e8                default_exec_domain
                0x00000000c01ee99c                console_printk
                0x00000000c01ee9ac                console_suspend_enabled
                0x00000000c01ee9b0                printk_ratelimit_state
                0x00000000c01ee9e0                log_wait
                0x00000000c01ee9f8                cpu_online_map
                0x00000000c01ee9fc                cpu_possible_map
                0x00000000c01eea04                iomem_resource
                0x00000000c01eea20                ioport_resource
                0x00000000c01ef688                jiffies_64
                0x00000000c01ef690                init_user_ns
                0x00000000c01efa98                root_user
                0x00000000c01efac8                poweroff_cmd
                0x00000000c01efbd4                C_A_D
                0x00000000c01efbe8                uts_sem
                0x00000000c01efbf4                overflowuid
                0x00000000c01efbf8                overflowgid
                0x00000000c01efbfc                fs_overflowuid
                0x00000000c01efc00                fs_overflowgid
                0x00000000c01efc04                init_groups
                0x00000000c01efc90                modprobe_path
                0x00000000c01efda8                pid_max
                0x00000000c01efdac                init_pid_ns
                0x00000000c01efdd0                init_struct_pid
                0x00000000c01efdfc                pid_max_min
                0x00000000c01efe00                pid_max_max
                0x00000000c01efe10                module_ktype
                0x00000000c01efe48                per_cpu__hrtimer_bases
                0x00000000c01efec8                init_nsproxy
                0x00000000c01efee4                reboot_notifier_list
                0x00000000c01f0084                tick_usec
                0x00000000c01f0088                time_status
                0x00000000c01f008c                time_maxerror
                0x00000000c01f0090                time_esterror
                0x00000000c01f0140                clocksource_jiffies
                0x00000000c01f022c                tick_do_timer_cpu
                0x00000000c01f0240                max_lock_depth
                0x00000000c01f02f4                nr_irqs
                0x00000000c01f02f8                irq_desc
                0x00000000c01f11f8                no_irq_chip
                0x00000000c01f1238                dummy_irq_chip
 .data          0x00000000c01f1448      0x4e8 mm/built-in.o
                0x00000000c01f1448                generic_file_vm_ops
                0x00000000c01f146c                sysctl_lowmem_reserve_ratio
                0x00000000c01f1470                node_states
                0x00000000c01f1498                min_free_kbytes
                0x00000000c01f149c                nr_node_ids
                0x00000000c01f14b8                dirty_expire_interval
                0x00000000c01f14bc                dirty_writeback_interval
                0x00000000c01f14c0                vm_dirty_ratio
                0x00000000c01f14c4                dirty_background_ratio
                0x00000000c01f14f0                default_backing_dev_info
                0x00000000c01f1564                vm_swappiness
                0x00000000c01f15dc                randomize_va_space
                0x00000000c01f15e0                protection_map
                0x00000000c01f1620                sysctl_overcommit_ratio
                0x00000000c01f1624                sysctl_max_map_count
                0x00000000c01f1660                swapper_space
                0x00000000c01f1864                malloc_sizes
 .data          0x00000000c01f1930      0xd84 fs/built-in.o
                0x00000000c01f1930                files_stat
                0x00000000c01f193c                super_blocks
                0x00000000c01f1978                directly_mappable_cdev_bdi
                0x00000000c01f19e0                core_pattern
                0x00000000c01f1a9c                dentry_stat
                0x00000000c01f1ab4                sysctl_vfs_cache_pressure
                0x00000000c01f1acc                inode_in_use
                0x00000000c01f1ae0                inode_unused
                0x00000000c01f1afc                sysctl_nr_open
                0x00000000c01f1b00                sysctl_nr_open_max
                0x00000000c01f1b04                sysctl_nr_open_min
                0x00000000c01f1b08                init_files
                0x00000000c01f1c80                inotify_table
                0x00000000c01f1d3c                epoll_table
                0x00000000c01f1e0c                leases_enable
                0x00000000c01f1e30                lease_break_time
                0x00000000c01f1e74                dir_notify_enable
                0x00000000c01f1e78                proc_root
                0x00000000c01f1f98                part_type
                0x00000000c01f1fc8                warn_no_part
                0x00000000c01f20a8                sysfs_mutex
                0x00000000c01f20d0                sysfs_rename_mutex
                0x00000000c01f20dc                sysfs_root
 .data          0x00000000c01f26b4      0x2d8 ipc/built-in.o
                0x00000000c01f26b4                init_ipc_ns
                0x00000000c01f277c                nr_ipc_ns
 .data          0x00000000c01f298c        0x0 security/built-in.o
 .data          0x00000000c01f298c       0x24 crypto/built-in.o
                0x00000000c01f298c                crypto_alg_sem
                0x00000000c01f2998                crypto_chain
                0x00000000c01f29a8                crypto_alg_list
 .data          0x00000000c01f29b0      0x58c block/built-in.o
                0x00000000c01f29cc                blk_queue_ktype
                0x00000000c01f2aa4                block_class
 .data          0x00000000c01f2f3c        0x0 arch/arm/lib/lib.a(ashldi3.o)
 .data          0x00000000c01f2f3c        0x0 arch/arm/lib/lib.a(ashrdi3.o)
 .data          0x00000000c01f2f3c        0x0 arch/arm/lib/lib.a(backtrace.o)
 .data          0x00000000c01f2f3c        0x0 arch/arm/lib/lib.a(changebit.o)
 .data          0x00000000c01f2f3c        0x0 arch/arm/lib/lib.a(clear_user.o)
 .data          0x00000000c01f2f3c        0x0 arch/arm/lib/lib.a(clearbit.o)
 .data          0x00000000c01f2f3c        0x0 arch/arm/lib/lib.a(copy_from_user.o)
 .data          0x00000000c01f2f3c        0x0 arch/arm/lib/lib.a(copy_page.o)
 .data          0x00000000c01f2f3c        0x0 arch/arm/lib/lib.a(copy_to_user.o)
 .data          0x00000000c01f2f3c        0x0 arch/arm/lib/lib.a(csumipv6.o)
 .data          0x00000000c01f2f3c        0x0 arch/arm/lib/lib.a(csumpartial.o)
 .data          0x00000000c01f2f3c        0x0 arch/arm/lib/lib.a(csumpartialcopy.o)
 .data          0x00000000c01f2f3c        0x0 arch/arm/lib/lib.a(csumpartialcopyuser.o)
 .data          0x00000000c01f2f3c        0x0 arch/arm/lib/lib.a(delay.o)
 .data          0x00000000c01f2f3c        0x0 arch/arm/lib/lib.a(div64.o)
 .data          0x00000000c01f2f3c        0x0 arch/arm/lib/lib.a(findbit.o)
 .data          0x00000000c01f2f3c        0x0 arch/arm/lib/lib.a(getuser.o)
 .data          0x00000000c01f2f3c        0x0 arch/arm/lib/lib.a(io-readsb.o)
 .data          0x00000000c01f2f3c        0x0 arch/arm/lib/lib.a(io-readsl.o)
 .data          0x00000000c01f2f3c        0x0 arch/arm/lib/lib.a(io-readsw-armv4.o)
 .data          0x00000000c01f2f3c        0x0 arch/arm/lib/lib.a(io-writesb.o)
 .data          0x00000000c01f2f3c        0x0 arch/arm/lib/lib.a(io-writesl.o)
 .data          0x00000000c01f2f3c        0x0 arch/arm/lib/lib.a(io-writesw-armv4.o)
 .data          0x00000000c01f2f3c        0x0 arch/arm/lib/lib.a(lib1funcs.o)
 .data          0x00000000c01f2f3c        0x0 arch/arm/lib/lib.a(lshrdi3.o)
 .data          0x00000000c01f2f3c        0x0 arch/arm/lib/lib.a(memchr.o)
 .data          0x00000000c01f2f3c        0x0 arch/arm/lib/lib.a(memcpy.o)
 .data          0x00000000c01f2f3c        0x0 arch/arm/lib/lib.a(memmove.o)
 .data          0x00000000c01f2f3c        0x0 arch/arm/lib/lib.a(memset.o)
 .data          0x00000000c01f2f3c        0x0 arch/arm/lib/lib.a(memzero.o)
 .data          0x00000000c01f2f3c        0x0 arch/arm/lib/lib.a(muldi3.o)
 .data          0x00000000c01f2f3c        0x0 arch/arm/lib/lib.a(putuser.o)
 .data          0x00000000c01f2f3c        0x0 arch/arm/lib/lib.a(setbit.o)
 .data          0x00000000c01f2f3c        0x0 arch/arm/lib/lib.a(sha1.o)
 .data          0x00000000c01f2f3c        0x0 arch/arm/lib/lib.a(strchr.o)
 .data          0x00000000c01f2f3c        0x0 arch/arm/lib/lib.a(strncpy_from_user.o)
 .data          0x00000000c01f2f3c        0x0 arch/arm/lib/lib.a(strnlen_user.o)
 .data          0x00000000c01f2f3c        0x0 arch/arm/lib/lib.a(strrchr.o)
 .data          0x00000000c01f2f3c        0x0 arch/arm/lib/lib.a(testchangebit.o)
 .data          0x00000000c01f2f3c        0x0 arch/arm/lib/lib.a(testclearbit.o)
 .data          0x00000000c01f2f3c        0x0 arch/arm/lib/lib.a(testsetbit.o)
 .data          0x00000000c01f2f3c        0x0 arch/arm/lib/lib.a(ucmpdi2.o)
 .data          0x00000000c01f2f3c        0x0 lib/lib.a(argv_split.o)
 .data          0x00000000c01f2f3c        0x0 lib/lib.a(cmdline.o)
 .data          0x00000000c01f2f3c      0x100 lib/lib.a(ctype.o)
                0x00000000c01f2f3c                _ctype
 .data          0x00000000c01f303c        0x0 lib/lib.a(dec_and_lock.o)
 .data          0x00000000c01f303c        0x0 lib/lib.a(extable.o)
 .data          0x00000000c01f303c        0x0 lib/lib.a(idr.o)
 .data          0x00000000c01f303c        0x0 lib/lib.a(int_sqrt.o)
 .data          0x00000000c01f303c        0x0 lib/lib.a(irq_regs.o)
 .data          0x00000000c01f303c       0x20 lib/lib.a(kobject.o)
                0x00000000c01f3054                kobj_sysfs_ops
 .data          0x00000000c01f305c        0x0 lib/lib.a(kref.o)
 .data          0x00000000c01f305c        0x0 lib/lib.a(prio_tree.o)
 .data          0x00000000c01f305c        0x0 lib/lib.a(proportions.o)
 .data          0x00000000c01f305c        0x0 lib/lib.a(radix-tree.o)
 .data          0x00000000c01f305c        0x0 lib/lib.a(ratelimit.o)
 .data          0x00000000c01f305c        0x0 lib/lib.a(rbtree.o)
 .data          0x00000000c01f305c        0x0 lib/lib.a(reciprocal_div.o)
 .data          0x00000000c01f305c        0x0 lib/lib.a(rwsem-spinlock.o)
 .data          0x00000000c01f305c        0x0 lib/lib.a(string.o)
 .data          0x00000000c01f305c        0x1 lib/lib.a(vsprintf.o)
 *fill*         0x00000000c01f305d        0x3 00
 .data          0x00000000c01f3060        0xc lib/built-in.o
                0x00000000c01f3060                debug_locks
 *fill*         0x00000000c01f306c        0x4 00
 .data          0x00000000c01f3070     0x1ac4 drivers/built-in.o
                0x00000000c01f3258                random_table
                0x00000000c01f33cc                tty_mutex
                0x00000000c01f33d8                tty_drivers
                0x00000000c01f33e0                tty_std_termios
                0x00000000c01f340c                tty_ldisc_N_TTY
                0x00000000c01f34bc                pty_limit
                0x00000000c01f3878                platform_bus_type
                0x00000000c01f38b8                platform_bus
                0x00000000c01f3a08                cpu_sysdev_class
                0x00000000c01f3aa0                rd_size
                0x00000000c01f3b9c                mtd_table_mutex
                0x00000000c01f3e28                spi_4byte_mode_one_time
                0x00000000c01f3e2c                spi_bus_type
                0x00000000c01f40d4                input_class
                0x00000000c01f44a4                __i2c_board_lock
                0x00000000c01f44b0                __i2c_board_list
                0x00000000c01f44b8                i2c_bus_type
                0x00000000c01f46ec                use_spi_crc
 *fill*         0x00000000c01f4b34        0x4 00
 .data          0x00000000c01f4b38     0x3bfc net/built-in.o
                0x00000000c01f4be4                sysctl_optmem_max
                0x00000000c01f4be8                sysctl_rmem_default
                0x00000000c01f4bec                sysctl_wmem_default
                0x00000000c01f4bf0                sysctl_wmem_max
                0x00000000c01f4bf4                sysctl_rmem_max
                0x00000000c01f4bf8                sysctl_max_syn_backlog
                0x00000000c01f4c30                net_namespace_list
                0x00000000c01f4f54                weight_p
                0x00000000c01f4f58                netdev_budget
                0x00000000c01f4f5c                netdev_max_backlog
                0x00000000c01f5330                net_ratelimit_state
                0x00000000c01f5344                net_msg_warn
                0x00000000c01f57c8                noop_qdisc
                0x00000000c01f58a0                noop_qdisc_ops
                0x00000000c01f5acc                nf_net_netfilter_sysctl_path
                0x00000000c01f5fa8                inet_peer_threshold
                0x00000000c01f5fac                inet_peer_gc_maxtime
                0x00000000c01f6000                inet_peer_minttl
                0x00000000c01f6004                inet_peer_maxttl
                0x00000000c01f6008                inet_peer_gc_mintime
                0x00000000c01f6154                sysctl_ip_default_ttl
                0x00000000c01f6158                sysctl_local_ports
                0x00000000c01f6164                sysctl_tcp_fin_timeout
                0x00000000c01f6168                sysctl_tcp_adv_win_scale
                0x00000000c01f616c                sysctl_tcp_app_win
                0x00000000c01f6170                sysctl_tcp_dsack
                0x00000000c01f6174                sysctl_tcp_reordering
                0x00000000c01f6178                sysctl_tcp_window_scaling
                0x00000000c01f617c                sysctl_tcp_timestamps
                0x00000000c01f6180                sysctl_tcp_sack
                0x00000000c01f6184                sysctl_tcp_moderate_rcvbuf
                0x00000000c01f6188                sysctl_tcp_frto
                0x00000000c01f618c                sysctl_tcp_fack
                0x00000000c01f6190                sysctl_tcp_max_orphans
                0x00000000c01f6194                sysctl_tcp_base_mss
                0x00000000c01f6198                sysctl_tcp_slow_start_after_idle
                0x00000000c01f619c                sysctl_tcp_tso_win_divisor
                0x00000000c01f61a0                sysctl_tcp_retrans_collapse
                0x00000000c01f61a4                sysctl_tcp_keepalive_time
                0x00000000c01f61a8                sysctl_tcp_keepalive_probes
                0x00000000c01f61ac                sysctl_tcp_keepalive_intvl
                0x00000000c01f61b0                sysctl_tcp_syn_retries
                0x00000000c01f61b4                sysctl_tcp_retries1
                0x00000000c01f61b8                sysctl_tcp_retries2
                0x00000000c01f61bc                sysctl_tcp_synack_retries
                0x00000000c01f61c0                ipv4_specific
                0x00000000c01f6270                tcp_request_sock_ops
                0x00000000c01f62a0                tcp_prot
                0x00000000c01f6364                tcp_death_row
                0x00000000c01f6470                tcp_init_congestion_ops
                0x00000000c01f64b8                tcp_reno
                0x00000000c01f6500                raw_prot
                0x00000000c01f6648                udp_prot
                0x00000000c01f6780                udplite_prot
                0x00000000c01f6870                arp_tbl
                0x00000000c01f69fc                arp_broken_ops
                0x00000000c01f6a18                icmp_err_convert
                0x00000000c01f7050                sysctl_igmp_max_memberships
                0x00000000c01f7054                sysctl_igmp_max_msf
                0x00000000c01f7080                net_ipv4_ctl_path
                0x00000000c01f7c90                nf_net_ipv4_netfilter_sysctl_path
                0x00000000c01f81ec                sysctl_xfrm_larval_drop
                0x00000000c01f81fc                xfrm_cfg_mutex
                0x00000000c01f8218                km_waitq
                0x00000000c01f823c                sysctl_xfrm_acq_expires
                0x00000000c01f8240                sysctl_xfrm_aevent_etime
                0x00000000c01f8244                sysctl_xfrm_aevent_rseqth
 .data          0x00000000c01f8734        0x0 lib/lib.a(klist.o)
 *(.data.init.refok)
 *(.ref.data)
                0x00000000c01f8738                . = ALIGN (0x8)
 *fill*         0x00000000c01f8734        0x4 00
                0x00000000c01f8738                __start___markers = .
 *(__markers)
                0x00000000c01f8738                __stop___markers = .
                0x00000000c01f8738                __start___tracepoints = .
 *(__tracepoints)
                0x00000000c01f8738                __stop___tracepoints = .
                0x00000000c01f8738                _edata = .
                0x00000000c01f8738                _edata_loc = (__data_loc + SIZEOF (.data))

.bss            0x00000000c01f8740     0xe93c
                0x00000000c01f8740                __bss_start = .
 *(.bss)
 .bss           0x00000000c01f8740        0x0 usr/built-in.o
 .bss           0x00000000c01f8740        0x0 arch/arm/kernel/head.o
 .bss           0x00000000c01f8740        0x0 arch/arm/kernel/init_task.o
 .bss           0x00000000c01f8740      0x8a8 init/built-in.o
                0x00000000c01f8740                reset_devices
                0x00000000c01f874c                system_state
                0x00000000c01f8758                saved_command_line
                0x00000000c01f8760                late_time_init
                0x00000000c01f8768                Version_132636
                0x00000000c01f876c                ROOT_DEV
                0x00000000c01f8ba8                real_root_dev
                0x00000000c01f8bac                initrd_below_start_ok
                0x00000000c01f8bb0                initrd_start
                0x00000000c01f8bb4                initrd_end
                0x00000000c01f8fe0                preset_lpj
                0x00000000c01f8fe4                lpj_fine
 .bss           0x00000000c01f8fe8      0x110 arch/arm/mach-GM/platform-GM8126/built-in.o
                0x00000000c01f8ff4                ftintc010_base_addr
 *fill*         0x00000000c01f90f8        0x8 00
 .bss           0x00000000c01f9100       0xf0 arch/arm/kernel/built-in.o
                0x00000000c01f9100                irq_err_count
                0x00000000c01f9108                pm_idle
                0x00000000c01f910c                pm_power_off
                0x00000000c01f9110                thread_notify_head
                0x00000000c01f9120                system_serial_low
                0x00000000c01f9124                system_serial_high
                0x00000000c01f9128                system_rev
                0x00000000c01f912c                per_cpu__cpu_data
                0x00000000c01f9164                elf_platform
                0x00000000c01f916c                elf_hwcap
                0x00000000c01f91c0                cacheid
                0x00000000c01f91c4                __machine_arch_type
                0x00000000c01f91c8                processor_id
                0x00000000c01f91e0                system_timer
                0x00000000c01f91e4                set_rtc
                0x00000000c01f91ec                die_lock
 .bss           0x00000000c01f91f0       0xa4 arch/arm/mm/built-in.o
                0x00000000c01f925c                pgprot_user
                0x00000000c01f9260                pgprot_kernel
                0x00000000c01f9264                top_pmd
                0x00000000c01f9268                empty_zero_page
                0x00000000c01f926c                per_cpu__mmu_gathers
 .bss           0x00000000c01f9294      0x4f4 arch/arm/mach-GM/built-in.o
 *fill*         0x00000000c01f9788       0x18 00
 .bss           0x00000000c01f97a0     0x7708 kernel/built-in.o
                0x00000000c01f9bd8                sysctl_sched_compat_yield
                0x00000000c01f9be0                per_cpu__kstat
                0x00000000c01f9d2c                nohz_cpu_mask
                0x00000000c01f9d30                fs_cachep
                0x00000000c01f9d3c                per_cpu__process_counts
                0x00000000c01f9d40                max_threads
                0x00000000c01f9d44                vm_area_cachep
                0x00000000c01f9d48                sighand_cachep
                0x00000000c01f9d50                nr_threads
                0x00000000c01f9d54                total_forks
                0x00000000c01f9d58                files_cachep
                0x00000000c01f9d5c                mmlist_lock
                0x00000000c01fa17c                panic_notifier_list
                0x00000000c01fa180                panic_blink
                0x00000000c01fa184                panic_timeout
                0x00000000c01fa1a0                panic_on_oops
                0x00000000c01fa1a8                console_drivers
                0x00000000c01fa5d0                oops_in_progress
                0x00000000c01fe660                console_set_on_cmdline
                0x00000000c01fe664                cpu_present_map
                0x00000000c01fe668                sys_tz
                0x00000000c01fe6a0                irq_stat
                0x00000000c01fe6cc                per_cpu__softirq_work_list
                0x00000000c01fe840                boot_tvec_bases
                0x00000000c01ff864                avenrun
                0x00000000c01ff884                print_fatal_signals
                0x00000000c01ff88c                pm_power_off_prepare
                0x00000000c01ff890                cad_pid
                0x00000000c01ff8d0                module_kset
                0x00000000c01ff8d4                module_sysfs_initialized
                0x00000000c01ffb80                kthreadd_task
                0x00000000c01ffba0                kernel_kobj
                0x00000000c01ffc00                clock
                0x00000000c01ffc10                xtime
                0x00000000c01ffc28                xtime_lock
                0x00000000c01ffc30                wall_to_monotonic
                0x00000000c01ffc60                tick_nsec
                0x00000000c01ffcb4                time_adjust
                0x00000000c01ffcb8                tick_length
                0x00000000c01ffd08                tick_period
                0x00000000c01ffd10                tick_next_period
                0x00000000c01ffd18                per_cpu__tick_cpu_device
                0x00000000c01ffd20                tick_device_lock
                0x00000000c0200dd0                futex_cmpxchg_enabled
                0x00000000c0200e20                noirqdebug
                0x00000000c0200e30                per_cpu__rcu_bh_data
                0x00000000c0200e6c                per_cpu__rcu_data
 .bss           0x00000000c0200ea8      0xcc8 mm/built-in.o
                0x00000000c0200eac                bootmem_node_data
                0x00000000c0200f1c                max_low_pfn
                0x00000000c0200f20                min_low_pfn
                0x00000000c0200f24                max_pfn
                0x00000000c0200f28                sysctl_oom_dump_tasks
                0x00000000c0200f2c                sysctl_panic_on_oom
                0x00000000c0200f30                sysctl_oom_kill_allocating_task
                0x00000000c0200f34                totalreserve_pages
                0x00000000c0200f38                totalram_pages
                0x00000000c0200f40                page_group_by_mobility_disabled
                0x00000000c0200f44                percpu_pagelist_fraction
                0x00000000c0200f48                hashdist
                0x00000000c0200f4c                nr_swap_pages
                0x00000000c0200fcc                laptop_mode
                0x00000000c0200fd0                vm_highmem_is_dirtyable
                0x00000000c0200fd4                block_dump
                0x00000000c0200fd8                nr_pdflush_threads
                0x00000000c0201160                page_cluster
                0x00000000c0201164                scan_unevictable_pages
                0x00000000c0201168                vm_total_pages
                0x00000000c020116c                per_cpu__vm_event_states
                0x00000000c02011f4                vm_stat
                0x00000000c0201248                mm_kobj
                0x00000000c020124c                num_physpages
                0x00000000c0201250                high_memory
                0x00000000c0201254                vm_committed_space
                0x00000000c0201258                sysctl_overcommit_memory
                0x00000000c0201260                vmlist
                0x00000000c0201288                vmlist_lock
                0x00000000c0201b20                total_swap_pages
                0x00000000c0201b2c                swap_token_mm
 .bss           0x00000000c0201b70     0x18bc fs/built-in.o
                0x00000000c0201b7c                files_lock
                0x00000000c0201b94                sb_lock
                0x00000000c0201fd8                suid_dumpable
                0x00000000c0201fdc                core_uses_pid
                0x00000000c0201ff8                rename_lock
                0x00000000c0201ff8                dcache_lock
                0x00000000c0201ffc                names_cachep
                0x00000000c0202000                filp_cachep
                0x00000000c0202010                inode_lock
                0x00000000c0202120                inodes_stat
                0x00000000c02021a0                vfsmount_lock
                0x00000000c02021a0                fs_kobj
                0x00000000c02021a4                sysctl_drop_caches
                0x00000000c02021b0                buffer_heads_over_limit
                0x00000000c02021ec                fs_bio_set
                0x00000000c0202200                blockdev_superblock
                0x00000000c02022c0                proc_mnt
                0x00000000c02022d8                proc_subdir_lock
                0x00000000c02032f4                sysfs_sb
                0x00000000c02032f4                sysfs_assoc_lock
                0x00000000c02032f8                sysfs_dir_cachep
 .bss           0x00000000c020342c        0x4 ipc/built-in.o
 .bss           0x00000000c0203430        0x0 security/built-in.o
 .bss           0x00000000c0203430        0x8 crypto/built-in.o
 .bss           0x00000000c0203438      0x464 block/built-in.o
                0x00000000c0203450                blk_requestq_cachep
                0x00000000c0203458                blk_max_low_pfn
                0x00000000c020345c                blk_max_pfn
 .bss           0x00000000c020389c        0x0 arch/arm/lib/lib.a(ashldi3.o)
 .bss           0x00000000c020389c        0x0 arch/arm/lib/lib.a(ashrdi3.o)
 .bss           0x00000000c020389c        0x0 arch/arm/lib/lib.a(backtrace.o)
 .bss           0x00000000c020389c        0x0 arch/arm/lib/lib.a(changebit.o)
 .bss           0x00000000c020389c        0x0 arch/arm/lib/lib.a(clear_user.o)
 .bss           0x00000000c020389c        0x0 arch/arm/lib/lib.a(clearbit.o)
 .bss           0x00000000c020389c        0x0 arch/arm/lib/lib.a(copy_from_user.o)
 .bss           0x00000000c020389c        0x0 arch/arm/lib/lib.a(copy_page.o)
 .bss           0x00000000c020389c        0x0 arch/arm/lib/lib.a(copy_to_user.o)
 .bss           0x00000000c020389c        0x0 arch/arm/lib/lib.a(csumipv6.o)
 .bss           0x00000000c020389c        0x0 arch/arm/lib/lib.a(csumpartial.o)
 .bss           0x00000000c020389c        0x0 arch/arm/lib/lib.a(csumpartialcopy.o)
 .bss           0x00000000c020389c        0x0 arch/arm/lib/lib.a(csumpartialcopyuser.o)
 .bss           0x00000000c020389c        0x0 arch/arm/lib/lib.a(delay.o)
 .bss           0x00000000c020389c        0x0 arch/arm/lib/lib.a(div64.o)
 .bss           0x00000000c020389c        0x0 arch/arm/lib/lib.a(findbit.o)
 .bss           0x00000000c020389c        0x0 arch/arm/lib/lib.a(getuser.o)
 .bss           0x00000000c020389c        0x0 arch/arm/lib/lib.a(io-readsb.o)
 .bss           0x00000000c020389c        0x0 arch/arm/lib/lib.a(io-readsl.o)
 .bss           0x00000000c020389c        0x0 arch/arm/lib/lib.a(io-readsw-armv4.o)
 .bss           0x00000000c020389c        0x0 arch/arm/lib/lib.a(io-writesb.o)
 .bss           0x00000000c020389c        0x0 arch/arm/lib/lib.a(io-writesl.o)
 .bss           0x00000000c020389c        0x0 arch/arm/lib/lib.a(io-writesw-armv4.o)
 .bss           0x00000000c020389c        0x0 arch/arm/lib/lib.a(lib1funcs.o)
 .bss           0x00000000c020389c        0x0 arch/arm/lib/lib.a(lshrdi3.o)
 .bss           0x00000000c020389c        0x0 arch/arm/lib/lib.a(memchr.o)
 .bss           0x00000000c020389c        0x0 arch/arm/lib/lib.a(memcpy.o)
 .bss           0x00000000c020389c        0x0 arch/arm/lib/lib.a(memmove.o)
 .bss           0x00000000c020389c        0x0 arch/arm/lib/lib.a(memset.o)
 .bss           0x00000000c020389c        0x0 arch/arm/lib/lib.a(memzero.o)
 .bss           0x00000000c020389c        0x0 arch/arm/lib/lib.a(muldi3.o)
 .bss           0x00000000c020389c        0x0 arch/arm/lib/lib.a(putuser.o)
 .bss           0x00000000c020389c        0x0 arch/arm/lib/lib.a(setbit.o)
 .bss           0x00000000c020389c        0x0 arch/arm/lib/lib.a(sha1.o)
 .bss           0x00000000c020389c        0x0 arch/arm/lib/lib.a(strchr.o)
 .bss           0x00000000c020389c        0x0 arch/arm/lib/lib.a(strncpy_from_user.o)
 .bss           0x00000000c020389c        0x0 arch/arm/lib/lib.a(strnlen_user.o)
 .bss           0x00000000c020389c        0x0 arch/arm/lib/lib.a(strrchr.o)
 .bss           0x00000000c020389c        0x0 arch/arm/lib/lib.a(testchangebit.o)
 .bss           0x00000000c020389c        0x0 arch/arm/lib/lib.a(testclearbit.o)
 .bss           0x00000000c020389c        0x0 arch/arm/lib/lib.a(testsetbit.o)
 .bss           0x00000000c020389c        0x0 arch/arm/lib/lib.a(ucmpdi2.o)
 .bss           0x00000000c020389c        0x0 lib/lib.a(argv_split.o)
 .bss           0x00000000c020389c        0x0 lib/lib.a(cmdline.o)
 .bss           0x00000000c020389c        0x0 lib/lib.a(ctype.o)
 .bss           0x00000000c020389c        0x0 lib/lib.a(dec_and_lock.o)
 .bss           0x00000000c020389c        0x0 lib/lib.a(extable.o)
 .bss           0x00000000c020389c        0x4 lib/lib.a(idr.o)
 .bss           0x00000000c02038a0        0x0 lib/lib.a(int_sqrt.o)
 .bss           0x00000000c02038a0        0x4 lib/lib.a(irq_regs.o)
                0x00000000c02038a0                per_cpu____irq_regs
 .bss           0x00000000c02038a4        0x0 lib/lib.a(kobject.o)
 .bss           0x00000000c02038a4        0x0 lib/lib.a(kref.o)
 .bss           0x00000000c02038a4       0x80 lib/lib.a(prio_tree.o)
 .bss           0x00000000c0203924        0x0 lib/lib.a(proportions.o)
 .bss           0x00000000c0203924       0x3c lib/lib.a(radix-tree.o)
                0x00000000c0203944                per_cpu__radix_tree_preloads
 .bss           0x00000000c0203960        0x0 lib/lib.a(ratelimit.o)
 .bss           0x00000000c0203960        0x0 lib/lib.a(rbtree.o)
 .bss           0x00000000c0203960        0x0 lib/lib.a(reciprocal_div.o)
 .bss           0x00000000c0203960        0x0 lib/lib.a(rwsem-spinlock.o)
 .bss           0x00000000c0203960        0x0 lib/lib.a(string.o)
 .bss           0x00000000c0203960        0x0 lib/lib.a(vsprintf.o)
 .bss           0x00000000c0203960       0x10 lib/built-in.o
                0x00000000c0203960                debug_locks_silent
 *fill*         0x00000000c0203970       0x10 00
 .bss           0x00000000c0203980     0x1154 drivers/built-in.o
                0x00000000c0204300                tty_class
                0x00000000c02043d0                ptm_driver
                0x00000000c02048ec                sysfs_dev_char_kobj
                0x00000000c02048f0                devices_kset
                0x00000000c02048f4                platform_notify_remove
                0x00000000c02048f8                platform_notify
                0x00000000c0204900                sysfs_dev_block_kobj
                0x00000000c0204918                firmware_kobj
                0x00000000c0204938                mtd_table
                0x00000000c0204a3c                gm812x_eeprom_256
                0x00000000c0204a8c                rtc_class
                0x00000000c0204aa4                __i2c_first_dynamic_bus_num
 *fill*         0x00000000c0204ad4        0x4 00
 .bss           0x00000000c0204ad8     0x25a4 net/built-in.o
                0x00000000c0204d6c                init_net
                0x00000000c0204f60                per_cpu__softnet_data
                0x00000000c0205020                per_cpu__netdev_rx_stat
                0x00000000c02051cc                dev_base_lock
                0x00000000c02052c8                flow_cache_genid
                0x00000000c020535c                genl_sock
                0x00000000c0205364                nf_ct_destroy
                0x00000000c0205368                ip_ct_attach
                0x00000000c020536c                nf_hooks
                0x00000000c02056ac                nf_afinfo
                0x00000000c02056e0                proc_net_netfilter
                0x00000000c02057e8                inet_protos
                0x00000000c02057e8                inet_peer_idlock
                0x00000000c0205d28                ip_ra_chain
                0x00000000c0205d2c                ip_ra_lock
                0x00000000c0205d30                tcp_memory_pressure
                0x00000000c0205d34                tcp_memory_allocated
                0x00000000c0205d38                sysctl_tcp_mem
                0x00000000c0205d44                sysctl_tcp_wmem
                0x00000000c0205d50                sysctl_tcp_rmem
                0x00000000c0205d5c                tcp_orphan_count
                0x00000000c0205d60                tcp_sockets_allocated
                0x00000000c0205d64                sysctl_tcp_stdurg
                0x00000000c0205d68                sysctl_tcp_nometrics_save
                0x00000000c0205d6c                sysctl_tcp_abc
                0x00000000c0205d70                sysctl_tcp_frto_response
                0x00000000c0205d74                sysctl_tcp_rfc1337
                0x00000000c0205d78                sysctl_tcp_ecn
                0x00000000c0205d7c                sysctl_tcp_workaround_signed_windows
                0x00000000c0205d80                sysctl_tcp_mtu_probing
                0x00000000c0205d84                sysctl_tcp_orphan_retries
                0x00000000c0205d88                sysctl_tcp_tw_reuse
                0x00000000c0205d8c                sysctl_tcp_low_latency
                0x00000000c0205d90                sysctl_tcp_abort_on_overflow
                0x00000000c0205d94                sysctl_tcp_syncookies
                0x00000000c0205d98                sysctl_tcp_max_ssthresh
                0x00000000c02061a0                udp_hash
                0x00000000c02063a0                sysctl_udp_mem
                0x00000000c02063ac                sysctl_udp_rmem_min
                0x00000000c02063b0                sysctl_udp_wmem_min
                0x00000000c02063b4                udp_memory_allocated
                0x00000000c02063b4                udp_hash_lock
                0x00000000c02063b8                udplite_hash
                0x00000000c02065b8                sysctl_ip_dynaddr
                0x00000000c0206614                sysctl_ip_nonlocal_bind
                0x00000000c0206618                inet_ehash_secret
                0x00000000c020661c                ipv4_config
                0x00000000c0206a44                ip_nat_decode_session
                0x00000000c0206a70                xfrm_policy_count
                0x00000000c0206c64                xfrm_nl
                0x00000000c0207074                unix_tot_inflight
 .bss           0x00000000c020707c        0x0 lib/lib.a(klist.o)
 *(COMMON)
                0x00000000c020707c                _end = .

.stab
 *(.stab)

.stabstr
 *(.stabstr)

.stab.excl
 *(.stab.excl)

.stab.exclstr
 *(.stab.exclstr)

.stab.index
 *(.stab.index)

.stab.indexstr
 *(.stab.indexstr)

.ARM.attributes
                0x0000000000000000       0x27
 .ARM.attributes
                0x0000000000000000       0x1b usr/built-in.o
 .ARM.attributes
                0x000000000000001b       0x1b arch/arm/kernel/head.o
 .ARM.attributes
                0x0000000000000036       0x2b arch/arm/kernel/init_task.o
 .ARM.attributes
                0x0000000000000061       0x2b init/built-in.o
 .ARM.attributes
                0x000000000000008c       0x2b arch/arm/mach-GM/platform-GM8126/built-in.o
 .ARM.attributes
                0x00000000000000b7       0x29 arch/arm/kernel/built-in.o
 .ARM.attributes
                0x00000000000000e0       0x29 arch/arm/mm/built-in.o
 .ARM.attributes
                0x0000000000000109       0x2b arch/arm/mach-GM/built-in.o
 .ARM.attributes
                0x0000000000000134       0x2b kernel/built-in.o
 .ARM.attributes
                0x000000000000015f       0x2b mm/built-in.o
 .ARM.attributes
                0x000000000000018a       0x2b fs/built-in.o
 .ARM.attributes
                0x00000000000001b5       0x2b ipc/built-in.o
 .ARM.attributes
                0x00000000000001e0       0x2b security/built-in.o
 .ARM.attributes
                0x000000000000020b       0x2b crypto/built-in.o
 .ARM.attributes
                0x0000000000000236       0x2b block/built-in.o
 .ARM.attributes
                0x0000000000000261       0x1b arch/arm/lib/lib.a(ashldi3.o)
 .ARM.attributes
                0x000000000000027c       0x1b arch/arm/lib/lib.a(ashrdi3.o)
 .ARM.attributes
                0x0000000000000297       0x1b arch/arm/lib/lib.a(backtrace.o)
 .ARM.attributes
                0x00000000000002b2       0x1b arch/arm/lib/lib.a(changebit.o)
 .ARM.attributes
                0x00000000000002cd       0x1b arch/arm/lib/lib.a(clear_user.o)
 .ARM.attributes
                0x00000000000002e8       0x1b arch/arm/lib/lib.a(clearbit.o)
 .ARM.attributes
                0x0000000000000303       0x1b arch/arm/lib/lib.a(copy_from_user.o)
 .ARM.attributes
                0x000000000000031e       0x1b arch/arm/lib/lib.a(copy_page.o)
 .ARM.attributes
                0x0000000000000339       0x1b arch/arm/lib/lib.a(copy_to_user.o)
 .ARM.attributes
                0x0000000000000354       0x1b arch/arm/lib/lib.a(csumipv6.o)
 .ARM.attributes
                0x000000000000036f       0x1b arch/arm/lib/lib.a(csumpartial.o)
 .ARM.attributes
                0x000000000000038a       0x1b arch/arm/lib/lib.a(csumpartialcopy.o)
 .ARM.attributes
                0x00000000000003a5       0x1b arch/arm/lib/lib.a(csumpartialcopyuser.o)
 .ARM.attributes
                0x00000000000003c0       0x1b arch/arm/lib/lib.a(delay.o)
 .ARM.attributes
                0x00000000000003db       0x1b arch/arm/lib/lib.a(div64.o)
 .ARM.attributes
                0x00000000000003f6       0x1b arch/arm/lib/lib.a(findbit.o)
 .ARM.attributes
                0x0000000000000411       0x1b arch/arm/lib/lib.a(getuser.o)
 .ARM.attributes
                0x000000000000042c       0x1b arch/arm/lib/lib.a(io-readsb.o)
 .ARM.attributes
                0x0000000000000447       0x1b arch/arm/lib/lib.a(io-readsl.o)
 .ARM.attributes
                0x0000000000000462       0x1b arch/arm/lib/lib.a(io-readsw-armv4.o)
 .ARM.attributes
                0x000000000000047d       0x1b arch/arm/lib/lib.a(io-writesb.o)
 .ARM.attributes
                0x0000000000000498       0x1b arch/arm/lib/lib.a(io-writesl.o)
 .ARM.attributes
                0x00000000000004b3       0x1b arch/arm/lib/lib.a(io-writesw-armv4.o)
 .ARM.attributes
                0x00000000000004ce       0x1b arch/arm/lib/lib.a(lib1funcs.o)
 .ARM.attributes
                0x00000000000004e9       0x1b arch/arm/lib/lib.a(lshrdi3.o)
 .ARM.attributes
                0x0000000000000504       0x1b arch/arm/lib/lib.a(memchr.o)
 .ARM.attributes
                0x000000000000051f       0x1b arch/arm/lib/lib.a(memcpy.o)
 .ARM.attributes
                0x000000000000053a       0x1b arch/arm/lib/lib.a(memmove.o)
 .ARM.attributes
                0x0000000000000555       0x1b arch/arm/lib/lib.a(memset.o)
 .ARM.attributes
                0x0000000000000570       0x1b arch/arm/lib/lib.a(memzero.o)
 .ARM.attributes
                0x000000000000058b       0x1b arch/arm/lib/lib.a(muldi3.o)
 .ARM.attributes
                0x00000000000005a6       0x1b arch/arm/lib/lib.a(putuser.o)
 .ARM.attributes
                0x00000000000005c1       0x1b arch/arm/lib/lib.a(setbit.o)
 .ARM.attributes
                0x00000000000005dc       0x1b arch/arm/lib/lib.a(sha1.o)
 .ARM.attributes
                0x00000000000005f7       0x1b arch/arm/lib/lib.a(strchr.o)
 .ARM.attributes
                0x0000000000000612       0x1b arch/arm/lib/lib.a(strncpy_from_user.o)
 .ARM.attributes
                0x000000000000062d       0x1b arch/arm/lib/lib.a(strnlen_user.o)
 .ARM.attributes
                0x0000000000000648       0x1b arch/arm/lib/lib.a(strrchr.o)
 .ARM.attributes
                0x0000000000000663       0x1b arch/arm/lib/lib.a(testchangebit.o)
 .ARM.attributes
                0x000000000000067e       0x1b arch/arm/lib/lib.a(testclearbit.o)
 .ARM.attributes
                0x0000000000000699       0x1b arch/arm/lib/lib.a(testsetbit.o)
 .ARM.attributes
                0x00000000000006b4       0x1b arch/arm/lib/lib.a(ucmpdi2.o)
 .ARM.attributes
                0x00000000000006cf       0x2b lib/lib.a(argv_split.o)
 .ARM.attributes
                0x00000000000006fa       0x2b lib/lib.a(cmdline.o)
 .ARM.attributes
                0x0000000000000725       0x2b lib/lib.a(ctype.o)
 .ARM.attributes
                0x0000000000000750       0x2b lib/lib.a(dec_and_lock.o)
 .ARM.attributes
                0x000000000000077b       0x2b lib/lib.a(extable.o)
 .ARM.attributes
                0x00000000000007a6       0x2b lib/lib.a(idr.o)
 .ARM.attributes
                0x00000000000007d1       0x2b lib/lib.a(int_sqrt.o)
 .ARM.attributes
                0x00000000000007fc       0x2b lib/lib.a(irq_regs.o)
 .ARM.attributes
                0x0000000000000827       0x2b lib/lib.a(kobject.o)
 .ARM.attributes
                0x0000000000000852       0x2b lib/lib.a(kref.o)
 .ARM.attributes
                0x000000000000087d       0x2b lib/lib.a(prio_tree.o)
 .ARM.attributes
                0x00000000000008a8       0x2b lib/lib.a(proportions.o)
 .ARM.attributes
                0x00000000000008d3       0x2b lib/lib.a(radix-tree.o)
 .ARM.attributes
                0x00000000000008fe       0x2b lib/lib.a(ratelimit.o)
 .ARM.attributes
                0x0000000000000929       0x2b lib/lib.a(rbtree.o)
 .ARM.attributes
                0x0000000000000954       0x2b lib/lib.a(reciprocal_div.o)
 .ARM.attributes
                0x000000000000097f       0x2b lib/lib.a(rwsem-spinlock.o)
 .ARM.attributes
                0x00000000000009aa       0x2b lib/lib.a(string.o)
 .ARM.attributes
                0x00000000000009d5       0x2b lib/lib.a(vsprintf.o)
 .ARM.attributes
                0x0000000000000a00       0x2b lib/built-in.o
 .ARM.attributes
                0x0000000000000a2b       0x2b drivers/built-in.o
 .ARM.attributes
                0x0000000000000a56       0x2b net/built-in.o
 .ARM.attributes
                0x0000000000000a81       0x2b lib/lib.a(klist.o)

.note.GNU-stack
                0x0000000000000000        0x0
 .note.GNU-stack
                0x0000000000000000        0x0 arch/arm/kernel/init_task.o
 .note.GNU-stack
                0x0000000000000000        0x0 init/built-in.o
 .note.GNU-stack
                0x0000000000000000        0x0 arch/arm/mach-GM/platform-GM8126/built-in.o
 .note.GNU-stack
                0x0000000000000000        0x0 arch/arm/kernel/built-in.o
 .note.GNU-stack
                0x0000000000000000        0x0 arch/arm/mm/built-in.o
 .note.GNU-stack
                0x0000000000000000        0x0 arch/arm/mach-GM/built-in.o
 .note.GNU-stack
                0x0000000000000000        0x0 kernel/built-in.o
 .note.GNU-stack
                0x0000000000000000        0x0 mm/built-in.o
 .note.GNU-stack
                0x0000000000000000        0x0 fs/built-in.o
 .note.GNU-stack
                0x0000000000000000        0x0 ipc/built-in.o
 .note.GNU-stack
                0x0000000000000000        0x0 security/built-in.o
 .note.GNU-stack
                0x0000000000000000        0x0 crypto/built-in.o
 .note.GNU-stack
                0x0000000000000000        0x0 block/built-in.o
 .note.GNU-stack
                0x0000000000000000        0x0 lib/lib.a(argv_split.o)
 .note.GNU-stack
                0x0000000000000000        0x0 lib/lib.a(cmdline.o)
 .note.GNU-stack
                0x0000000000000000        0x0 lib/lib.a(ctype.o)
 .note.GNU-stack
                0x0000000000000000        0x0 lib/lib.a(dec_and_lock.o)
 .note.GNU-stack
                0x0000000000000000        0x0 lib/lib.a(extable.o)
 .note.GNU-stack
                0x0000000000000000        0x0 lib/lib.a(idr.o)
 .note.GNU-stack
                0x0000000000000000        0x0 lib/lib.a(int_sqrt.o)
 .note.GNU-stack
                0x0000000000000000        0x0 lib/lib.a(irq_regs.o)
 .note.GNU-stack
                0x0000000000000000        0x0 lib/lib.a(kobject.o)
 .note.GNU-stack
                0x0000000000000000        0x0 lib/lib.a(kref.o)
 .note.GNU-stack
                0x0000000000000000        0x0 lib/lib.a(prio_tree.o)
 .note.GNU-stack
                0x0000000000000000        0x0 lib/lib.a(proportions.o)
 .note.GNU-stack
                0x0000000000000000        0x0 lib/lib.a(radix-tree.o)
 .note.GNU-stack
                0x0000000000000000        0x0 lib/lib.a(ratelimit.o)
 .note.GNU-stack
                0x0000000000000000        0x0 lib/lib.a(rbtree.o)
 .note.GNU-stack
                0x0000000000000000        0x0 lib/lib.a(reciprocal_div.o)
 .note.GNU-stack
                0x0000000000000000        0x0 lib/lib.a(rwsem-spinlock.o)
 .note.GNU-stack
                0x0000000000000000        0x0 lib/lib.a(string.o)
 .note.GNU-stack
                0x0000000000000000        0x0 lib/lib.a(vsprintf.o)
 .note.GNU-stack
                0x0000000000000000        0x0 lib/built-in.o
 .note.GNU-stack
                0x0000000000000000        0x0 drivers/built-in.o
 .note.GNU-stack
                0x0000000000000000        0x0 net/built-in.o
 .note.GNU-stack
                0x0000000000000000        0x0 lib/lib.a(klist.o)

.comment        0x0000000000000000       0x26
 *(.comment)
 .comment       0x0000000000000000       0x26 arch/arm/kernel/init_task.o
                                         0x27 (size before relaxing)
 .comment       0x0000000000000000      0x111 init/built-in.o
 .comment       0x0000000000000000       0xc3 arch/arm/mach-GM/platform-GM8126/built-in.o
 .comment       0x0000000000000000      0x249 arch/arm/kernel/built-in.o
 .comment       0x0000000000000000      0x222 arch/arm/mm/built-in.o
 .comment       0x0000000000000000      0x111 arch/arm/mach-GM/built-in.o
 .comment       0x0000000000000000      0x9e7 kernel/built-in.o
 .comment       0x0000000000000000      0x618 mm/built-in.o
 .comment       0x0000000000000000      0xfb1 fs/built-in.o
 .comment       0x0000000000000000      0x111 ipc/built-in.o
 .comment       0x0000000000000000       0x27 security/built-in.o
 .comment       0x0000000000000000       0x9c crypto/built-in.o
 .comment       0x0000000000000000      0x30c block/built-in.o
 .comment       0x0000000000000000       0x27 lib/lib.a(argv_split.o)
 .comment       0x0000000000000000       0x27 lib/lib.a(cmdline.o)
 .comment       0x0000000000000000       0x27 lib/lib.a(ctype.o)
 .comment       0x0000000000000000       0x27 lib/lib.a(dec_and_lock.o)
 .comment       0x0000000000000000       0x27 lib/lib.a(extable.o)
 .comment       0x0000000000000000       0x27 lib/lib.a(idr.o)
 .comment       0x0000000000000000       0x27 lib/lib.a(int_sqrt.o)
 .comment       0x0000000000000000       0x27 lib/lib.a(irq_regs.o)
 .comment       0x0000000000000000       0x27 lib/lib.a(kobject.o)
 .comment       0x0000000000000000       0x27 lib/lib.a(kref.o)
 .comment       0x0000000000000000       0x27 lib/lib.a(prio_tree.o)
 .comment       0x0000000000000000       0x27 lib/lib.a(proportions.o)
 .comment       0x0000000000000000       0x27 lib/lib.a(radix-tree.o)
 .comment       0x0000000000000000       0x27 lib/lib.a(ratelimit.o)
 .comment       0x0000000000000000       0x27 lib/lib.a(rbtree.o)
 .comment       0x0000000000000000       0x27 lib/lib.a(reciprocal_div.o)
 .comment       0x0000000000000000       0x27 lib/lib.a(rwsem-spinlock.o)
 .comment       0x0000000000000000       0x27 lib/lib.a(string.o)
 .comment       0x0000000000000000       0x27 lib/lib.a(vsprintf.o)
 .comment       0x0000000000000000      0x41d lib/built-in.o
 .comment       0x0000000000000000      0xca5 drivers/built-in.o
 .comment       0x0000000000000000      0xdb6 net/built-in.o
 .comment       0x0000000000000000       0x27 lib/lib.a(klist.o)
                0x0000000000000034                ASSERT ((__proc_info_end - __proc_info_begin), missing CPU support)
                0x0000000000000034                ASSERT ((__arch_info_end - __arch_info_begin), no machine record defined)
LOAD arch/arm/kernel/head.o
LOAD arch/arm/kernel/init_task.o
LOAD init/built-in.o
START GROUP
LOAD usr/built-in.o
LOAD arch/arm/mach-GM/platform-GM8126/built-in.o
LOAD arch/arm/kernel/built-in.o
LOAD arch/arm/mm/built-in.o
LOAD arch/arm/common/built-in.o
LOAD arch/arm/mach-GM/built-in.o
LOAD kernel/built-in.o
LOAD mm/built-in.o
LOAD fs/built-in.o
LOAD ipc/built-in.o
LOAD security/built-in.o
LOAD crypto/built-in.o
LOAD block/built-in.o
LOAD arch/arm/lib/lib.a
LOAD lib/lib.a
LOAD arch/arm/lib/built-in.o
LOAD lib/built-in.o
LOAD drivers/built-in.o
LOAD sound/built-in.o
LOAD firmware/built-in.o
LOAD net/built-in.o
END GROUP
OUTPUT(vmlinux elf32-littlearm)

.debug_abbrev   0x0000000000000000    0x93c9c
 .debug_abbrev  0x0000000000000000      0x2c9 arch/arm/kernel/init_task.o
 .debug_abbrev  0x00000000000002c9     0x1c14 init/built-in.o
 .debug_abbrev  0x0000000000001edd     0x11b5 arch/arm/mach-GM/platform-GM8126/built-in.o
 .debug_abbrev  0x0000000000003092     0x3b5e arch/arm/kernel/built-in.o
 .debug_abbrev  0x0000000000006bf0     0x3848 arch/arm/mm/built-in.o
 .debug_abbrev  0x000000000000a438     0x1ea3 arch/arm/mach-GM/built-in.o
 .debug_abbrev  0x000000000000c2db    0x13494 kernel/built-in.o
 .debug_abbrev  0x000000000001f76f     0xc364 mm/built-in.o
 .debug_abbrev  0x000000000002bad3    0x1df7e fs/built-in.o
 .debug_abbrev  0x0000000000049a51     0x226e ipc/built-in.o
 .debug_abbrev  0x000000000004bcbf      0x568 security/built-in.o
 .debug_abbrev  0x000000000004c227     0x11c4 crypto/built-in.o
 .debug_abbrev  0x000000000004d3eb     0x6387 block/built-in.o
 .debug_abbrev  0x0000000000053772      0x3c7 lib/lib.a(argv_split.o)
 .debug_abbrev  0x0000000000053b39      0x319 lib/lib.a(cmdline.o)
 .debug_abbrev  0x0000000000053e52      0x261 lib/lib.a(ctype.o)
 .debug_abbrev  0x00000000000540b3      0x318 lib/lib.a(dec_and_lock.o)
 .debug_abbrev  0x00000000000543cb      0x2e1 lib/lib.a(extable.o)
 .debug_abbrev  0x00000000000546ac      0x5c3 lib/lib.a(idr.o)
 .debug_abbrev  0x0000000000054c6f      0x287 lib/lib.a(int_sqrt.o)
 .debug_abbrev  0x0000000000054ef6      0x261 lib/lib.a(irq_regs.o)
 .debug_abbrev  0x0000000000055157      0x5f3 lib/lib.a(kobject.o)
 .debug_abbrev  0x000000000005574a      0x367 lib/lib.a(kref.o)
 .debug_abbrev  0x0000000000055ab1      0x417 lib/lib.a(prio_tree.o)
 .debug_abbrev  0x0000000000055ec8      0x459 lib/lib.a(proportions.o)
 .debug_abbrev  0x0000000000056321      0x58c lib/lib.a(radix-tree.o)
 .debug_abbrev  0x00000000000568ad      0x310 lib/lib.a(ratelimit.o)
 .debug_abbrev  0x0000000000056bbd      0x458 lib/lib.a(rbtree.o)
 .debug_abbrev  0x0000000000057015       0xaf lib/lib.a(reciprocal_div.o)
 .debug_abbrev  0x00000000000570c4      0x4de lib/lib.a(rwsem-spinlock.o)
 .debug_abbrev  0x00000000000575a2      0x47b lib/lib.a(string.o)
 .debug_abbrev  0x0000000000057a1d      0x48d lib/lib.a(vsprintf.o)
 .debug_abbrev  0x0000000000057eaa     0x5185 lib/built-in.o
 .debug_abbrev  0x000000000005d02f    0x18fa9 drivers/built-in.o
 .debug_abbrev  0x0000000000075fd8    0x1d7e0 net/built-in.o
 .debug_abbrev  0x00000000000937b8      0x4e4 lib/lib.a(klist.o)

.debug_info     0x0000000000000000  0x107f2b3
 .debug_info    0x0000000000000000     0x8c8a arch/arm/kernel/init_task.o
 .debug_info    0x0000000000008c8a    0x22b9d init/built-in.o
 .debug_info    0x000000000002b827    0x14a45 arch/arm/mach-GM/platform-GM8126/built-in.o
 .debug_info    0x000000000004026c    0x4eb09 arch/arm/kernel/built-in.o
 .debug_info    0x000000000008ed75    0x46a0f arch/arm/mm/built-in.o
 .debug_info    0x00000000000d5784    0x225f9 arch/arm/mach-GM/built-in.o
 .debug_info    0x00000000000f7d7d   0x1a49c1 kernel/built-in.o
 .debug_info    0x000000000029c73e   0x15e5fe mm/built-in.o
 .debug_info    0x00000000003fad3c   0x325e5f fs/built-in.o
 .debug_info    0x0000000000720b9b    0x3566e ipc/built-in.o
 .debug_info    0x0000000000756209     0x8a90 security/built-in.o
 .debug_info    0x000000000075ec99    0x20f0b crypto/built-in.o
 .debug_info    0x000000000077fba4    0xcfd6b block/built-in.o
 .debug_info    0x000000000084f90f     0x322f lib/lib.a(argv_split.o)
 .debug_info    0x0000000000852b3e     0x3143 lib/lib.a(cmdline.o)
 .debug_info    0x0000000000855c81     0x2f4c lib/lib.a(ctype.o)
 .debug_info    0x0000000000858bcd     0x359f lib/lib.a(dec_and_lock.o)
 .debug_info    0x000000000085c16c     0x2ecd lib/lib.a(extable.o)
 .debug_info    0x000000000085f039     0x4d2e lib/lib.a(idr.o)
 .debug_info    0x0000000000863d67     0x2f74 lib/lib.a(int_sqrt.o)
 .debug_info    0x0000000000866cdb     0x2f6d lib/lib.a(irq_regs.o)
 .debug_info    0x0000000000869c48     0x5362 lib/lib.a(kobject.o)
 .debug_info    0x000000000086efaa     0x3234 lib/lib.a(kref.o)
 .debug_info    0x00000000008721de     0x1d13 lib/lib.a(prio_tree.o)
 .debug_info    0x0000000000873ef1     0x1dde lib/lib.a(proportions.o)
 .debug_info    0x0000000000875ccf     0x5102 lib/lib.a(radix-tree.o)
 .debug_info    0x000000000087add1     0x34eb lib/lib.a(ratelimit.o)
 .debug_info    0x000000000087e2bc     0x35df lib/lib.a(rbtree.o)
 .debug_info    0x000000000088189b      0x13a lib/lib.a(reciprocal_div.o)
 .debug_info    0x00000000008819d5     0x4513 lib/lib.a(rwsem-spinlock.o)
 .debug_info    0x0000000000885ee8     0x3ddc lib/lib.a(string.o)
 .debug_info    0x0000000000889cc4     0x435a lib/lib.a(vsprintf.o)
 .debug_info    0x000000000088e01e    0x52209 lib/built-in.o
 .debug_info    0x00000000008e0227   0x2821a8 drivers/built-in.o
 .debug_info    0x0000000000b623cf   0x518afe net/built-in.o
 .debug_info    0x000000000107aecd     0x43e6 lib/lib.a(klist.o)

.debug_line     0x0000000000000000   0x12c0d5
 .debug_line    0x0000000000000000      0x626 arch/arm/kernel/init_task.o
 .debug_line    0x0000000000000626     0x3478 init/built-in.o
 .debug_line    0x0000000000003a9e     0x183e arch/arm/mach-GM/platform-GM8126/built-in.o
 .debug_line    0x00000000000052dc     0x54bb arch/arm/kernel/built-in.o
 .debug_line    0x000000000000a797     0x5078 arch/arm/mm/built-in.o
 .debug_line    0x000000000000f80f     0x35d0 arch/arm/mach-GM/built-in.o
 .debug_line    0x0000000000012ddf    0x24cca kernel/built-in.o
 .debug_line    0x0000000000037aa9    0x1cdf2 mm/built-in.o
 .debug_line    0x000000000005489b    0x390a9 fs/built-in.o
 .debug_line    0x000000000008d944     0x4486 ipc/built-in.o
 .debug_line    0x0000000000091dca      0x8e2 security/built-in.o
 .debug_line    0x00000000000926ac     0x1a30 crypto/built-in.o
 .debug_line    0x00000000000940dc     0xbd7c block/built-in.o
 .debug_line    0x000000000009fe58      0x3f6 lib/lib.a(argv_split.o)
 .debug_line    0x00000000000a024e      0x3b5 lib/lib.a(cmdline.o)
 .debug_line    0x00000000000a0603      0x34f lib/lib.a(ctype.o)
 .debug_line    0x00000000000a0952      0x3ea lib/lib.a(dec_and_lock.o)
 .debug_line    0x00000000000a0d3c      0x378 lib/lib.a(extable.o)
 .debug_line    0x00000000000a10b4      0x9a6 lib/lib.a(idr.o)
 .debug_line    0x00000000000a1a5a      0x367 lib/lib.a(int_sqrt.o)
 .debug_line    0x00000000000a1dc1      0x361 lib/lib.a(irq_regs.o)
 .debug_line    0x00000000000a2122      0x7d8 lib/lib.a(kobject.o)
 .debug_line    0x00000000000a28fa      0x3d6 lib/lib.a(kref.o)
 .debug_line    0x00000000000a2cd0      0x532 lib/lib.a(prio_tree.o)
 .debug_line    0x00000000000a3202      0x50f lib/lib.a(proportions.o)
 .debug_line    0x00000000000a3711      0xa1a lib/lib.a(radix-tree.o)
 .debug_line    0x00000000000a412b      0x429 lib/lib.a(ratelimit.o)
 .debug_line    0x00000000000a4554      0x5aa lib/lib.a(rbtree.o)
 .debug_line    0x00000000000a4afe       0xd5 lib/lib.a(reciprocal_div.o)
 .debug_line    0x00000000000a4bd3      0x748 lib/lib.a(rwsem-spinlock.o)
 .debug_line    0x00000000000a531b      0x5d4 lib/lib.a(string.o)
 .debug_line    0x00000000000a58ef      0xa1d lib/lib.a(vsprintf.o)
 .debug_line    0x00000000000a630c     0x7120 lib/built-in.o
 .debug_line    0x00000000000ad42c    0x2ae33 drivers/built-in.o
 .debug_line    0x00000000000d825f    0x53856 net/built-in.o
 .debug_line    0x000000000012bab5      0x620 lib/lib.a(klist.o)

.debug_pubnames
                0x0000000000000000    0x1b527
 .debug_pubnames
                0x0000000000000000       0x42 arch/arm/kernel/init_task.o
 .debug_pubnames
                0x0000000000000042      0x309 init/built-in.o
 .debug_pubnames
                0x000000000000034b      0xa5f arch/arm/mach-GM/platform-GM8126/built-in.o
 .debug_pubnames
                0x0000000000000daa      0x90a arch/arm/kernel/built-in.o
 .debug_pubnames
                0x00000000000016b4      0x529 arch/arm/mm/built-in.o
 .debug_pubnames
                0x0000000000001bdd      0x768 arch/arm/mach-GM/built-in.o
 .debug_pubnames
                0x0000000000002345     0x50d7 kernel/built-in.o
 .debug_pubnames
                0x000000000000741c     0x2b43 mm/built-in.o
 .debug_pubnames
                0x0000000000009f5f     0x4c5d fs/built-in.o
 .debug_pubnames
                0x000000000000ebbc      0x3f7 ipc/built-in.o
 .debug_pubnames
                0x000000000000efb3      0x22b security/built-in.o
 .debug_pubnames
                0x000000000000f1de      0x268 crypto/built-in.o
 .debug_pubnames
                0x000000000000f446     0x11ae block/built-in.o
 .debug_pubnames
                0x00000000000105f4       0x2f lib/lib.a(argv_split.o)
 .debug_pubnames
                0x0000000000010623       0x3e lib/lib.a(cmdline.o)
 .debug_pubnames
                0x0000000000010661       0x1d lib/lib.a(ctype.o)
 .debug_pubnames
                0x000000000001067e       0x2b lib/lib.a(dec_and_lock.o)
 .debug_pubnames
                0x00000000000106a9       0x36 lib/lib.a(extable.o)
 .debug_pubnames
                0x00000000000106df      0x12a lib/lib.a(idr.o)
 .debug_pubnames
                0x0000000000010809       0x1f lib/lib.a(int_sqrt.o)
 .debug_pubnames
                0x0000000000010828       0x2a lib/lib.a(irq_regs.o)
 .debug_pubnames
                0x0000000000010852      0x169 lib/lib.a(kobject.o)
 .debug_pubnames
                0x00000000000109bb       0x47 lib/lib.a(kref.o)
 .debug_pubnames
                0x0000000000010a02       0x78 lib/lib.a(prio_tree.o)
 .debug_pubnames
                0x0000000000010a7a      0x12b lib/lib.a(proportions.o)
 .debug_pubnames
                0x0000000000010ba5      0x198 lib/lib.a(radix-tree.o)
 .debug_pubnames
                0x0000000000010d3d       0x22 lib/lib.a(ratelimit.o)
 .debug_pubnames
                0x0000000000010d5f       0x78 lib/lib.a(rbtree.o)
 .debug_pubnames
                0x0000000000010dd7       0x27 lib/lib.a(reciprocal_div.o)
 .debug_pubnames
                0x0000000000010dfe       0xc0 lib/lib.a(rwsem-spinlock.o)
 .debug_pubnames
                0x0000000000010ebe      0x12b lib/lib.a(string.o)
 .debug_pubnames
                0x0000000000010fe9      0x112 lib/lib.a(vsprintf.o)
 .debug_pubnames
                0x00000000000110fb      0x99f lib/built-in.o
 .debug_pubnames
                0x0000000000011a9a     0x3b6c drivers/built-in.o
 .debug_pubnames
                0x0000000000015606     0x5e2a net/built-in.o
 .debug_pubnames
                0x000000000001b430       0xf7 lib/lib.a(klist.o)

.debug_pubtypes
                0x0000000000000000   0x1c7d84
 .debug_pubtypes
                0x0000000000000000     0x1140 arch/arm/kernel/init_task.o
 .debug_pubtypes
                0x0000000000001140     0x3e7a init/built-in.o
 .debug_pubtypes
                0x0000000000004fba     0x2d01 arch/arm/mach-GM/platform-GM8126/built-in.o
 .debug_pubtypes
                0x0000000000007cbb     0x9de0 arch/arm/kernel/built-in.o
 .debug_pubtypes
                0x0000000000011a9b     0x9154 arch/arm/mm/built-in.o
 .debug_pubtypes
                0x000000000001abef     0x42b3 arch/arm/mach-GM/built-in.o
 .debug_pubtypes
                0x000000000001eea2    0x2dfa8 kernel/built-in.o
 .debug_pubtypes
                0x000000000004ce4a    0x2410b mm/built-in.o
 .debug_pubtypes
                0x0000000000070f55    0x597e7 fs/built-in.o
 .debug_pubtypes
                0x00000000000ca73c     0x5bbd ipc/built-in.o
 .debug_pubtypes
                0x00000000000d02f9      0xf56 security/built-in.o
 .debug_pubtypes
                0x00000000000d124f     0x3fc6 crypto/built-in.o
 .debug_pubtypes
                0x00000000000d5215    0x19996 block/built-in.o
 .debug_pubtypes
                0x00000000000eebab      0x786 lib/lib.a(argv_split.o)
 .debug_pubtypes
                0x00000000000ef331      0x77c lib/lib.a(cmdline.o)
 .debug_pubtypes
                0x00000000000efaad      0x77c lib/lib.a(ctype.o)
 .debug_pubtypes
                0x00000000000f0229      0x83d lib/lib.a(dec_and_lock.o)
 .debug_pubtypes
                0x00000000000f0a66      0x747 lib/lib.a(extable.o)
 .debug_pubtypes
                0x00000000000f11ad      0x874 lib/lib.a(idr.o)
 .debug_pubtypes
                0x00000000000f1a21      0x77c lib/lib.a(int_sqrt.o)
 .debug_pubtypes
                0x00000000000f219d      0x788 lib/lib.a(irq_regs.o)
 .debug_pubtypes
                0x00000000000f2925      0x9bf lib/lib.a(kobject.o)
 .debug_pubtypes
                0x00000000000f32e4      0x785 lib/lib.a(kref.o)
 .debug_pubtypes
                0x00000000000f3a69      0x30e lib/lib.a(prio_tree.o)
 .debug_pubtypes
                0x00000000000f3d77      0x2fb lib/lib.a(proportions.o)
 .debug_pubtypes
                0x00000000000f4072      0x89a lib/lib.a(radix-tree.o)
 .debug_pubtypes
                0x00000000000f490c      0x814 lib/lib.a(ratelimit.o)
 .debug_pubtypes
                0x00000000000f5120      0x77c lib/lib.a(rbtree.o)
 .debug_pubtypes
                0x00000000000f589c       0x22 lib/lib.a(reciprocal_div.o)
 .debug_pubtypes
                0x00000000000f58be      0x861 lib/lib.a(rwsem-spinlock.o)
 .debug_pubtypes
                0x00000000000f611f      0x785 lib/lib.a(string.o)
 .debug_pubtypes
                0x00000000000f68a4      0x7da lib/lib.a(vsprintf.o)
 .debug_pubtypes
                0x00000000000f707e     0xb875 lib/built-in.o
 .debug_pubtypes
                0x00000000001028f3    0x4abab drivers/built-in.o
 .debug_pubtypes
                0x000000000014d49e    0x7a06f net/built-in.o
 .debug_pubtypes
                0x00000000001c750d      0x877 lib/lib.a(klist.o)

.debug_str      0x0000000000000000    0x7323b
 .debug_str     0x0000000000000000     0x41c6 arch/arm/kernel/init_task.o
                                       0x5554 (size before relaxing)
 .debug_str     0x00000000000041c6     0x22da init/built-in.o
                                      0x10ac7 (size before relaxing)
 .debug_str     0x00000000000064a0     0x26a0 arch/arm/mach-GM/platform-GM8126/built-in.o
                                       0xc3f2 (size before relaxing)
 .debug_str     0x0000000000008b40     0x2c5f arch/arm/kernel/built-in.o
                                      0x282a9 (size before relaxing)
 .debug_str     0x000000000000b79f     0x181a arch/arm/mm/built-in.o
                                      0x24799 (size before relaxing)
 .debug_str     0x000000000000cfb9     0x192e arch/arm/mach-GM/built-in.o
                                      0x11404 (size before relaxing)
 .debug_str     0x000000000000e8e7    0x110a6 kernel/built-in.o
                                      0xc3622 (size before relaxing)
 .debug_str     0x000000000001f98d     0x929b mm/built-in.o
                                      0x97530 (size before relaxing)
 .debug_str     0x0000000000028c28    0x10d58 fs/built-in.o
                                     0x1746b9 (size before relaxing)
 .debug_str     0x0000000000039980     0x1103 ipc/built-in.o
                                      0x16e7a (size before relaxing)
 .debug_str     0x000000000003aa83      0x309 security/built-in.o
                                       0x4137 (size before relaxing)
 .debug_str     0x000000000003ad8c      0xc76 crypto/built-in.o
                                       0xf3a5 (size before relaxing)
 .debug_str     0x000000000003ba02     0x5241 block/built-in.o
                                      0x63775 (size before relaxing)
 .debug_str     0x0000000000040c43       0x8c lib/lib.a(argv_split.o)
                                       0x1c37 (size before relaxing)
 .debug_str     0x0000000000040ccf       0xc9 lib/lib.a(cmdline.o)
                                       0x1c35 (size before relaxing)
 .debug_str     0x0000000000040d98       0x2e lib/lib.a(ctype.o)
                                       0x1b75 (size before relaxing)
 .debug_str     0x0000000000040dc6       0x51 lib/lib.a(dec_and_lock.o)
                                       0x1db1 (size before relaxing)
 .debug_str     0x0000000000040e17       0x31 lib/lib.a(extable.o)
                                       0x194b (size before relaxing)
 .debug_str     0x0000000000040e48      0x3c8 lib/lib.a(idr.o)
                                       0x22c1 (size before relaxing)
 .debug_str     0x0000000000041210       0x35 lib/lib.a(int_sqrt.o)
                                       0x1b7e (size before relaxing)
 .debug_str     0x0000000000041245       0x4b lib/lib.a(irq_regs.o)
                                       0x1bad (size before relaxing)
 .debug_str     0x0000000000041290      0x469 lib/lib.a(kobject.o)
                                       0x27a4 (size before relaxing)
 .debug_str     0x00000000000416f9       0xa5 lib/lib.a(kref.o)
                                       0x1c57 (size before relaxing)
 .debug_str     0x000000000004179e      0x12c lib/lib.a(prio_tree.o)
                                       0x1016 (size before relaxing)
 .debug_str     0x00000000000418ca      0x1db lib/lib.a(proportions.o)
                                        0xaea (size before relaxing)
 .debug_str     0x0000000000041aa5      0x54c lib/lib.a(radix-tree.o)
                                       0x2497 (size before relaxing)
 .debug_str     0x0000000000041ff1       0x4b lib/lib.a(ratelimit.o)
                                       0x1b99 (size before relaxing)
 .debug_str     0x000000000004203c      0x18b lib/lib.a(rbtree.o)
                                       0x1d3c (size before relaxing)
 .debug_str     0x00000000000421c7       0x26 lib/lib.a(reciprocal_div.o)
                                        0x12a (size before relaxing)
 .debug_str     0x00000000000421ed      0x234 lib/lib.a(rwsem-spinlock.o)
                                       0x209d (size before relaxing)
 .debug_str     0x0000000000042421      0x364 lib/lib.a(string.o)
                                       0x1fa1 (size before relaxing)
 .debug_str     0x0000000000042785      0x342 lib/lib.a(vsprintf.o)
                                       0x2013 (size before relaxing)
 .debug_str     0x0000000000042ac7     0x1b55 lib/built-in.o
                                      0x2c5d6 (size before relaxing)
 .debug_str     0x000000000004461c    0x11334 drivers/built-in.o
                                     0x1307f2 (size before relaxing)
 .debug_str     0x0000000000055950    0x1d615 net/built-in.o
                                     0x29b932 (size before relaxing)
 .debug_str     0x0000000000072f65      0x2d6 lib/lib.a(klist.o)
                                       0x21be (size before relaxing)

.debug_aranges  0x0000000000000000     0x50e8
 .debug_aranges
                0x0000000000000000      0x2b8 init/built-in.o
 .debug_aranges
                0x00000000000002b8       0xb8 arch/arm/mach-GM/platform-GM8126/built-in.o
 .debug_aranges
                0x0000000000000370      0x288 arch/arm/kernel/built-in.o
 .debug_aranges
                0x00000000000005f8      0x230 arch/arm/mm/built-in.o
 .debug_aranges
                0x0000000000000828      0x120 arch/arm/mach-GM/built-in.o
 .debug_aranges
                0x0000000000000948      0xbc8 kernel/built-in.o
 .debug_aranges
                0x0000000000001510      0x6b8 mm/built-in.o
 .debug_aranges
                0x0000000000001bc8      0xf10 fs/built-in.o
 .debug_aranges
                0x0000000000002ad8      0x110 ipc/built-in.o
 .debug_aranges
                0x0000000000002be8       0x20 security/built-in.o
 .debug_aranges
                0x0000000000002c08       0x80 crypto/built-in.o
 .debug_aranges
                0x0000000000002c88      0x300 block/built-in.o
 .debug_aranges
                0x0000000000002f88       0x20 lib/lib.a(argv_split.o)
 .debug_aranges
                0x0000000000002fa8       0x20 lib/lib.a(cmdline.o)
 .debug_aranges
                0x0000000000002fc8       0x20 lib/lib.a(dec_and_lock.o)
 .debug_aranges
                0x0000000000002fe8       0x20 lib/lib.a(extable.o)
 .debug_aranges
                0x0000000000003008       0x28 lib/lib.a(idr.o)
 .debug_aranges
                0x0000000000003030       0x20 lib/lib.a(int_sqrt.o)
 .debug_aranges
                0x0000000000003050       0x20 lib/lib.a(kobject.o)
 .debug_aranges
                0x0000000000003070       0x20 lib/lib.a(kref.o)
 .debug_aranges
                0x0000000000003090       0x28 lib/lib.a(prio_tree.o)
 .debug_aranges
                0x00000000000030b8       0x20 lib/lib.a(proportions.o)
 .debug_aranges
                0x00000000000030d8       0x28 lib/lib.a(radix-tree.o)
 .debug_aranges
                0x0000000000003100       0x20 lib/lib.a(ratelimit.o)
 .debug_aranges
                0x0000000000003120       0x20 lib/lib.a(rbtree.o)
 .debug_aranges
                0x0000000000003140       0x20 lib/lib.a(reciprocal_div.o)
 .debug_aranges
                0x0000000000003160       0x38 lib/lib.a(rwsem-spinlock.o)
 .debug_aranges
                0x0000000000003198       0x20 lib/lib.a(string.o)
 .debug_aranges
                0x00000000000031b8       0x20 lib/lib.a(vsprintf.o)
 .debug_aranges
                0x00000000000031d8      0x368 lib/built-in.o
 .debug_aranges
                0x0000000000003540      0xd10 drivers/built-in.o
 .debug_aranges
                0x0000000000004250      0xe78 net/built-in.o
 .debug_aranges
                0x00000000000050c8       0x20 lib/lib.a(klist.o)

.debug_frame    0x0000000000000000    0x472e4
 .debug_frame   0x0000000000000000      0xa94 init/built-in.o
 .debug_frame   0x0000000000000a94      0x3d0 arch/arm/mach-GM/platform-GM8126/built-in.o
 .debug_frame   0x0000000000000e64     0x11d0 arch/arm/kernel/built-in.o
 .debug_frame   0x0000000000002034      0xc08 arch/arm/mm/built-in.o
 .debug_frame   0x0000000000002c3c      0xdd8 arch/arm/mach-GM/built-in.o
 .debug_frame   0x0000000000003a14     0xa9c4 kernel/built-in.o
 .debug_frame   0x000000000000e3d8     0x647c mm/built-in.o
 .debug_frame   0x0000000000014854     0xe470 fs/built-in.o
 .debug_frame   0x0000000000022cc4      0xe40 ipc/built-in.o
 .debug_frame   0x0000000000023b04      0x330 security/built-in.o
 .debug_frame   0x0000000000023e34      0x648 crypto/built-in.o
 .debug_frame   0x000000000002447c     0x3924 block/built-in.o
 .debug_frame   0x0000000000027da0       0x60 lib/lib.a(argv_split.o)
 .debug_frame   0x0000000000027e00       0x80 lib/lib.a(cmdline.o)
 .debug_frame   0x0000000000027e80       0x30 lib/lib.a(dec_and_lock.o)
 .debug_frame   0x0000000000027eb0       0x70 lib/lib.a(extable.o)
 .debug_frame   0x0000000000027f20      0x37c lib/lib.a(idr.o)
 .debug_frame   0x000000000002829c       0x30 lib/lib.a(int_sqrt.o)
 .debug_frame   0x00000000000282cc      0x3b4 lib/lib.a(kobject.o)
 .debug_frame   0x0000000000028680       0x98 lib/lib.a(kref.o)
 .debug_frame   0x0000000000028718      0x108 lib/lib.a(prio_tree.o)
 .debug_frame   0x0000000000028820      0x224 lib/lib.a(proportions.o)
 .debug_frame   0x0000000000028a44      0x300 lib/lib.a(radix-tree.o)
 .debug_frame   0x0000000000028d44       0x38 lib/lib.a(ratelimit.o)
 .debug_frame   0x0000000000028d7c      0x144 lib/lib.a(rbtree.o)
 .debug_frame   0x0000000000028ec0       0x34 lib/lib.a(reciprocal_div.o)
 .debug_frame   0x0000000000028ef4      0x158 lib/lib.a(rwsem-spinlock.o)
 .debug_frame   0x000000000002904c      0x324 lib/lib.a(string.o)
 .debug_frame   0x0000000000029370      0x2f0 lib/lib.a(vsprintf.o)
 .debug_frame   0x0000000000029660     0x128c lib/built-in.o
 .debug_frame   0x000000000002a8ec     0xc40c drivers/built-in.o
 .debug_frame   0x0000000000036cf8    0x103c8 net/built-in.o
 .debug_frame   0x00000000000470c0      0x224 lib/lib.a(klist.o)

.debug_loc      0x0000000000000000   0x2e5f5c
 .debug_loc     0x0000000000000000     0x5fed init/built-in.o
 .debug_loc     0x0000000000005fed      0xcf7 arch/arm/mach-GM/platform-GM8126/built-in.o
 .debug_loc     0x0000000000006ce4     0x76dc arch/arm/kernel/built-in.o
 .debug_loc     0x000000000000e3c0     0x7d8e arch/arm/mm/built-in.o
 .debug_loc     0x000000000001614e     0x7aa5 arch/arm/mach-GM/built-in.o
 .debug_loc     0x000000000001dbf3    0x5d108 kernel/built-in.o
 .debug_loc     0x000000000007acfb    0x64fd2 mm/built-in.o
 .debug_loc     0x00000000000dfccd    0x97058 fs/built-in.o
 .debug_loc     0x0000000000176d25     0xfc05 ipc/built-in.o
 .debug_loc     0x000000000018692a      0xca3 security/built-in.o
 .debug_loc     0x00000000001875cd     0x26d0 crypto/built-in.o
 .debug_loc     0x0000000000189c9d    0x1a51e block/built-in.o
 .debug_loc     0x00000000001a41bb      0x302 lib/lib.a(argv_split.o)
 .debug_loc     0x00000000001a44bd      0x280 lib/lib.a(cmdline.o)
 .debug_loc     0x00000000001a473d      0x115 lib/lib.a(dec_and_lock.o)
 .debug_loc     0x00000000001a4852      0x140 lib/lib.a(extable.o)
 .debug_loc     0x00000000001a4992     0x1cdf lib/lib.a(idr.o)
 .debug_loc     0x00000000001a6671       0xdc lib/lib.a(int_sqrt.o)
 .debug_loc     0x00000000001a674d     0x1679 lib/lib.a(kobject.o)
 .debug_loc     0x00000000001a7dc6      0x1e0 lib/lib.a(kref.o)
 .debug_loc     0x00000000001a7fa6      0xb9a lib/lib.a(prio_tree.o)
 .debug_loc     0x00000000001a8b40      0xf7d lib/lib.a(proportions.o)
 .debug_loc     0x00000000001a9abd     0x2158 lib/lib.a(radix-tree.o)
 .debug_loc     0x00000000001abc15      0x126 lib/lib.a(ratelimit.o)
 .debug_loc     0x00000000001abd3b      0x7a4 lib/lib.a(rbtree.o)
 .debug_loc     0x00000000001ac4df       0x9e lib/lib.a(reciprocal_div.o)
 .debug_loc     0x00000000001ac57d      0xf77 lib/lib.a(rwsem-spinlock.o)
 .debug_loc     0x00000000001ad4f4     0x1145 lib/lib.a(string.o)
 .debug_loc     0x00000000001ae639     0x223c lib/lib.a(vsprintf.o)
 .debug_loc     0x00000000001b0875     0x9b8d lib/built-in.o
 .debug_loc     0x00000000001ba402    0x5e8e8 drivers/built-in.o
 .debug_loc     0x0000000000218cea    0xcc6cb net/built-in.o
 .debug_loc     0x00000000002e53b5      0xba7 lib/lib.a(klist.o)

.debug_ranges   0x0000000000000000    0x70b20
 .debug_ranges  0x0000000000000000     0x1318 init/built-in.o
 .debug_ranges  0x0000000000001318      0x580 arch/arm/mach-GM/platform-GM8126/built-in.o
 .debug_ranges  0x0000000000001898     0x1200 arch/arm/kernel/built-in.o
 .debug_ranges  0x0000000000002a98     0x15f0 arch/arm/mm/built-in.o
 .debug_ranges  0x0000000000004088      0xeb0 arch/arm/mach-GM/built-in.o
 .debug_ranges  0x0000000000004f38     0xe4e8 kernel/built-in.o
 .debug_ranges  0x0000000000013420    0x10080 mm/built-in.o
 .debug_ranges  0x00000000000234a0    0x14108 fs/built-in.o
 .debug_ranges  0x00000000000375a8     0x21f8 ipc/built-in.o
 .debug_ranges  0x00000000000397a0      0x810 security/built-in.o
 .debug_ranges  0x0000000000039fb0      0x640 crypto/built-in.o
 .debug_ranges  0x000000000003a5f0     0x3ed8 block/built-in.o
 .debug_ranges  0x000000000003e4c8      0x118 lib/lib.a(argv_split.o)
 .debug_ranges  0x000000000003e5e0      0x478 lib/lib.a(idr.o)
 .debug_ranges  0x000000000003ea58      0x1a8 lib/lib.a(kobject.o)
 .debug_ranges  0x000000000003ec00       0x58 lib/lib.a(kref.o)
 .debug_ranges  0x000000000003ec58      0x218 lib/lib.a(prio_tree.o)
 .debug_ranges  0x000000000003ee70      0x248 lib/lib.a(proportions.o)
 .debug_ranges  0x000000000003f0b8      0x570 lib/lib.a(radix-tree.o)
 .debug_ranges  0x000000000003f628      0x110 lib/lib.a(rbtree.o)
 .debug_ranges  0x000000000003f738       0x30 lib/lib.a(reciprocal_div.o)
 .debug_ranges  0x000000000003f768      0x190 lib/lib.a(rwsem-spinlock.o)
 .debug_ranges  0x000000000003f8f8       0xc8 lib/lib.a(string.o)
 .debug_ranges  0x000000000003f9c0      0x1a8 lib/lib.a(vsprintf.o)
 .debug_ranges  0x000000000003fb68      0xbe8 lib/built-in.o
 .debug_ranges  0x0000000000040750     0xc668 drivers/built-in.o
 .debug_ranges  0x000000000004cdb8    0x23bd0 net/built-in.o
 .debug_ranges  0x0000000000070988      0x198 lib/lib.a(klist.o)
