Archive member included because of file (symbol)

arch/arm/lib/lib.a(ashldi3.o)
                              arch/arm/kernel/built-in.o (__ashldi3)
arch/arm/lib/lib.a(ashrdi3.o)
                              arch/arm/kernel/built-in.o (__ashrdi3)
arch/arm/lib/lib.a(backtrace.o)
                              arch/arm/kernel/built-in.o (__backtrace)
arch/arm/lib/lib.a(changebit.o)
                              arch/arm/kernel/built-in.o (_change_bit_le)
arch/arm/lib/lib.a(clear_user.o)
                              arch/arm/kernel/built-in.o (__clear_user)
arch/arm/lib/lib.a(clearbit.o)
                              arch/arm/kernel/built-in.o (_clear_bit_le)
arch/arm/lib/lib.a(copy_from_user.o)
                              arch/arm/kernel/built-in.o (__copy_from_user)
arch/arm/lib/lib.a(copy_page.o)
                              arch/arm/kernel/built-in.o (copy_page)
arch/arm/lib/lib.a(copy_to_user.o)
                              arch/arm/kernel/built-in.o (__copy_to_user)
arch/arm/lib/lib.a(csumipv6.o)
                              arch/arm/kernel/built-in.o (__csum_ipv6_magic)
arch/arm/lib/lib.a(csumpartial.o)
                              arch/arm/kernel/built-in.o (csum_partial)
arch/arm/lib/lib.a(csumpartialcopy.o)
                              arch/arm/kernel/built-in.o (csum_partial_copy_nocheck)
arch/arm/lib/lib.a(csumpartialcopyuser.o)
                              arch/arm/kernel/built-in.o (csum_partial_copy_from_user)
arch/arm/lib/lib.a(delay.o)   arch/arm/kernel/built-in.o (__udelay)
arch/arm/lib/lib.a(div64.o)   arch/arm/kernel/built-in.o (__do_div64)
arch/arm/lib/lib.a(findbit.o)
                              arch/arm/kernel/built-in.o (_find_first_zero_bit_le)
arch/arm/lib/lib.a(getuser.o)
                              arch/arm/kernel/built-in.o (__get_user_1)
arch/arm/lib/lib.a(io-readsb.o)
                              arch/arm/kernel/built-in.o (__raw_readsb)
arch/arm/lib/lib.a(io-readsl.o)
                              arch/arm/kernel/built-in.o (__raw_readsl)
arch/arm/lib/lib.a(io-readsw-armv4.o)
                              arch/arm/kernel/built-in.o (__raw_readsw)
arch/arm/lib/lib.a(io-writesb.o)
                              arch/arm/kernel/built-in.o (__raw_writesb)
arch/arm/lib/lib.a(io-writesl.o)
                              arch/arm/kernel/built-in.o (__raw_writesl)
arch/arm/lib/lib.a(io-writesw-armv4.o)
                              arch/arm/kernel/built-in.o (__raw_writesw)
arch/arm/lib/lib.a(lib1funcs.o)
                              arch/arm/kernel/built-in.o (__udivsi3)
arch/arm/lib/lib.a(lshrdi3.o)
                              arch/arm/kernel/built-in.o (__lshrdi3)
arch/arm/lib/lib.a(memchr.o)  arch/arm/kernel/built-in.o (memchr)
arch/arm/lib/lib.a(memcpy.o)  init/built-in.o (memcpy)
arch/arm/lib/lib.a(memmove.o)
                              init/built-in.o (memmove)
arch/arm/lib/lib.a(memset.o)  init/built-in.o (memset)
arch/arm/lib/lib.a(memzero.o)
                              init/built-in.o (__memzero)
arch/arm/lib/lib.a(muldi3.o)  arch/arm/kernel/built-in.o (__muldi3)
arch/arm/lib/lib.a(putuser.o)
                              arch/arm/kernel/built-in.o (__put_user_1)
arch/arm/lib/lib.a(setbit.o)  arch/arm/kernel/built-in.o (_set_bit_le)
arch/arm/lib/lib.a(sha1.o)    arch/arm/kernel/built-in.o (sha_transform)
arch/arm/lib/lib.a(strchr.o)  init/built-in.o (strchr)
arch/arm/lib/lib.a(strncpy_from_user.o)
                              arch/arm/kernel/built-in.o (__strncpy_from_user)
arch/arm/lib/lib.a(strnlen_user.o)
                              arch/arm/kernel/built-in.o (__strnlen_user)
arch/arm/lib/lib.a(strrchr.o)
                              arch/arm/kernel/built-in.o (strrchr)
arch/arm/lib/lib.a(testchangebit.o)
                              arch/arm/kernel/built-in.o (_test_and_change_bit_le)
arch/arm/lib/lib.a(testclearbit.o)
                              arch/arm/kernel/built-in.o (_test_and_clear_bit_le)
arch/arm/lib/lib.a(testsetbit.o)
                              arch/arm/kernel/built-in.o (_test_and_set_bit_le)
arch/arm/lib/lib.a(ucmpdi2.o)
                              arch/arm/kernel/built-in.o (__ucmpdi2)
lib/lib.a(argv_split.o)       kernel/built-in.o (argv_free)
lib/lib.a(cmdline.o)          arch/arm/mach-GM/platform-GM8126/built-in.o (memparse)
lib/lib.a(ctype.o)            init/built-in.o (_ctype)
lib/lib.a(dec_and_lock.o)     kernel/built-in.o (_atomic_dec_and_lock)
lib/lib.a(extable.o)          kernel/built-in.o (search_extable)
lib/lib.a(idr.o)              kernel/built-in.o (idr_init)
lib/lib.a(int_sqrt.o)         mm/built-in.o (int_sqrt)
lib/lib.a(irq_regs.o)         arch/arm/kernel/built-in.o (per_cpu____irq_regs)
lib/lib.a(kobject.o)          fs/built-in.o (kobject_init)
lib/lib.a(kref.o)             fs/built-in.o (kref_init)
lib/lib.a(prio_tree.o)        init/built-in.o (prio_tree_init)
lib/lib.a(proportions.o)      mm/built-in.o (prop_local_init_percpu)
lib/lib.a(radix-tree.o)       mm/built-in.o (radix_tree_lookup_slot)
lib/lib.a(ratelimit.o)        kernel/built-in.o (__ratelimit)
lib/lib.a(rbtree.o)           kernel/built-in.o (rb_insert_color)
lib/lib.a(reciprocal_div.o)   mm/built-in.o (reciprocal_value)
lib/lib.a(rwsem-spinlock.o)   kernel/built-in.o (__init_rwsem)
lib/lib.a(string.o)           fs/built-in.o (strnicmp)
lib/lib.a(vsprintf.o)         init/built-in.o (simple_strtoul)
lib/lib.a(klist.o)            drivers/built-in.o (klist_init)

Memory Configuration

Name             Origin             Length             Attributes
*default*        0x00000000         0xffffffff

Linker script and memory map

                0xc0679500                jiffies = jiffies_64

.note.gnu.build-id
                0x00000000       0x24
 .note.gnu.build-id
                0x00000000       0x24 linker stubs
                0xc0008000                . = 0xc0008000

.text.head      0xc0008000      0x240
                0xc0008000                _stext = .
                0xc0008000                _sinittext = .
 *(.text.head)
 .text.head     0xc0008000      0x240 arch/arm/kernel/head.o
                0xc0008000                stext
                0xc0008198                lookup_processor_type
                0xc00081f4                lookup_machine_type

.init           0xc0008240   0x2dfdc0
 *(.init.text)
 .init.text     0xc0008240     0x5c24 init/built-in.o
                0xc0008320                smp_setup_processor_id
                0xc0008330                thread_info_cache_init
                0xc0008684                parse_early_param
                0xc00086f0                start_kernel
                0xc0008c5c                change_floppy
                0xc0008d5c                mount_block_root
                0xc0008ff0                mount_root
                0xc000905c                prepare_namespace
                0xc000a588                rd_load_image
                0xc000b374                rd_load_disk
                0xc000b44c                initrd_load
 .init.text     0xc000de64      0x4c0 arch/arm/mach-GM/platform-GM8126/built-in.o
 *fill*         0xc000e324       0x1c 00
 .init.text     0xc000e340      0xfc0 arch/arm/kernel/built-in.o
                0xc000e340                squash_mem_tags
                0xc000e380                convert_to_tag_list
                0xc000e520                __kuser_helper_start
                0xc000e580                __kuser_helper_end
                0xc000e580                __stubs_start
                0xc000e7a4                __stubs_end
                0xc000e7a4                __vectors_start
                0xc000e7c4                __vectors_end
                0xc000e7e0                init_IRQ
                0xc000e868                reboot_setup
                0xc000eb80                setup_arch
                0xc000f174                time_init
                0xc000f1d8                trap_init
                0xc000f21c                early_trap_init
                0xc000f2dc                init_FIQ
 .init.text     0xc000f300     0x1764 arch/arm/mm/built-in.o
                0xc000f3c8                hook_fault_code
                0xc000f4d8                bootmem_init
                0xc000f948                mem_init
                0xc000fbc0                check_writebuffer_bugs
                0xc000ff4c                reserve_node_zero
                0xc000ff94                create_mapping
                0xc00102f4                paging_init
                0xc00108fc                iotable_init
 .init.text     0xc0010a64      0x994 arch/arm/mach-GM/built-in.o
                0xc0010a64                ftintc010_init
                0xc0010c10                ftintc010_cascade_irq
                0xc0010c68                fttmr010_clocksource_init
                0xc0010da8                fttmr010_clockevent_init
                0xc0010fd4                __arch_adjust_zones
 .init.text     0xc00113f8     0x1dc4 kernel/built-in.o
                0xc00113f8                sched_init_smp
                0xc0011438                sched_init
                0xc0011778                proc_caches_init
                0xc0011868                fork_init
                0xc0011c1c                softirq_init
                0xc0011f7c                reserve_region_with_split
                0xc0012008                init_timers
                0xc0012140                uids_sysfs_init
                0xc00121c4                signals_init
                0xc0012208                usermodehelper_init
                0xc0012260                init_workqueues
                0xc00122dc                pidmap_init
                0xc0012374                pidhash_init
                0xc0012420                rcu_init
                0xc0012434                sort_main_extable
                0xc001287c                hrtimers_init
                0xc0012a7c                timekeeping_init
                0xc0012c40                ntp_init
                0xc0012e30                tick_init
                0xc0013020                set_irq_probe
                0xc00130cc                set_irq_noprobe
                0xc0013178                __rcu_init
 .init.text     0xc00131bc     0x1e9c mm/built-in.o
                0xc00131e0                bootmem_bootmap_pages
                0xc001373c                __alloc_bootmem_nopanic
                0xc0013754                __alloc_bootmem_node_nopanic
                0xc0013954                reserve_bootmem
                0xc0013984                free_bootmem
                0xc00139b4                reserve_bootmem_node
                0xc00139f0                free_bootmem_node
                0xc0013ab0                __alloc_bootmem_low_node
                0xc0013ad8                __alloc_bootmem_node
                0xc0013b00                __alloc_bootmem_low
                0xc0013b18                __alloc_bootmem
                0xc0013d44                free_all_bootmem
                0xc0013d64                free_all_bootmem_node
                0xc0013e78                init_bootmem
                0xc0013ebc                init_bootmem_node
                0xc0013ed4                set_dma_reserve
                0xc0013ef0                page_alloc_init
                0xc0013f00                free_area_init_node
                0xc00142a0                free_area_init
                0xc001431c                alloc_large_system_hash
                0xc0014598                page_writeback_init
                0xc0014650                swap_setup
                0xc001483c                mminit_verify_pageflags_layout
                0xc0014984                anon_vma_init
                0xc00149cc                vmalloc_init
                0xc0014c88                kmem_cache_init
 .init.text     0xc0015058     0x2608 fs/built-in.o
                0xc0015058                files_init
                0xc00150a4                chrdev_init
                0xc00151c4                vfs_caches_init
                0xc00152f8                vfs_caches_init_early
                0xc00153cc                inode_init
                0xc0015494                inode_init_early
                0xc0015524                files_defer_init
                0xc00155d0                mnt_init
                0xc00157d0                buffer_init
                0xc0015910                bdev_cache_init
                0xc0015df0                proc_init_inodecache
                0xc0015e38                proc_root_init
                0xc0015f04                proc_tty_init
                0xc00161ec                proc_sys_init
                0xc001622c                proc_net_init
                0xc0016398                sysfs_inode_init
                0xc00163b4                sysfs_init
                0xc001654c                init_ext3_xattr
                0xc001659c                journal_init_revoke_caches
                0xc001677c                init_ext2_xattr
                0xc00167e8                init_rootfs
                0xc001682c                fat_cache_init
                0xc001699c                nfs_fs_proc_init
                0xc0016ba4                register_nfs_fs
                0xc0016bf4                nfs_init_directcache
                0xc0016c44                nfs_init_nfspagecache
                0xc0016c94                nfs_init_readpagecache
                0xc0016d10                nfs_init_writepagecache
                0xc0017364                jffs2_compressors_init
                0xc0017380                jffs2_create_slab_caches
                0xc00175a8                jffs2_zlib_init
 .init.text     0xc0017660      0x188 ipc/built-in.o
                0xc001768c                ipc_init_proc_interface
                0xc0017700                msg_init
                0xc0017750                sem_init
                0xc001778c                shm_init
 .init.text     0xc00177e8      0x578 block/built-in.o
                0xc001783c                blk_dev_init
                0xc0017968                blk_softirq_init
                0xc0017a74                printk_all_partitions
 .init.text     0xc0017d60       0x48 lib/lib.a(idr.o)
                0xc0017d60                idr_init_cache
 .init.text     0xc0017da8       0x48 lib/lib.a(prio_tree.o)
                0xc0017da8                prio_tree_init
 .init.text     0xc0017df0       0x80 lib/lib.a(radix-tree.o)
                0xc0017df0                radix_tree_init
 .init.text     0xc0017e70       0xec lib/built-in.o
 .init.text     0xc0017f5c     0x41d0 drivers/built-in.o
                0xc0017f5c                gpiochip_reserve
                0xc00183d8                console_init
                0xc0018a2c                uart_get_console
                0xc0018cec                early_serial_setup
                0xc0018f8c                setup_early_serial8250_console
                0xc001941c                devices_init
                0xc00194d8                system_bus_init
                0xc0019520                buses_init
                0xc0019560                classes_init
                0xc001959c                platform_bus_init
                0xc00195e0                cpu_dev_init
                0xc0019634                firmware_init
                0xc001966c                driver_init
                0xc0019ff0                scsi_init_queue
                0xc001a168                scsi_init_devinfo
                0xc001a2dc                scsi_init_sysctl
                0xc001b474                spi_register_board_info
                0xc001b634                usb_devio_init
                0xc001b800                mon_text_init
                0xc001b820                mon_bin_init
                0xc001bcf0                rtc_dev_init
                0xc001bd38                rtc_sysfs_init
                0xc001bd54                i2c_register_board_info
 .init.text     0xc001c12c      0x6c4 sound/built-in.o
                0xc001c23c                snd_minor_info_init
                0xc001c29c                snd_card_info_init
                0xc001c300                snd_info_init
                0xc001c3e0                snd_minor_info_oss_init
 .init.text     0xc001c7f0     0x2868 net/built-in.o
                0xc001c86c                sk_init
                0xc001c908                skb_init
                0xc001cd84                netdev_boot_setup
                0xc001ce78                dev_mcast_init
                0xc001cec8                dst_init
                0xc001cf70                rtnetlink_init
                0xc001d448                netfilter_init
                0xc001d4f0                netfilter_log_init
                0xc001d540                netfilter_queue_init
                0xc001d5d4                ip_static_sysctl_init
                0xc001d5f8                ip_rt_init
                0xc001d918                inet_initpeers
                0xc001d9e8                ipfrag_init
                0xc001da80                ip_init
                0xc001dadc                tcp_init
                0xc001dd84                tcp_v4_init
                0xc001dde4                tcp4_proc_init
                0xc001de1c                raw_proc_exit
                0xc001de6c                raw_proc_init
                0xc001de88                udp_init
                0xc001def0                udp4_proc_init
                0xc001df0c                udplite4_register
                0xc001df98                arp_init
                0xc001e038                icmp_init
                0xc001e124                devinet_init
                0xc001e6ec                igmp_mc_proc_init
                0xc001e740                ip_fib_init
                0xc001e9f4                fib_proc_init
                0xc001ea28                fib_hash_init
                0xc001ea8c                ip_misc_proc_init
                0xc001ecb8                xfrm4_init
                0xc001ecd8                xfrm4_state_init
                0xc001ecf4                xfrm_init
                0xc001ede0                xfrm_state_init
                0xc001ee70                xfrm_input_init
                0xc001ef60                rpcauth_init_module
                0xc001ef84                rpc_init_authunix
                0xc001ef94                rpc_init_generic_auth
 *(.devinit.text)
 .devinit.text  0xc001f058      0x8ac drivers/built-in.o
 *(.cpuinit.text)
 .cpuinit.text  0xc001f904      0x168 init/built-in.o
                0xc001f904                calibrate_delay
 .cpuinit.text  0xc001fa6c      0x4bc kernel/built-in.o
                0xc001fa6c                init_idle_bootup_task
                0xc001fa88                init_idle
                0xc001fbc0                idle_regs
                0xc001fbe0                fork_idle
 .cpuinit.text  0xc001ff28      0x520 mm/built-in.o
 .cpuinit.text  0xc0020448       0x44 drivers/built-in.o
                0xc0020448                register_cpu
 *(.meminit.text)
 .meminit.text  0xc002048c      0x338 mm/built-in.o
                0xc002048c                init_currently_empty_zone
                0xc0020598                memmap_init_zone
                0xc00206dc                __free_pages_bootmem
                0xc0020764                mminit_verify_page_links
                0xc00207c4                _einittext = .
                0xc00207c4                __proc_info_begin = .
 *(.proc.info.init)
 .proc.info.init
                0xc00207c4       0x34 arch/arm/mm/built-in.o
                0xc00207f8                __proc_info_end = .
                0xc00207f8                __arch_info_begin = .
 *(.arch.info.init)
 .arch.info.init
                0xc00207f8       0x34 arch/arm/mach-GM/platform-GM8126/built-in.o
                0xc002082c                __arch_info_end = .
                0xc002082c                __tagtable_begin = .
 *(.taglist.init)
 .taglist.init  0xc002082c       0x30 arch/arm/kernel/built-in.o
 .taglist.init  0xc002085c       0x10 arch/arm/mm/built-in.o
                0xc002086c                __tagtable_end = .
                0xc0020870                . = ALIGN (0x10)
 *fill*         0xc002086c        0x4 00
                0xc0020870                __setup_start = .
 *(.init.setup)
 .init.setup    0xc0020870       0xe4 init/built-in.o
 .init.setup    0xc0020954       0x30 arch/arm/kernel/built-in.o
 .init.setup    0xc0020984       0x18 arch/arm/mm/built-in.o
 .init.setup    0xc002099c       0x9c kernel/built-in.o
 .init.setup    0xc0020a38       0x30 mm/built-in.o
 .init.setup    0xc0020a68       0x18 fs/built-in.o
 .init.setup    0xc0020a80        0xc block/built-in.o
 .init.setup    0xc0020a8c       0x48 drivers/built-in.o
 .init.setup    0xc0020ad4       0x30 net/built-in.o
                0xc0020b04                __setup_end = .
                0xc0020b04                __early_begin = .
 *(.early_param.init)
 .early_param.init
                0xc0020b04        0x8 arch/arm/kernel/built-in.o
 .early_param.init
                0xc0020b0c       0x30 arch/arm/mm/built-in.o
                0xc0020b3c                __early_end = .
                0xc0020b3c                __initcall_start = .
 *(.initcallearly.init)
 .initcallearly.init
                0xc0020b3c        0x4 kernel/built-in.o
                0xc0020b40                __early_initcall_end = .
 *(.initcall0.init)
 .initcall0.init
                0xc0020b40        0x4 net/built-in.o
 *(.initcall0s.init)
 *(.initcall1.init)
 .initcall1.init
                0xc0020b44        0x4 arch/arm/kernel/built-in.o
 .initcall1.init
                0xc0020b48        0x4 arch/arm/mm/built-in.o
 .initcall1.init
                0xc0020b4c        0x4 arch/arm/mach-GM/built-in.o
 .initcall1.init
                0xc0020b50        0xc kernel/built-in.o
 .initcall1.init
                0xc0020b5c        0xc fs/built-in.o
 .initcall1.init
                0xc0020b68        0x4 lib/built-in.o
 .initcall1.init
                0xc0020b6c        0x8 net/built-in.o
 *(.initcall1s.init)
 *(.initcall2.init)
 .initcall2.init
                0xc0020b74        0x4 mm/built-in.o
 .initcall2.init
                0xc0020b78        0xc drivers/built-in.o
 *(.initcall2s.init)
 *(.initcall3.init)
 .initcall3.init
                0xc0020b84        0x4 arch/arm/mach-GM/platform-GM8126/built-in.o
 .initcall3.init
                0xc0020b88        0x4 arch/arm/kernel/built-in.o
 .initcall3.init
                0xc0020b8c        0x8 arch/arm/mach-GM/built-in.o
 *(.initcall3s.init)
 *(.initcall4.init)
 .initcall4.init
                0xc0020b94        0x4 arch/arm/kernel/built-in.o
 .initcall4.init
                0xc0020b98        0x4 kernel/built-in.o
 .initcall4.init
                0xc0020b9c        0x4 mm/built-in.o
 .initcall4.init
                0xc0020ba0        0x4 fs/built-in.o
 .initcall4.init
                0xc0020ba4       0x10 block/built-in.o
 .initcall4.init
                0xc0020bb4       0x24 drivers/built-in.o
 .initcall4.init
                0xc0020bd8       0x14 net/built-in.o
 *(.initcall4s.init)
 *(.initcall5.init)
 .initcall5.init
                0xc0020bec        0x4 arch/arm/mm/built-in.o
 .initcall5.init
                0xc0020bf0        0x4 kernel/built-in.o
 .initcall5.init
                0xc0020bf4       0x10 fs/built-in.o
 .initcall5.init
                0xc0020c04        0x8 drivers/built-in.o
 .initcall5.init
                0xc0020c0c        0x8 net/built-in.o
 *(.initcall5s.init)
 *(.initcallrootfs.init)
 .initcallrootfs.init
                0xc0020c14        0x4 init/built-in.o
 *(.initcall6.init)
 .initcall6.init
                0xc0020c18        0x4 arch/arm/mach-GM/platform-GM8126/built-in.o
 .initcall6.init
                0xc0020c1c        0x4 arch/arm/kernel/built-in.o
 .initcall6.init
                0xc0020c20       0x38 kernel/built-in.o
 .initcall6.init
                0xc0020c58       0x28 mm/built-in.o
 .initcall6.init
                0xc0020c80       0xa4 fs/built-in.o
 .initcall6.init
                0xc0020d24        0x8 ipc/built-in.o
 .initcall6.init
                0xc0020d2c       0x14 block/built-in.o
 .initcall6.init
                0xc0020d40       0xfc drivers/built-in.o
 .initcall6.init
                0xc0020e3c       0x20 sound/built-in.o
 .initcall6.init
                0xc0020e5c       0x30 net/built-in.o
 *(.initcall6s.init)
 *(.initcall7.init)
 .initcall7.init
                0xc0020e8c        0xc kernel/built-in.o
 .initcall7.init
                0xc0020e98        0x4 lib/built-in.o
 .initcall7.init
                0xc0020e9c        0x8 drivers/built-in.o
 .initcall7.init
                0xc0020ea4        0x4 net/built-in.o
 *(.initcall7s.init)
                0xc0020ea8                __initcall_end = .
                0xc0020ea8                __con_initcall_start = .
 *(.con_initcall.init)
 .con_initcall.init
                0xc0020ea8        0x4 drivers/built-in.o
                0xc0020eac                __con_initcall_end = .
                0xc0020eac                __security_initcall_start = .
 *(.security_initcall.init)
                0xc0020eac                __security_initcall_end = .
                0xc0020ec0                . = ALIGN (0x20)
 *fill*         0xc0020eac       0x14 00
                0xc0020ec0                __initramfs_start = .
 usr/built-in.o(.init.ramfs)
 .init.ramfs    0xc0020ec0   0x2c3ba5 usr/built-in.o
                0xc02e4a65                __initramfs_end = .
                0xc02e5000                . = ALIGN (0x1000)
 *fill*         0xc02e4a65      0x59b 00
                0xc02e5000                __per_cpu_start = .
 *(.data.percpu)
 *(.data.percpu.shared_aligned)
                0xc02e5000                __per_cpu_end = .
                0xc0008000                __init_begin = _stext
 *(.init.data)
 .init.data     0xc02e5000      0xa4d init/built-in.o
                0xc02e5404                boot_command_line
                0xc02e5844                rd_doload
                0xc02e58d8                rd_prompt
                0xc02e58dc                rd_image_start
 *fill*         0xc02e5a4d        0x3 00
 .init.data     0xc02e5a50      0x1ec arch/arm/mach-GM/platform-GM8126/built-in.o
                0xc02e5a50                platform_io_desc
 .init.data     0xc02e5c3c      0x8c4 arch/arm/kernel/built-in.o
                0xc02e5c3c                init_arch_irq
                0xc02e60f0                __atags_pointer
 .init.data     0xc02e6500      0x110 arch/arm/mm/built-in.o
                0xc02e65b4                fa_cache_fns
                0xc02e65d8                fa_user_fns
                0xc02e65e0                fa_tlb_fns
 .init.data     0xc02e6610       0x9e kernel/built-in.o
 *fill*         0xc02e66ae        0x2 00
 .init.data     0xc02e66b0      0x378 mm/built-in.o
                0xc02e66e4                initkmem_list3
 .init.data     0xc02e6a28       0x38 fs/built-in.o
 .init.data     0xc02e6a60        0xa block/built-in.o
 *fill*         0xc02e6a6a        0x2 00
 .init.data     0xc02e6a6c      0xb6c drivers/built-in.o
 .init.data     0xc02e75d8      0x1a0 net/built-in.o
 *(.devinit.data)
 .devinit.data  0xc02e7778      0x400 drivers/built-in.o
 *(.devinit.rodata)
 *(.cpuinit.data)
 .cpuinit.data  0xc02e7b78       0x28 kernel/built-in.o
 *(.cpuinit.rodata)
 *(.meminit.data)
 .meminit.data  0xc02e7ba0        0xc mm/built-in.o
                0xc02e7ba4                nr_kernel_pages
                0xc02e7ba8                nr_all_pages
 *(.meminit.rodata)
                0xc02e7bac                __start___verbose_strings = .
 *(__verbose_strings)
                0xc02e7bac                __stop___verbose_strings = .
                0xc02e7bb0                . = ALIGN (0x8)
 *fill*         0xc02e7bac        0x4 00
                0xc02e7bb0                __start___verbose = .
 *(__verbose)
                0xc02e7bb0                __stop___verbose = .
                0xc02e8000                . = ALIGN (0x1000)
 *fill*         0xc02e7bb0      0x450 00
                0xc02e8000                __init_end = .

.discard        0xc02e8000     0x1920
 *(.exit.text)
 .exit.text     0xc02e8000       0x5c arch/arm/mach-GM/built-in.o
                0xc02e8000                fa_cleanup_ahb_dma
 .exit.text     0xc02e805c       0x20 kernel/built-in.o
 .exit.text     0xc02e807c      0x438 fs/built-in.o
                0xc02e82d0                unregister_nfs_fs
 .exit.text     0xc02e84b4       0xf8 block/built-in.o
 .exit.text     0xc02e85ac      0xaec drivers/built-in.o
                0xc02e8f34                rtc_dev_exit
 .exit.text     0xc02e9098      0x304 sound/built-in.o
                0xc02e90f8                snd_minor_info_done
                0xc02e911c                snd_card_info_done
                0xc02e9164                snd_info_done
                0xc02e91bc                snd_minor_info_oss_done
 .exit.text     0xc02e939c      0x1f0 net/built-in.o
                0xc02e9510                rpcauth_remove_module
                0xc02e952c                rpc_destroy_generic_auth
 *(.devexit.text)
 .devexit.text  0xc02e958c      0x1c8 drivers/built-in.o
 *(.cpuexit.text)
 *(.memexit.text)
 *(.exit.data)
 *(.devexit.data)
 *(.devexit.rodata)
 *(.cpuexit.data)
 *(.cpuexit.rodata)
 *(.memexit.data)
 *(.memexit.rodata)
 *(.exitcall.exit)
 .exitcall.exit
                0xc02e9754        0x4 arch/arm/mach-GM/platform-GM8126/built-in.o
 .exitcall.exit
                0xc02e9758        0x4 kernel/built-in.o
 .exitcall.exit
                0xc02e975c       0x68 fs/built-in.o
 .exitcall.exit
                0xc02e97c4       0x10 block/built-in.o
 .exitcall.exit
                0xc02e97d4      0x108 drivers/built-in.o
 .exitcall.exit
                0xc02e98dc       0x1c sound/built-in.o
 .exitcall.exit
                0xc02e98f8       0x28 net/built-in.o

.text           0xc02e9920   0x37047c
                0xc02e9920                _text = .
                0xc02e9920                __exception_text_start = .
 *(.exception.text)
 .exception.text
                0xc02e9920      0x23c arch/arm/kernel/built-in.o
                0xc02e9920                asm_do_IRQ
                0xc02e99a4                do_undefinstr
 .exception.text
                0xc02e9b5c       0xb8 arch/arm/mm/built-in.o
                0xc02e9b5c                do_PrefetchAbort
                0xc02e9b78                do_DataAbort
                0xc02e9c14                __exception_text_end = .
                0xc02e9c18                . = ALIGN (0x8)
 *fill*         0xc02e9c14        0x4 00
 *(.text.hot)
 *(.text)
 .text          0xc02e9c18        0x0 usr/built-in.o
 .text          0xc02e9c18        0x0 arch/arm/kernel/head.o
 .text          0xc02e9c18        0x0 arch/arm/kernel/init_task.o
 .text          0xc02e9c18      0x4d4 init/built-in.o
                0xc02e9c18                do_one_initcall
                0xc02e9eb8                name_to_dev_t
 .text          0xc02ea0ec      0x638 arch/arm/mach-GM/platform-GM8126/built-in.o
                0xc02ea55c                pmu_get_apb_clk
                0xc02ea574                video_gettime_max_ms
                0xc02ea5a0                video_gettime_max_hz
                0xc02ea5cc                video_gettime_us
                0xc02ea634                video_gettime_ms
                0xc02ea6ec                platform_get_memory
                0xc02ea708                platform_get_gmmemory
 *fill*         0xc02ea724       0x1c 00
 .text          0xc02ea740     0x4bb4 arch/arm/kernel/built-in.o
                0xc02ea740                elf_check_arch
                0xc02ea7d8                arm_elf_read_implies_exec
                0xc02ea804                elf_set_personality
                0xc02eada0                ret_from_exception
                0xc02eadb0                __switch_to
                0xc02eae74                ret_to_user
                0xc02eaea0                ret_from_fork
                0xc02eaee0                vector_swi
                0xc02eafa4                sys_call_table
                0xc02eb5e8                pabort_ifar
                0xc02eb5ec                pabort_noifar
                0xc02eb600                set_irq_flags
                0xc02eb6c4                show_interrupts
                0xc02eb878                disable_hlt
                0xc02eb89c                enable_hlt
                0xc02eb8c0                machine_halt
                0xc02eb8d0                machine_power_off
                0xc02eb8f8                machine_restart
                0xc02eb91c                exit_thread
                0xc02eb92c                get_wchan
                0xc02eb9c4                copy_thread
                0xc02eba3c                kernel_thread
                0xc02ebabc                dump_fpu
                0xc02ebb00                release_thread
                0xc02ebb24                flush_thread
                0xc02ebb7c                __show_regs
                0xc02ebda4                show_regs
                0xc02ebdf4                cpu_idle
                0xc02ebec4                arm_machine_restart
                0xc02ebfc4                syscall_trace
                0xc02ec0c0                ptrace_cancel_bpt
                0xc02ec1ec                arch_ptrace
                0xc02ec5b0                ptrace_disable
                0xc02ec5d0                ptrace_break
                0xc02ec6cc                ptrace_set_bpt
                0xc02ecabc                cpu_architecture
                0xc02ecb54                cpu_init
                0xc02ed508                do_notify_resume
                0xc02ed6f8                sys_rt_sigreturn
                0xc02ed7b8                sys_sigreturn
                0xc02ed860                sys_sigaction
                0xc02ed98c                sys_rt_sigsuspend
                0xc02edac0                sys_sigsuspend
                0xc02edb98                sys_arm_fadvise64_64
                0xc02edbc0                kernel_execve
                0xc02edc4c                sys_execve
                0xc02edca8                sys_vfork
                0xc02edce8                sys_clone
                0xc02edd24                sys_fork
                0xc02edd60                old_select
                0xc02edddc                sys_arm_mremap
                0xc02ede70                do_mmap2
                0xc02edf2c                old_mmap
                0xc02ee060                walk_stackframe
                0xc02ee0c0                save_time_delta
                0xc02ee0f0                restore_time_delta
                0xc02ee134                abort
                0xc02ee14c                __pgd_error
                0xc02ee178                __pmd_error
                0xc02ee1a4                __pte_error
                0xc02ee1d0                __readwrite_bug
                0xc02ee1f8                __bug
                0xc02ee360                do_unexp_fiq
                0xc02ee490                __bad_xchg
                0xc02ee4c0                show_stack
                0xc02ee510                unregister_undef_hook
                0xc02ee598                register_undef_hook
                0xc02ee614                die
                0xc02ee85c                bad_mode
                0xc02ee8b0                arm_notify_die
                0xc02ee908                baddataabort
                0xc02ee9c0                arm_syscall
                0xc02eed0c                __div0
                0xc02eed2c                dump_backtrace_entry
                0xc02eedbc                set_fiq_regs
                0xc02eede8                get_fiq_regs
                0xc02eee14                claim_fiq
                0xc02eee74                disable_fiq
                0xc02eee88                enable_fiq
                0xc02eee9c                release_fiq
                0xc02eef00                set_fiq_handler
                0xc02eef84                show_fiq_list
                0xc02eefbc                module_frob_arch_sections
                0xc02eefd0                module_finalize
                0xc02eefe4                module_arch_cleanup
                0xc02eeff4                apply_relocate_add
                0xc02ef01c                apply_relocate
                0xc02ef1f4                module_free
                0xc02ef20c                module_alloc
                0xc02ef26c                _memcpy_fromio
                0xc02ef29c                _memcpy_toio
                0xc02ef2cc                _memset_io
 *fill*         0xc02ef2f4        0xc 00
 .text          0xc02ef300     0x3440 arch/arm/mm/built-in.o
                0xc02ef300                dma_sync_sg_for_cpu
                0xc02ef330                dma_unmap_sg
                0xc02ef360                dma_consistent_sync
                0xc02ef3b4                dma_cache_maint
                0xc02ef440                dma_sync_sg_for_device
                0xc02ef4c4                dma_map_sg
                0xc02ef5bc                dma_free_coherent
                0xc02efa34                dma_mmap_writecombine
                0xc02efa68                dma_mmap_coherent
                0xc02efee8                dma_alloc_writecombine
                0xc02eff1c                dma_alloc_coherent
                0xc02eff80                fixup_exception
                0xc02effc4                show_pte
                0xc02f0430                do_bad_area
                0xc02f0538                free_initrd_mem
                0xc02f0618                free_initmem
                0xc02f06ec                show_mem
                0xc02f08b8                ioport_map
                0xc02f08c8                ioport_unmap
                0xc02f08d8                update_mmu_cache
                0xc02f09a8                flush_cache_mm
                0xc02f09c8                flush_cache_range
                0xc02f0a70                __flush_anon_page
                0xc02f0adc                __flush_dcache_page
                0xc02f0b58                flush_ptrace_access
                0xc02f0b9c                flush_cache_page
                0xc02f0bb4                flush_dcache_page
                0xc02f0c48                __check_kvm_seq
                0xc02f0d88                __iounmap
                0xc02f0e58                __arm_ioremap_pfn
                0xc02f113c                __arm_ioremap
                0xc02f1190                valid_phys_addr_range
                0xc02f11c0                valid_mmap_phys_addr_range
                0xc02f11e0                arch_get_unmapped_area
                0xc02f13c8                free_pgd_slow
                0xc02f14c4                get_pgd_slow
                0xc02f15ac                adjust_cr
                0xc02f1618                get_mem_type
                0xc02f163c                setup_mm_for_reboot
                0xc02f23c0                v5t_early_abort
                0xc02f2420                fa_flush_kern_cache_all
                0xc02f2420                fa_flush_user_cache_all
                0xc02f2444                fa_flush_user_cache_range
                0xc02f248c                fa_flush_kern_dcache_page
                0xc02f2490                fa_dma_flush_range
                0xc02f2490                fa_coherent_user_range
                0xc02f2490                fa_coherent_kern_range
                0xc02f24c0                fa_dma_inv_range
                0xc02f24ec                fa_dma_clean_range
                0xc02f2510                fa_copy_user_page
                0xc02f2550                fa_clear_user_page
                0xc02f2590                fa_flush_user_tlb_range
                0xc02f25e8                fa_flush_kern_tlb_range
                0xc02f2620                cpu_fa626te_proc_init
                0xc02f2624                cpu_fa626te_proc_fin
                0xc02f2650                cpu_fa626te_reset
                0xc02f2680                cpu_fa626te_do_idle
                0xc02f2688                cpu_fa626te_dcache_clean_area
                0xc02f26a0                fault_address
                0xc02f26a4                cpu_fa626te_switch_mm
                0xc02f26e0                cpu_fa626te_set_pte_ext
 .text          0xc02f2740     0x36d4 arch/arm/mach-GM/built-in.o
                0xc02f2a7c                ftpmu010_get_attr
                0xc02f2ad0                ftpmu010_read_reg
                0xc02f2af0                ftpmu010_clock_divisor
                0xc02f2ba4                ftpmu010_init
                0xc02f2e60                ftpmu010_bits_is_locked
                0xc02f2f18                ftpmu010_update_lockbits
                0xc02f3050                ftpmu010_del_lockbits
                0xc02f3108                ftpmu010_add_lockbits
                0xc02f3254                ftpmu010_write_reg
                0xc02f33f8                ftpmu010_deregister_reg
                0xc02f3494                ftpmu010_deregister_attr
                0xc02f3534                ftpmu010_register_attr
                0xc02f3608                ftpmu010_register_reg
                0xc02f3b48                fa_ahb_dma_all_done
                0xc02f3b80                fa_ahb_dma_get_irq
                0xc02f3bf4                fa_ahb_dma_get_dest_addr
                0xc02f3c1c                fa_ahb_dma_get_src_addr
                0xc02f3c44                fa_ahb_dma_add
                0xc02f3ef0                fa_ahb_dma_add_no_extrahead
                0xc02f41a4                fa_ahb_dma_add_auto
                0xc02f43e8                fa_ahb_dma_clear_llp_idx
                0xc02f4414                fa_ahb_dma_reset2
                0xc02f4490                fa_ahb_dma_get_status
                0xc02f4510                fa_get_ahb_dma_params
                0xc02f4534                fa_set_ahb_dma_usual_params
                0xc02f4560                fa_set_ahb_dma_transfer_params
                0xc02f459c                fa_set_ahb_dma_transfer_params2
                0xc02f4630                fa_set_ahb_dma_transfer_bs
                0xc02f4654                fa_set_ahb_dma_src_params
                0xc02f4688                fa_set_ahb_dma_dst_params
                0xc02f46bc                fa_set_ahb_dma_cfg_params
                0xc02f46f0                fa_ahb_dma_start
                0xc02f4734                fa_ahb_dma_clear_int
                0xc02f4778                fa_ahb_dma_stop
                0xc02f47f4                fa_ahb_dma_resume
                0xc02f4824                fa_ahb_dma_pause
                0xc02f4854                fa_ahb_dma_priority_set
                0xc02f4890                fa_ahb_dma_set_llp
                0xc02f496c                fa_set_ahb_llp_address
                0xc02f4b28                fa_ahb_set_dma_sg
                0xc02f4c90                fa_ahb_dma_cloop_llp_init
                0xc02f4e70                fa_ahb_free_llp_mem
                0xc02f4ecc                fa_ahb_dma_reset
                0xc02f4f74                fa_free_ahb_dma
                0xc02f5098                fa_request_ahb_dma_ch
                0xc02f5228                fa_request_ahb_dma_auto
                0xc02f53bc                fa_ahb_dma_init
                0xc02f5520                get_first_last_page
                0xc02f55a0                fmem_get_pageinfo
                0xc02f55bc                check_memory_hole
                0xc02f56f0                remove_page_node
                0xc02f5764                fmem_give_pages
                0xc02f5904                get_mem_nodeshift
                0xc02f5974                fmem_get_ddr0_szbits
                0xc02f5988                fmem_get_ddr0_mask
                0xc02f59a4                fmem_local_map_nr
                0xc02f59c8                fmem_pfn_to_nid
                0xc02f59e8                fmem_kvaddr_to_nid
                0xc02f5a08                CheckTxStatus
                0xc02f5a34                debug_printk
                0xc02f5aac                fmem_free_ex
                0xc02f5b68                fmem_alloc_ex
 .text          0xc02f5e14    0x333b8 kernel/built-in.o
                0xc02f5e14                task_rq_unlock_wait
                0xc02f6164                task_curr
                0xc02f618c                nr_running
                0xc02f61a8                nr_context_switches
                0xc02f61c8                nr_iowait
                0xc02f61e4                account_user_time_scaled
                0xc02f6200                account_system_time_scaled
                0xc02f621c                task_gtime
                0xc02f62b0                __wake_up_locked
                0xc02f62dc                task_prio
                0xc02f62f4                task_nice
                0xc02f630c                idle_cpu
                0xc02f6338                idle_task
                0xc02f6354                sys_sched_get_priority_max
                0xc02f6378                sys_sched_get_priority_min
                0xc02f63a0                in_sched_functions
                0xc02f648c                sched_group_shares
                0xc02f692c                account_steal_time
                0xc02f69e4                account_system_time
                0xc02f6b98                account_user_time
                0xc02f6c38                nr_active
                0xc02f6c64                nr_uninterruptible
                0xc02f77b8                sched_show_task
                0xc02f789c                can_nice
                0xc02f7934                task_utime
                0xc02f79a4                task_stime
                0xc02f7ba8                sys_sched_yield
                0xc02f7c08                sched_rt_handler
                0xc02f7dd4                sched_group_set_shares
                0xc02f7ffc                sched_move_task
                0xc02f8138                set_user_nice
                0xc02f832c                sys_nice
                0xc02f83dc                rt_mutex_setprio
                0xc02f865c                default_wake_function
                0xc02f8674                wake_up_state
                0xc02f868c                wake_up_process
                0xc02f86a8                task_delta_exec
                0xc02f8764                wake_up_new_task
                0xc02f8894                sched_destroy_group
                0xc02f8954                sched_create_group
                0xc02f8efc                normalize_rt_tasks
                0xc02f92dc                show_state_filter
                0xc02f9390                sys_sched_rr_get_interval
                0xc02f950c                cond_resched_lock
                0xc02f95a8                sched_getaffinity
                0xc02f9628                sys_sched_getaffinity
                0xc02f96a8                sched_setaffinity
                0xc02f9820                sys_sched_setaffinity
                0xc02f98c4                sys_sched_getparam
                0xc02f99a4                sys_sched_getscheduler
                0xc02f9da8                sched_setscheduler_nocheck
                0xc02f9dc0                sched_setscheduler
                0xc02f9ec0                sys_sched_setparam
                0xc02f9edc                sys_sched_setscheduler
                0xc02f9efc                completion_done
                0xc02f9f64                try_wait_for_completion
                0xc02f9fe8                complete_all
                0xc02fa074                complete
                0xc02fa100                __wake_up_sync
                0xc02fa184                __wake_up
                0xc02fa1fc                scheduler_tick
                0xc02fa2d0                sched_fork
                0xc02fa388                runqueue_is_locked
                0xc02fa60c                schedule_tail
                0xc02fa67c                nr_processes
                0xc02fa698                arch_dup_task_struct
                0xc02fa724                unshare_files
                0xc02fa7c0                get_task_mm
                0xc02fa84c                __cleanup_sighand
                0xc02fa93c                copy_fs_struct
                0xc02fa96c                sys_set_tid_address
                0xc02fa99c                __cleanup_signal
                0xc02faa9c                mm_alloc
                0xc02faaf0                mm_release
                0xc02fab8c                __mmdrop
                0xc02fabd8                mmput
                0xc02facdc                sys_unshare
                0xc02fafa8                dup_mm
                0xc02fb388                free_task
                0xc02fc27c                do_fork
                0xc02fc500                __put_task_struct
                0xc02fc684                unregister_exec_domain
                0xc02fc744                register_exec_domain
                0xc02fc7f0                __set_personality
                0xc02fcb1c                sys_personality
                0xc02fcb90                test_taint
                0xc02fcbc8                get_taint
                0xc02fcbe4                oops_may_print
                0xc02fcdac                oops_exit
                0xc02fcdc4                oops_enter
                0xc02fcddc                add_taint
                0xc02fce08                warn_slowpath
                0xc02fce88                warn_on_slowpath
                0xc02fcef0                print_tainted
                0xc02fcf98                early_printk
                0xc02fd130                is_console_locked
                0xc02fd14c                printk_needs_cpu
                0xc02fd168                wake_up_klogd
                0xc02fd19c                update_console_cmdline
                0xc02fd250                printk_timed_ratelimit
                0xc02fd2ac                printk_ratelimit
                0xc02fd2c8                try_acquire_console_sem
                0xc02fd304                release_console_sem
                0xc02fd520                resume_console
                0xc02fd558                printk_tick
                0xc02fd59c                acquire_console_sem
                0xc02fd614                unregister_console
                0xc02fd6b0                console_start
                0xc02fd6d8                console_stop
                0xc02fd700                console_device
                0xc02fd760                console_unblank
                0xc02fd7e8                vprintk
                0xc02fdb28                register_console
                0xc02fde18                console_print
                0xc02fde38                suspend_console
                0xc02fde7c                do_syslog
                0xc02fe36c                sys_syslog
                0xc02fe430                add_preferred_console
                0xc02fe444                get_files_struct
                0xc02fe4c0                is_current_pgrp_orphaned
                0xc02fe924                put_fs_struct
                0xc02fe980                exit_fs
                0xc02fe9e0                put_files_struct
                0xc02feab4                exit_files
                0xc02feb14                reset_files_struct
                0xc02feb6c                disallow_signal
                0xc02fec04                allow_signal
                0xc02fecd4                __set_special_pids
                0xc02fed54                daemonize
                0xc02ff024                session_of_pgrp
                0xc02ff064                release_task
                0xc03000f8                sys_wait4
                0xc03001d0                sys_waitid
                0xc0300298                do_exit
                0xc0300a74                do_group_exit
                0xc0300b68                sys_exit_group
                0xc0300b88                sys_exit
                0xc0300ba4                complete_and_exit
                0xc0300c38                do_setitimer
                0xc0300f7c                sys_setitimer
                0xc0301068                alarm_setitimer
                0xc03010e4                it_real_fn
                0xc0301108                do_getitimer
                0xc0301308                sys_getitimer
                0xc0301380                jiffies_to_msecs
                0xc0301390                jiffies_to_usecs
                0xc03013a8                timespec_trunc
                0xc0301414                mktime
                0xc03014b4                set_normalized_timespec
                0xc0301508                msecs_to_jiffies
                0xc0301520                usecs_to_jiffies
                0xc030154c                timespec_to_jiffies
                0xc03015bc                jiffies_to_timespec
                0xc0301638                timeval_to_jiffies
                0xc03016ac                jiffies_to_timeval
                0xc0301734                jiffies_to_clock_t
                0xc0301794                clock_t_to_jiffies
                0xc03017c0                jiffies_64_to_clock_t
                0xc0301820                nsec_to_clock_t
                0xc0301870                timespec_add_safe
                0xc0301910                get_jiffies_64
                0xc0301950                ns_to_timespec
                0xc03019b8                ns_to_timeval
                0xc03019f8                current_fs_time
                0xc0301a38                sys_adjtimex
                0xc0301aec                do_sys_settimeofday
                0xc0301c48                sys_settimeofday
                0xc0301d38                sys_gettimeofday
                0xc0301df8                open_softirq
                0xc0301fbc                tasklet_init
                0xc0301fe4                raise_softirq_irqoff
                0xc0302048                __send_remote_softirq
                0xc03020d4                send_remote_softirq
                0xc0302100                __tasklet_hi_schedule
                0xc0302184                __tasklet_schedule
                0xc0302208                raise_softirq
                0xc030227c                tasklet_kill
                0xc0302318                irq_enter
                0xc0302380                local_bh_disable
                0xc03023a8                _local_bh_enable
                0xc0302444                __do_softirq
                0xc030254c                irq_exit
                0xc03025b8                do_softirq
                0xc030276c                local_bh_enable_ip
                0xc0302830                local_bh_enable
                0xc03028f4                __local_bh_enable
                0xc0302bc0                resource_alignment
                0xc0302dd0                adjust_resource
                0xc0302ec4                insert_resource
                0xc0302f1c                allocate_resource
                0xc03030d0                release_resource
                0xc0303160                request_resource
                0xc0303230                iomem_map_sanity_check
                0xc030333c                insert_resource_expand_to_fit
                0xc03033f4                __release_region
                0xc0303504                __devm_release_region
                0xc0303590                __request_region
                0xc03036c0                __devm_request_region
                0xc0303744                __check_region
                0xc03037cc                setup_sysctl_set
                0xc0303960                sysctl_intvec
                0xc0303a1c                sysctl_jiffies
                0xc0303ec4                proc_dointvec_ms_jiffies
                0xc0303f20                proc_dointvec_userhz_jiffies
                0xc0303f7c                proc_dointvec_jiffies
                0xc0303fd8                proc_dointvec_minmax
                0xc0304044                proc_dointvec
                0xc0304148                sysctl_string
                0xc03042d0                sysctl_data
                0xc03047f0                proc_doulongvec_ms_jiffies_minmax
                0xc0304844                proc_doulongvec_minmax
                0xc0304898                proc_dostring
                0xc0304b48                sysctl_ms_jiffies
                0xc0304d00                sysctl_is_seen
                0xc0304d84                register_sysctl_root
                0xc0304de4                sysctl_head_grab
                0xc0304e60                sysctl_head_get
                0xc0304eb0                sysctl_head_put
                0xc0304f18                unregister_sysctl_table
                0xc030504c                __register_sysctl_paths
                0xc0305374                register_sysctl_paths
                0xc03053ac                register_sysctl_table
                0xc03053cc                sysctl_perm
                0xc0305450                __sysctl_head_next
                0xc03055a0                sysctl_head_next
                0xc03055cc                sysctl_head_finish
                0xc0305648                do_sysctl
                0xc0305814                sys_sysctl
                0xc030598c                capable
                0xc03059d0                cap_set_effective
                0xc0305b60                sys_capset
                0xc0306034                sys_capget
                0xc03061e8                generic_ptrace_pokedata
                0xc0306228                generic_ptrace_peekdata
                0xc0306270                __ptrace_link
                0xc03062b8                ptrace_get_task_struct
                0xc030633c                ptrace_check_attach
                0xc0306438                ptrace_traceme
                0xc0306544                ptrace_writedata
                0xc03066a0                ptrace_readdata
                0xc030676c                __ptrace_may_access
                0xc030683c                ptrace_attach
                0xc030699c                sys_ptrace
                0xc0306a60                ptrace_may_access
                0xc0306ab4                __ptrace_unlink
                0xc0306b7c                ptrace_detach
                0xc0306c4c                ptrace_request
                0xc0307040                __round_jiffies
                0xc0307058                __round_jiffies_relative
                0xc0307084                round_jiffies
                0xc03070a0                round_jiffies_relative
                0xc03070b8                __round_jiffies_up
                0xc03070d0                __round_jiffies_up_relative
                0xc03070fc                round_jiffies_up
                0xc0307118                round_jiffies_up_relative
                0xc03071c8                init_timer
                0xc03071f0                init_timer_deferrable
                0xc030721c                sys_getuid
                0xc0307240                sys_geteuid
                0xc0307264                sys_getgid
                0xc0307288                sys_getegid
                0xc03073bc                del_timer
                0xc0307454                add_timer_on
                0xc0307500                __mod_timer
                0xc0307624                mod_timer
                0xc03078cc                do_sysinfo
                0xc0307a8c                sys_sysinfo
                0xc0307af4                sys_gettid
                0xc0307b1c                sys_getppid
                0xc0307b7c                sys_getpid
                0xc0307ba8                msleep
                0xc0307bd4                msleep_interruptible
                0xc0307c3c                do_timer
                0xc0307d18                run_local_timers
                0xc0307d34                account_process_tick
                0xc0307d80                update_process_times
                0xc0307df0                find_user
                0xc0307fa4                alloc_uid
                0xc03081dc                free_uid
                0xc030828c                switch_uid
                0xc0308468                recalc_sigpending
                0xc03084b0                flush_signal_handlers
                0xc0308504                unhandled_signal
                0xc030854c                __fatal_signal_pending
                0xc0308568                sys_restart_syscall
                0xc0308590                do_no_restart_syscall
                0xc03085a4                arch_vma_name
                0xc03085b8                sys_pause
                0xc03085ec                do_sigaltstack
                0xc030875c                copy_siginfo_to_user
                0xc03089a0                do_sigpending
                0xc0308aa8                sys_sigpending
                0xc0308ac0                sys_rt_sigpending
                0xc0308ad4                lock_task_sighand
                0xc0308b90                block_all_signals
                0xc0308c08                sys_sigprocmask
                0xc0308db0                sigprocmask
                0xc0308ee0                sys_rt_sigprocmask
                0xc0309048                unblock_all_signals
                0xc03091c4                do_sigaction
                0xc03093a0                sys_rt_sigaction
                0xc0309520                sigqueue_free
                0xc03096ac                flush_itimer_signals
                0xc0309724                flush_sigqueue
                0xc0309774                flush_signals
                0xc030980c                ignore_signals
                0xc0309ac0                signal_wake_up
                0xc0309b00                zap_other_threads
                0xc0309b5c                recalc_sigpending_and_wake
                0xc0309b88                next_signal
                0xc0309c90                sigqueue_alloc
                0xc030a398                sys_tkill
                0xc030a3c4                sys_tgkill
                0xc030a3e8                send_sig_info
                0xc030a464                send_sig
                0xc030a488                force_sig_info
                0xc030a59c                force_sig
                0xc030a5b8                force_sigsegv
                0xc030a640                force_sig_specific
                0xc030a65c                __group_send_sig_info
                0xc030a674                group_send_sig_info
                0xc030a718                __kill_pgrp_info
                0xc030a77c                kill_pgrp
                0xc030a7e0                send_sigqueue
                0xc030aad8                exit_signals
                0xc030adf0                ptrace_notify
                0xc030b044                do_notify_parent
                0xc030b258                kill_pid_info_as_uid
                0xc030b3a4                kill_pid_info
                0xc030b434                sys_kill
                0xc030b5b8                kill_pid
                0xc030b5e0                kill_proc_info
                0xc030b64c                sys_rt_sigqueueinfo
                0xc030b6e8                dequeue_signal
                0xc030b890                sys_rt_sigtimedwait
                0xc030bb58                get_signal_to_deliver
                0xc030bf40                sys_getresuid
                0xc030bf94                sys_getresgid
                0xc030bfe8                groups_search
                0xc030c058                in_group_p
                0xc030c094                in_egroup_p
                0xc030c0d0                sys_umask
                0xc030c108                sys_getcpu
                0xc030c164                sys_prctl
                0xc030c3d4                sys_getgroups
                0xc030c488                getrusage
                0xc030c6f0                sys_getrusage
                0xc030c734                sys_getrlimit
                0xc030c7ec                sys_setrlimit
                0xc030c970                sys_setdomainname
                0xc030ca64                sys_sethostname
                0xc030cb54                sys_gethostname
                0xc030cbf0                sys_newuname
                0xc030cc6c                groups_free
                0xc030ccc0                set_current_groups
                0xc030ce74                groups_alloc
                0xc030cf30                sys_setgroups
                0xc030d07c                sys_setsid
                0xc030d148                sys_getsid
                0xc030d1dc                sys_getpgid
                0xc030d270                sys_getpgrp
                0xc030d288                sys_setpgid
                0xc030d430                do_sys_times
                0xc030d4e4                sys_times
                0xc030d55c                sys_setfsgid
                0xc030d610                sys_setresgid
                0xc030d79c                sys_setgid
                0xc030d894                sys_setregid
                0xc030d9d0                sys_setfsuid
                0xc030db68                sys_setresuid
                0xc030dd40                sys_setuid
                0xc030de34                sys_setreuid
                0xc030dfbc                ctrl_alt_del
                0xc030e044                kernel_power_off
                0xc030e088                orderly_poweroff
                0xc030e150                kernel_restart_prepare
                0xc030e18c                kernel_halt
                0xc030e1b8                kernel_restart
                0xc030e218                sys_reboot
                0xc030e3d8                emergency_restart
                0xc030e3f0                sys_getpriority
                0xc030e674                sys_setpriority
                0xc030e85c                call_usermodehelper_setkeys
                0xc030e870                call_usermodehelper_setcleanup
                0xc030e884                call_usermodehelper_stdinpipe
                0xc030e8e4                call_usermodehelper_setup
                0xc030eb14                call_usermodehelper_freeinfo
                0xc030eb48                call_usermodehelper_exec
                0xc030ebdc                call_usermodehelper_pipe
                0xc030ecb8                request_module
                0xc030ee10                keventd_up
                0xc030ee34                current_is_keventd
                0xc030f1d8                destroy_workqueue
                0xc030f27c                flush_workqueue
                0xc030f294                flush_scheduled_work
                0xc030f2b4                flush_work
                0xc030f428                queue_work_on
                0xc030f488                schedule_work_on
                0xc030f4ac                queue_work
                0xc030f508                schedule_work
                0xc030f52c                execute_in_process_context
                0xc030f5a8                schedule_on_each_cpu
                0xc030f79c                __create_workqueue_key
                0xc030fac4                cancel_delayed_work_sync
                0xc030fadc                cancel_work_sync
                0xc030faf4                queue_delayed_work_on
                0xc030fbc4                schedule_delayed_work_on
                0xc030fbf0                queue_delayed_work
                0xc030fc20                schedule_delayed_work
                0xc030fc4c                find_pid_ns
                0xc030fcd8                find_vpid
                0xc030fd04                attach_pid
                0xc030fd50                transfer_pid
                0xc030fdbc                pid_task
                0xc030fe00                find_task_by_pid_type_ns
                0xc030fe54                find_task_by_vpid
                0xc030fe88                find_task_by_pid_ns
                0xc030fea8                pid_nr_ns
                0xc030fee8                pid_vnr
                0xc030ff40                task_pid_nr_ns
                0xc030ff84                task_tgid_nr_ns
                0xc030ffcc                task_pgrp_nr_ns
                0xc0310014                task_session_nr_ns
                0xc031005c                find_get_pid
                0xc03100d8                get_pid_task
                0xc0310180                get_task_pid
                0xc0310204                is_container_init
                0xc0310280                put_pid
                0xc0310340                alloc_pid
                0xc0310714                free_pid
                0xc03107ec                change_pid
                0xc03108a8                detach_pid
                0xc0310924                next_pidmap
                0xc03109a4                find_ge_pid
                0xc0310a2c                wakeme_after_rcu
                0xc0310a44                synchronize_rcu
                0xc0310ba0                rcu_barrier_sched
                0xc0310bb8                rcu_barrier_bh
                0xc0310bd0                rcu_barrier
                0xc0310be8                core_kernel_text
                0xc0310c5c                kernel_text_address
                0xc0310cd4                __kernel_text_address
                0xc0310d4c                search_exception_tables
                0xc0310d88                param_set_bool
                0xc0310e08                param_set_invbool
                0xc0310e50                param_array_get
                0xc0310fc0                parse_args
                0xc031122c                param_get_string
                0xc031127c                module_param_sysfs_remove
                0xc031140c                module_param_sysfs_setup
                0xc03114f0                param_set_copystring
                0xc0311568                param_set_charp
                0xc03115cc                param_get_invbool
                0xc03115fc                param_get_bool
                0xc031162c                param_get_charp
                0xc0311650                param_get_ulong
                0xc0311674                param_get_long
                0xc0311698                param_get_uint
                0xc03116bc                param_get_int
                0xc03116e0                param_get_ushort
                0xc0311704                param_get_short
                0xc0311728                param_get_byte
                0xc031174c                param_set_ulong
                0xc0311798                param_set_uint
                0xc03117e4                param_set_ushort
                0xc031183c                param_set_byte
                0xc0311894                param_set_long
                0xc03118e0                param_set_int
                0xc031192c                param_set_short
                0xc0311988                param_array_set
                0xc0311aa8                do_posix_clock_nosettime
                0xc0311abc                do_posix_clock_nonanosleep
                0xc0311b08                clock_nanosleep_restart
                0xc0311b54                sys_clock_nanosleep
                0xc0311c98                sys_clock_getres
                0xc0311d78                sys_clock_gettime
                0xc0311e68                sys_clock_settime
                0xc0311ffc                exit_itimers
                0xc031226c                sys_timer_delete
                0xc0312430                sys_timer_getoverrun
                0xc03125bc                sys_timer_settime
                0xc0312924                sys_timer_gettime
                0xc0312a08                sys_timer_create
                0xc0312e20                register_posix_clock
                0xc0312e7c                posix_timer_event
                0xc0313024                do_schedule_next_timer
                0xc031318c                kthread_should_stop
                0xc03131c4                kthread_bind
                0xc0313210                kthreadd
                0xc0313464                kthread_stop
                0xc0313514                kthread_create
                0xc03135f0                init_waitqueue_head
                0xc0313608                bit_waitqueue
                0xc0313680                __wake_up_bit
                0xc03136bc                wake_up_bit
                0xc03136e4                autoremove_wake_function
                0xc0313720                wake_bit_function
                0xc0313784                finish_wait
                0xc0313838                prepare_to_wait_exclusive
                0xc03138d8                prepare_to_wait
                0xc0313978                remove_wait_queue
                0xc0313a00                add_wait_queue_exclusive
                0xc0313a84                add_wait_queue
                0xc0313b08                __kfifo_get
                0xc0313b84                __kfifo_put
                0xc0313c04                kfifo_free
                0xc0313c28                kfifo_init
                0xc0313ca4                kfifo_alloc
                0xc0313d30                compat_sys_mq_open
                0xc0313d30                sys_acct
                0xc0313d30                sys_mq_open
                0xc0313d30                sys_ni_syscall
                0xc0313d30                compat_sys_futex
                0xc0313d30                sys_mq_timedreceive
                0xc0313d30                sys_epoll_pwait
                0xc0313d30                sys_mq_notify
                0xc0313d30                compat_sys_recvmsg
                0xc0313d30                sys_mbind
                0xc0313d30                sys32_sysctl
                0xc0313d30                compat_sys_mq_notify
                0xc0313d30                sys_migrate_pages
                0xc0313d30                compat_sys_mq_timedreceive
                0xc0313d30                compat_sys_epoll_pwait
                0xc0313d30                compat_sys_set_robust_list
                0xc0313d30                compat_sys_setsockopt
                0xc0313d30                sys_pciconfig_iobase
                0xc0313d30                sys_pciconfig_read
                0xc0313d30                sys_keyctl
                0xc0313d30                compat_sys_ipc
                0xc0313d30                sys32_quotactl
                0xc0313d30                sys_quotactl
                0xc0313d30                sys_nfsservctl
                0xc0313d30                ppc_rtas
                0xc0313d30                compat_sys_get_robust_list
                0xc0313d30                sys_spu_run
                0xc0313d30                compat_sys_signalfd
                0xc0313d30                sys_add_key
                0xc0313d30                sys_vm86old
                0xc0313d30                sys_mq_unlink
                0xc0313d30                sys_set_mempolicy
                0xc0313d30                compat_sys_move_pages
                0xc0313d30                sys_socketcall
                0xc0313d30                compat_sys_socketcall
                0xc0313d30                compat_sys_sysctl
                0xc0313d30                compat_sys_set_mempolicy
                0xc0313d30                sys_request_key
                0xc0313d30                compat_sys_timerfd_gettime
                0xc0313d30                compat_sys_mq_timedsend
                0xc0313d30                sys_kexec_load
                0xc0313d30                compat_sys_mbind
                0xc0313d30                sys_get_mempolicy
                0xc0313d30                sys32_ipc
                0xc0313d30                sys_move_pages
                0xc0313d30                compat_sys_keyctl
                0xc0313d30                sys_mq_getsetattr
                0xc0313d30                compat_sys_migrate_pages
                0xc0313d30                compat_sys_mq_getsetattr
                0xc0313d30                compat_sys_kexec_load
                0xc0313d30                compat_sys_signalfd4
                0xc0313d30                sys_vm86
                0xc0313d30                sys_lookup_dcookie
                0xc0313d30                compat_sys_timerfd_settime
                0xc0313d30                compat_sys_getsockopt
                0xc0313d30                sys_mq_timedsend
                0xc0313d30                sys_pciconfig_write
                0xc0313d30                sys_subpage_prot
                0xc0313d30                compat_sys_sendmsg
                0xc0313d30                compat_sys_get_mempolicy
                0xc0313d30                sys_spu_create
                0xc0313fb4                posix_cpu_timers_exit
                0xc0314024                thread_group_cputime
                0xc0314098                posix_cpu_timers_exit_group
                0xc0314430                set_process_cpu_timer
                0xc0314518                update_rlimit_cpu
                0xc03146b4                posix_cpu_timer_schedule
                0xc03148a8                run_posix_cpu_timers
                0xc03150a4                posix_cpu_timer_get
                0xc0315334                posix_cpu_timer_del
                0xc031545c                posix_cpu_timer_set
                0xc03158d4                posix_cpu_timer_create
                0xc0315c1c                posix_cpu_nsleep_restart
                0xc0315cf4                posix_cpu_nsleep
                0xc0315e1c                posix_cpu_clock_get
                0xc0316080                posix_cpu_clock_set
                0xc031609c                posix_cpu_clock_getres
                0xc0316110                thread_group_cputime_alloc
                0xc03161fc                __mutex_init
                0xc0316298                ktime_add_safe
                0xc031632c                hrtimer_get_res
                0xc0316360                hrtimer_init_sleeper
                0xc0316388                ktime_sub_ns
                0xc031643c                ktime_add_ns
                0xc0316504                hrtimer_get_remaining
                0xc03169c8                hrtimer_try_to_cancel
                0xc0316a6c                hrtimer_cancel
                0xc0316a94                hrtimer_init
                0xc0316be0                hrtimer_run_queues
                0xc0316e58                hres_timers_resume
                0xc0316e70                clock_was_set
                0xc0316ea0                hrtimer_start_range_ns
                0xc0317050                hrtimer_nanosleep
                0xc031718c                sys_nanosleep
                0xc031723c                hrtimer_start
                0xc0317268                ktime_divns
                0xc03172d0                hrtimer_forward
                0xc031748c                ktime_get_ts
                0xc03174ec                ktime_get
                0xc0317520                hrtimer_interrupt
                0xc031773c                hrtimer_peek_ahead_timers
                0xc0317788                ktime_get_real
                0xc0317978                hrtimer_run_pending
                0xc0317a40                downgrade_write
                0xc0317a54                up_write
                0xc0317a68                up_read
                0xc0317a7c                down_write_trylock
                0xc0317a90                down_read_trylock
                0xc0317aa4                free_nsproxy
                0xc0317af8                switch_task_namespaces
                0xc0317b48                exit_task_namespaces
                0xc0317cc0                unshare_nsproxy_namespaces
                0xc0317d38                copy_namespaces
                0xc0317e14                srcu_batches_completed
                0xc0317e28                synchronize_srcu
                0xc0317e9c                srcu_read_unlock
                0xc0317ef0                srcu_read_lock
                0xc0317f50                cleanup_srcu_struct
                0xc0317f94                init_srcu_struct
                0xc0317fec                down_trylock
                0xc031805c                up
                0xc03180dc                down_timeout
                0xc0318160                down_interruptible
                0xc03181e4                down
                0xc031825c                down_killable
                0xc0318358                raw_notifier_chain_register
                0xc031839c                raw_notifier_chain_unregister
                0xc03183e0                __raw_notifier_call_chain
                0xc0318404                raw_notifier_call_chain
                0xc031842c                srcu_init_notifier_head
                0xc0318474                __srcu_notifier_call_chain
                0xc03184dc                srcu_notifier_call_chain
                0xc0318504                srcu_notifier_chain_register
                0xc03185a8                srcu_notifier_chain_unregister
                0xc031865c                __blocking_notifier_call_chain
                0xc03186c8                blocking_notifier_call_chain
                0xc03186f0                blocking_notifier_chain_unregister
                0xc031879c                unregister_reboot_notifier
                0xc03187bc                blocking_notifier_chain_cond_register
                0xc0318820                blocking_notifier_chain_register
                0xc03188c4                register_reboot_notifier
                0xc03188e4                __atomic_notifier_call_chain
                0xc0318944                atomic_notifier_call_chain
                0xc031896c                notify_die
                0xc03189b4                atomic_notifier_chain_register
                0xc0318a48                register_die_notifier
                0xc0318a70                atomic_notifier_chain_unregister
                0xc0318b0c                unregister_die_notifier
                0xc0318b98                pm_qos_requirement
                0xc0318bec                pm_qos_remove_notifier
                0xc0318c10                pm_qos_add_notifier
                0xc0318d0c                pm_qos_remove_requirement
                0xc0318e54                pm_qos_update_requirement
                0xc0318fd0                pm_qos_add_requirement
                0xc0319194                sched_clock
                0xc03191c4                sched_clock_init
                0xc03191e4                sched_clock_cpu
                0xc0319224                cpu_clock
                0xc03194b4                sysctl_check_table
                0xc0319bdc                update_xtime_cache
                0xc0319d44                read_persistent_clock
                0xc0319d58                monotonic_to_bootbased
                0xc0319d80                get_seconds
                0xc0319d9c                current_kernel_time
                0xc0319dd8                timekeeping_valid_for_hres
                0xc0319e18                getrawmonotonic
                0xc0319f00                getnstimeofday
                0xc0319ff8                do_gettimeofday
                0xc031a230                getboottime
                0xc031a264                update_wall_time
                0xc031a94c                do_settimeofday
                0xc031ab78                ntp_clear
                0xc031abd4                second_overflow
                0xc031aec8                do_adjtimex
                0xc031b5f0                clocksource_touch_watchdog
                0xc031b764                clocksource_unregister
                0xc031b840                clocksource_get_next
                0xc031b8d8                clocksource_resume
                0xc031bba4                clocksource_change_rating
                0xc031bc74                clocksource_register
                0xc031c9c4                sysrq_timer_list_show
                0xc031c9e0                clockevents_set_mode
                0xc031ca18                clockevents_shutdown
                0xc031ca40                clockevents_handle_noop
                0xc031ca50                clockevents_exchange_device
                0xc031caec                clockevents_notify
                0xc031cba8                clockevents_register_device
                0xc031ccc4                clockevents_program_event
                0xc031ce00                clockevents_register_notifier
                0xc031ce5c                clockevent_delta2ns
                0xc031cedc                tick_get_device
                0xc031cef4                tick_is_oneshot_available
                0xc031cf20                tick_setup_periodic
                0xc031d464                tick_handle_periodic
                0xc031d54c                tick_switch_to_oneshot
                0xc031d5f0                tick_init_highres
                0xc031d60c                tick_dev_program_event
                0xc031d6e8                tick_setup_oneshot
                0xc031d730                tick_program_event
                0xc031d76c                tick_resume_oneshot
                0xc031d7ac                tick_get_tick_sched
                0xc031d7c4                tick_check_idle
                0xc031d7d4                tick_clock_notify
                0xc031d808                tick_oneshot_notify
                0xc031d83c                tick_check_oneshot_change
                0xc031d8b0                tick_cancel_sched_timer
                0xc031d8e4                tick_setup_sched_timer
                0xc031de70                sys_set_robust_list
                0xc031eed8                handle_futex_death
                0xc031efcc                exit_pi_state_list
                0xc031f1ac                exit_robust_list
                0xc031fca0                do_futex
                0xc03206e8                sys_futex
                0xc0320828                sys_get_robust_list
                0xc0320948                __rt_mutex_init
                0xc0320970                rt_mutex_init_proxy_locked
                0xc0320994                rt_mutex_proxy_unlock
                0xc03209bc                rt_mutex_next_owner
                0xc0320a00                rt_mutex_getprio
                0xc0320a30                rt_mutex_destroy
                0xc0321168                rt_mutex_timed_lock
                0xc0321188                rt_mutex_adjust_pi
                0xc0321274                sys_getresuid16
                0xc0321340                sys_getresgid16
                0xc032140c                sys_getuid16
                0xc0321450                sys_geteuid16
                0xc0321494                sys_getgid16
                0xc03214d8                sys_getegid16
                0xc032151c                sys_getgroups16
                0xc0321638                sys_setgroups16
                0xc032175c                sys_setfsgid16
                0xc0321780                sys_setfsuid16
                0xc03217a4                sys_setresgid16
                0xc03217d8                sys_setresuid16
                0xc032180c                sys_setuid16
                0xc0321830                sys_setreuid16
                0xc032185c                sys_setgid16
                0xc0321880                sys_setregid16
                0xc03218ac                sys_fchown16
                0xc03218d8                sys_lchown16
                0xc0321904                sys_chown16
                0xc03219a0                module_refcount
                0xc0321aa8                __module_text_address
                0xc0321d34                print_modules
                0xc0321e18                module_text_address
                0xc0321e68                is_module_address
                0xc0321f38                search_module_extables
                0xc0322268                module_kallsyms_lookup_name
                0xc0322490                module_get_kallsym
                0xc03225f0                lookup_module_symbol_attrs
                0xc0322740                lookup_module_symbol_name
                0xc0322860                module_address_lookup
                0xc0322cac                mod_sysfs_init
                0xc0322d80                module_remove_modinfo_attrs
                0xc0322de4                module_add_modinfo_attrs
                0xc0322e98                mod_sysfs_setup
                0xc0322f1c                module_put
                0xc0323060                symbol_put_addr
                0xc032309c                __module_put_and_exit
                0xc03230b8                unregister_module_notifier
                0xc03230d8                register_module_notifier
                0xc03232e4                __symbol_get
                0xc03233e8                __symbol_put
                0xc03249e0                sys_init_module
                0xc0324b64                sys_delete_module
                0xc0325294                lookup_symbol_attrs
                0xc03253ac                lookup_symbol_name
                0xc03254a0                kallsyms_lookup
                0xc03255c8                sprint_symbol
                0xc0325680                __print_symbol
                0xc03256b4                kallsyms_lookup_size_offset
                0xc0325718                kallsyms_lookup_name
                0xc032585c                no_action
                0xc0325a94                handle_bad_irq
                0xc0325cb8                handle_IRQ_event
                0xc0325d3c                can_request_irq
                0xc0325db0                compat_irq_chip_set_default_handler
                0xc0325dd8                disable_irq_nosync
                0xc0325e90                disable_irq
                0xc0325edc                __irq_set_trigger
                0xc0325f5c                set_irq_wake
                0xc03263c4                request_irq
                0xc03264b4                setup_irq
                0xc03264f0                enable_irq
                0xc0326584                free_irq
                0xc032670c                noirqdebug_setup
                0xc0326a08                note_interrupt
                0xc0326cb4                check_irq_resend
                0xc0326e4c                irq_chip_set_defaults
                0xc0326ee8                __set_irq_handler
                0xc0327094                set_irq_chip_data
                0xc032715c                set_irq_msi
                0xc0327210                set_irq_data
                0xc03272bc                handle_percpu_irq
                0xc0327348                handle_edge_irq
                0xc03274fc                handle_fasteoi_irq
                0xc032764c                handle_level_irq
                0xc03277bc                handle_simple_irq
                0xc03278d0                set_irq_type
                0xc0327998                set_irq_chip
                0xc0327a6c                set_irq_chip_and_handler_name
                0xc0327aa0                set_irq_chip_and_handler
                0xc0327ad0                dynamic_irq_cleanup
                0xc0327bf8                dynamic_irq_init
                0xc0327d40                devm_free_irq
                0xc0327da8                devm_request_irq
                0xc0327e34                probe_irq_off
                0xc0327f14                probe_irq_mask
                0xc0327fec                probe_irq_on
                0xc0328250                unregister_handler_proc
                0xc032829c                register_irq_proc
                0xc032834c                init_irq_proc
                0xc0328428                register_handler_proc
                0xc032856c                rcu_batches_completed
                0xc0328588                rcu_batches_completed_bh
                0xc03285a4                rcu_pending
                0xc03286ec                rcu_needs_cpu
                0xc0328730                call_rcu_bh
                0xc032880c                call_rcu
                0xc0328cf4                rcu_check_callbacks
                0xc0328f3c                dma_release_from_coherent
                0xc0328fa0                dma_alloc_from_coherent
                0xc032903c                dma_mark_declared_memory_occupied
                0xc03290a4                dma_release_declared_memory
                0xc03290e0                dma_declare_coherent_memory
 .text          0xc03291cc    0x27e00 mm/built-in.o
                0xc03291cc                iov_iter_single_seg_count
                0xc0329204                pagecache_write_begin
                0xc0329248                iov_iter_fault_in_readable
                0xc03292cc                iov_iter_advance
                0xc0329388                generic_segment_checks
                0xc032941c                try_to_release_page
                0xc0329480                pagecache_write_end
                0xc03294ec                generic_write_checks
                0xc0329798                iov_iter_copy_from_user
                0xc0329870                iov_iter_copy_from_user_atomic
                0xc03299b4                should_remove_suid
                0xc0329a08                file_remove_suid
                0xc0329a78                generic_file_mmap
                0xc0329ad8                generic_file_readonly_mmap
                0xc0329b00                sys_readahead
                0xc0329bc0                file_read_actor
                0xc0329d18                find_get_pages_tag
                0xc0329e44                find_get_pages_contig
                0xc0329f68                find_get_pages
                0xc032a070                find_get_page
                0xc032a134                __lock_page_nosync
                0xc032a1f0                __lock_page_killable
                0xc032a2ac                __lock_page
                0xc032a424                end_page_writeback
                0xc032a4cc                unlock_page
                0xc032a54c                find_lock_page
                0xc032a5c4                wait_on_page_bit
                0xc032a6ac                add_to_page_cache_locked
                0xc032a830                add_to_page_cache_lru
                0xc032a8b8                __grab_cache_page
                0xc032a93c                read_cache_page_async
                0xc032aa98                read_cache_page
                0xc032aaec                filemap_fault
                0xc032af40                grab_cache_page_nowait
                0xc032afe8                find_or_create_page
                0xc032b06c                wait_on_page_writeback_range
                0xc032b1a8                filemap_fdatawait
                0xc032b224                __filemap_fdatawrite_range
                0xc032b29c                filemap_write_and_wait_range
                0xc032b318                filemap_flush
                0xc032b350                filemap_fdatawrite
                0xc032b388                filemap_write_and_wait
                0xc032b3cc                generic_file_buffered_write
                0xc032b6b8                generic_file_direct_write
                0xc032be38                filemap_fdatawrite_range
                0xc032be64                sync_page_range_nolock
                0xc032bf0c                generic_file_aio_write_nolock
                0xc032bfc0                sync_page_range
                0xc032c090                generic_file_aio_write
                0xc032c174                __remove_from_page_cache
                0xc032c2f4                remove_from_page_cache
                0xc032c368                generic_file_aio_read
                0xc032c9f4                mempool_free_pages
                0xc032ca08                mempool_alloc_pages
                0xc032ca34                mempool_kfree
                0xc032caa8                mempool_destroy
                0xc032cad4                mempool_alloc_slab
                0xc032caf4                mempool_kzalloc
                0xc032cb14                mempool_kmalloc
                0xc032cb34                mempool_free_slab
                0xc032cb54                mempool_free
                0xc032cc40                mempool_alloc
                0xc032cda0                mempool_resize
                0xc032d034                mempool_create_node
                0xc032d120                mempool_create
                0xc032d2e4                try_set_zone_oom
                0xc032d3f0                clear_zonelist_oom
                0xc032d4ac                unregister_oom_notifier
                0xc032d4cc                register_oom_notifier
                0xc032d4ec                badness
                0xc032d8b0                out_of_memory
                0xc032daf0                sys_fadvise64_64
                0xc032dcf4                probe_kernel_write
                0xc032dda4                probe_kernel_read
                0xc032de54                prep_compound_page
                0xc032e030                split_page
                0xc032e068                zone_watermark_ok
                0xc032e0fc                get_pageblock_flags_group
                0xc032e1a0                set_pageblock_flags_group
                0xc032e570                unset_migratetype_isolate
                0xc032e874                lowmem_reserve_ratio_sysctl_handler
                0xc032e8a8                percpu_pagelist_fraction_sysctl_handler
                0xc032e93c                setup_per_zone_inactive_ratio
                0xc032e988                setup_per_zone_pages_min
                0xc032ebfc                min_free_kbytes_sysctl_handler
                0xc032ee70                show_free_areas
                0xc032f160                si_meminfo
                0xc032f22c                nr_free_pagecache_pages
                0xc032f244                build_all_zonelists
                0xc032f32c                nr_free_buffer_pages
                0xc0330128                drain_local_pages
                0xc0330188                drain_all_pages
                0xc03301b8                set_migratetype_isolate
                0xc03302a4                __alloc_pages_internal
                0xc033068c                get_zeroed_page
                0xc03306ec                __get_free_pages
                0xc03309f0                __pagevec_free
                0xc0330a28                free_cold_page
                0xc0330a40                free_hot_page
                0xc0330a58                __free_pages
                0xc0330aa0                free_pages
                0xc0330ae8                free_pages_exact
                0xc0330b2c                alloc_pages_exact
                0xc0330bf4                writeback_set_ratelimit
                0xc0330c50                __set_page_dirty_no_writeback
                0xc0330cf8                mapping_tagged
                0xc0330d4c                bdi_set_max_ratio
                0xc0330de8                bdi_set_min_ratio
                0xc0330e8c                test_set_page_writeback
                0xc033107c                test_clear_page_writeback
                0xc0331250                bdi_writeout_inc
                0xc0331288                set_page_dirty
                0xc0331358                clear_page_dirty_for_io
                0xc0331500                set_page_dirty_lock
                0xc0331554                __set_page_dirty_nobuffers
                0xc0331798                redirty_page_for_writepage
                0xc03317c0                write_one_page
                0xc03318e0                write_cache_pages
                0xc0331c1c                generic_writepages
                0xc0331c50                do_writepages
                0xc0331cac                laptop_io_completion
                0xc0331d48                wakeup_pdflush
                0xc0331ecc                laptop_sync_completion
                0xc0331efc                dirty_writeback_centisecs_handler
                0xc0331f64                determine_dirtyable_memory
                0xc0331fc4                get_dirty_limits
                0xc03322f4                throttle_vm_writeout
                0xc0332374                balance_dirty_pages_ratelimited_nr
                0xc03325e8                set_page_dirty_balance
                0xc0332644                dirty_ratio_handler
                0xc0332708                pdflush_operation
                0xc0332a4c                default_unplug_io_fn
                0xc0332a5c                file_ra_state_init
                0xc0332a84                max_sane_readahead
                0xc0332d1c                do_page_cache_readahead
                0xc0332d90                force_page_cache_readahead
                0xc0332e40                read_cache_pages
                0xc0333090                page_cache_async_readahead
                0xc0333138                page_cache_sync_readahead
                0xc0333174                pagevec_lookup_tag
                0xc03331b0                pagevec_lookup
                0xc03331dc                pagevec_swap_free
                0xc03332ac                pagevec_strip
                0xc033332c                add_page_to_unevictable_list
                0xc0333448                activate_page
                0xc033364c                mark_page_accessed
                0xc03336dc                __pagevec_release_nonlru
                0xc033377c                release_pages
                0xc0333a44                ____pagevec_lru_add
                0xc0333ca4                __lru_cache_add
                0xc0333d50                lru_cache_add_lru
                0xc0333db0                lru_add_drain_all
                0xc0333dcc                lru_cache_add_active_or_unevictable
                0xc0333e10                put_page
                0xc0333fac                put_pages_list
                0xc03341bc                rotate_reclaimable_page
                0xc033426c                lru_add_drain
                0xc0334318                __pagevec_release
                0xc0334358                do_invalidatepage
                0xc0334388                cancel_dirty_page
                0xc03344a0                invalidate_inode_pages2_range
                0xc03347cc                invalidate_inode_pages2
                0xc03347e8                __invalidate_mapping_pages
                0xc0334974                invalidate_mapping_pages
                0xc0334a28                truncate_inode_pages_range
                0xc0334e04                truncate_inode_pages
                0xc0334e2c                global_lru_pages
                0xc0334e60                scan_unevictable_unregister_node
                0xc0334ea0                scan_unevictable_register_node
                0xc0334ebc                __isolate_lru_page
                0xc0334fa0                page_evictable
                0xc0335274                scan_zone_unevictable_pages
                0xc03353e4                scan_all_zones_unevictable_pages
                0xc0335414                scan_unevictable_handler
                0xc0335474                isolate_lru_page
                0xc0335620                scan_mapping_unevictable_pages
                0xc0335850                kswapd_run
                0xc0335a60                remove_mapping
                0xc0335cec                wakeup_kswapd
                0xc0335d60                putback_lru_page
                0xc0337778                shrink_slab
                0xc0337e88                try_to_free_pages
                0xc03381b8                unregister_shrinker
                0xc033820c                register_shrinker
                0xc0338260                vma_prio_tree_next
                0xc03382d4                vma_prio_tree_add
                0xc033838c                vma_prio_tree_remove
                0xc0338480                vma_prio_tree_insert
                0xc03384c4                arch_pick_mmap_layout
                0xc03384f4                get_user_pages_fast
                0xc0338574                strndup_user
                0xc0338638                __krealloc
                0xc03386a8                krealloc
                0xc03386f0                kmemdup
                0xc033872c                kstrndup
                0xc0338780                kstrdup
                0xc03387cc                next_zones_zonelist
                0xc0338814                next_online_pgdat
                0xc0338860                next_zone
                0xc033888c                first_online_pgdat
                0xc0339068                all_vm_events
                0xc03393a0                congestion_wait
                0xc0339438                set_bdi_congested
                0xc0339460                clear_bdi_congested
                0xc03394b0                bdi_init
                0xc03394f8                bdi_unregister
                0xc0339524                bdi_destroy
                0xc0339544                bdi_register
                0xc03395b0                bdi_register_dev
                0xc03395e8                test_pages_isolated
                0xc0339794                undo_isolate_page_range
                0xc0339840                start_isolate_page_range
                0xc0339908                mminit_verify_zonelist
                0xc0339a18                sys_remap_file_pages
                0xc0339ec8                sys_madvise
                0xc033a3e4                pud_clear_bad
                0xc033a3f4                __pmd_alloc
                0xc033a40c                get_gate_vma
                0xc033a420                in_gate_area_no_task
                0xc033a434                print_vma_addr
                0xc033a9e4                vm_normal_page
                0xc033b1c8                follow_page
                0xc033b3b4                __pte_alloc_kernel
                0xc033b480                __pte_alloc
                0xc033b664                handle_mm_fault
                0xc033be3c                __get_user_pages
                0xc033c094                get_user_pages
                0xc033c0d8                access_process_vm
                0xc033c23c                make_pages_present
                0xc033c2f8                apply_to_page_range
                0xc033c544                remap_pfn_range
                0xc033c75c                get_locked_pte
                0xc033c938                vm_insert_page
                0xc033ca48                vm_insert_mixed
                0xc033cb10                vm_insert_pfn
                0xc033cbe4                pmd_clear_bad
                0xc033cc1c                unmap_vmas
                0xc033d188                zap_page_range
                0xc033d38c                unmap_mapping_range
                0xc033d650                vmtruncate_range
                0xc033d758                vmtruncate
                0xc033d918                zap_vma_ptes
                0xc033d968                copy_page_range
                0xc033dda0                free_pgd_range
                0xc033df6c                free_pgtables
                0xc033e018                pgd_clear_bad
                0xc033e078                sys_mincore
                0xc033e38c                user_shm_unlock
                0xc033e3f0                user_shm_lock
                0xc033e4b4                can_do_mlock
                0xc033e4f8                mlock_vma_page
                0xc033eb9c                sys_munlockall
                0xc033ebe8                munlock_vma_pages_range
                0xc033ec0c                mlock_vma_pages_range
                0xc033ecec                __clear_page_mlock
                0xc033ee28                sys_mlockall
                0xc033efdc                sys_munlock
                0xc033f054                sys_mlock
                0xc033f124                vm_get_page_prot
                0xc033f144                __vm_enough_memory
                0xc033f288                vm_stat_account
                0xc033f2e4                vma_wants_writenotify
                0xc033f380                arch_unmap_area
                0xc033f3ac                arch_unmap_area_topdown
                0xc033f3d8                find_vma
                0xc033f45c                find_vma_prev
                0xc033f4d8                may_expand_vm
                0xc033f5a4                get_unmapped_area
                0xc033f634                find_mergeable_anon_vma
                0xc033f7e0                mm_drop_all_locks
                0xc033f900                mm_take_all_locks
                0xc033fcec                exit_mmap
                0xc0340024                expand_stack
                0xc0340038                find_extend_vma
                0xc03400b4                expand_stack_downwards
                0xc03400c8                arch_get_unmapped_area_topdown
                0xc0340330                unlink_file_vma
                0xc0340388                __vma_link_rb
                0xc0340518                insert_vm_struct
                0xc034064c                install_special_mapping
                0xc0340700                vma_adjust
                0xc0340ba4                split_vma
                0xc0340ce0                do_munmap
                0xc0340f90                sys_munmap
                0xc0340fe8                vma_merge
                0xc0341290                copy_vma
                0xc0341448                do_brk
                0xc034173c                sys_brk
                0xc034184c                mmap_region
                0xc0341da8                do_mmap_pgoff
                0xc0342064                mprotect_fixup
                0xc034246c                sys_mprotect
                0xc0342640                move_page_tables
                0xc03428f8                do_mremap
                0xc0342ed8                sys_mremap
                0xc0342f50                sys_msync
                0xc0343110                __anon_vma_link
                0xc034315c                page_add_file_rmap
                0xc03431f8                page_address_in_vma
                0xc0343274                page_add_new_anon_rmap
                0xc034333c                page_add_anon_rmap
                0xc0343408                __anon_vma_merge
                0xc034345c                page_check_address
                0xc0343544                page_unlock_anon_vma
                0xc03435a4                page_lock_anon_vma
                0xc0343624                anon_vma_link
                0xc0343828                page_mkclean
                0xc0343b18                page_remove_rmap
                0xc0344680                try_to_munlock
                0xc03446b4                try_to_unmap
                0xc0344710                page_referenced
                0xc034484c                anon_vma_unlink
                0xc03448e4                anon_vma_prepare
                0xc03449f8                vmalloc_sync_all
                0xc0344d40                vwrite
                0xc0344e28                vread
                0xc0345074                unmap_kernel_range
                0xc03458a0                get_vm_area_node
                0xc03458e4                get_vm_area_caller
                0xc0345930                get_vm_area
                0xc0345978                __get_vm_area
                0xc03459c4                remove_vm_area
                0xc0345a74                free_vm_area
                0xc0345aa8                alloc_vm_area
                0xc0345be8                vunmap
                0xc0345c28                vfree
                0xc0345e5c                map_vm_area
                0xc034608c                vmalloc_node
                0xc03460c0                vmalloc
                0xc03460f4                __vmalloc
                0xc0346118                vmalloc_32_user
                0xc0346178                vmalloc_32
                0xc034619c                vmalloc_exec
                0xc03461c4                vmalloc_user
                0xc0346224                __vmalloc_area
                0xc0346248                vmap
                0xc03462bc                vm_unmap_ram
                0xc034660c                vm_unmap_aliases
                0xc034676c                vmalloc_to_page
                0xc03467fc                remap_vmalloc_range
                0xc03468c4                vmalloc_to_pfn
                0xc0346900                vm_map_ram
                0xc0346d64                walk_page_range
                0xc0347018                swap_readpage
                0xc03470dc                swap_writepage
                0xc0347270                end_swap_bio_read
                0xc0347338                lookup_swap_cache
                0xc0347380                free_pages_and_swap_cache
                0xc0347428                free_page_and_swap_cache
                0xc0347480                __delete_from_swap_cache
                0xc0347590                delete_from_swap_cache
                0xc0347608                add_to_swap_cache
                0xc034781c                read_swap_cache_async
                0xc0347938                swapin_readahead
                0xc03479cc                add_to_swap
                0xc0347a7c                show_swap_cache_info
                0xc0347c38                get_swap_info_struct
                0xc0347de0                map_swap_page
                0xc0347e48                valid_swaphandles
                0xc0347f80                si_swapinfo
                0xc0348038                swap_duplicate
                0xc034822c                can_share_swap_page
                0xc03482d0                swap_free
                0xc03483d0                sys_swapon
                0xc0348e98                swap_unplug_io_fn
                0xc034928c                sys_swapoff
                0xc0349eb8                get_swap_page_of_type
                0xc034a1d8                get_swap_page
                0xc034a5e0                free_swap_and_cache
                0xc034a8bc                remove_exclusive_swap_page_ref
                0xc034a8d8                remove_exclusive_swap_page
                0xc034a8f0                __put_swap_token
                0xc034a958                grab_swap_token
                0xc034aaa0                dma_pool_free
                0xc034ac34                dma_pool_alloc
                0xc034af68                dma_pool_destroy
                0xc034b098                dmam_pool_destroy
                0xc034b104                dma_pool_create
                0xc034b268                dmam_pool_create
                0xc034d534                shmem_lock
                0xc034d650                shmem_unuse
                0xc034dd08                shmem_file_setup
                0xc034dedc                shmem_zero_setup
                0xc034e06c                slab_is_available
                0xc034e134                kmem_cache_size
                0xc034e148                kmem_cache_name
                0xc034e178                ksize
                0xc034e1f4                kmem_ptr_validate
                0xc034e8a4                kfree
                0xc034e954                kmem_cache_free
                0xc034f04c                kmem_cache_shrink
                0xc034f174                kmem_cache_destroy
                0xc034f864                kmem_cache_alloc
                0xc034fa0c                __kmalloc
                0xc034feb4                slabinfo_write
                0xc03500a0                kmem_cache_create
                0xc03504e8                xip_truncate_page
                0xc0350770                xip_file_write
                0xc0350d58                xip_file_mmap
                0xc0350dbc                xip_file_read
 .text          0xc0350fcc    0xdf318 fs/built-in.o
                0xc0350fcc                nonseekable_open
                0xc0350fec                generic_file_open
                0xc0351064                fd_install
                0xc03510d8                put_unused_fd
                0xc035115c                sys_vhangup
                0xc0351188                filp_close
                0xc0351208                sys_close
                0xc0351334                do_sys_open
                0xc0351420                sys_openat
                0xc0351434                sys_open
                0xc035145c                sys_creat
                0xc0351730                dentry_open
                0xc03517bc                nameidata_to_filp
                0xc035180c                lookup_instantiate_filp
                0xc03518d0                sys_fallocate
                0xc0351a84                sys_fchown
                0xc0351ae4                sys_fchmod
                0xc0351b8c                sys_lchown
                0xc0351c00                sys_fchownat
                0xc0351c84                sys_chown
                0xc0351cf8                sys_fchmodat
                0xc0351da4                sys_chmod
                0xc0351dc4                sys_chroot
                0xc0351e50                sys_fchdir
                0xc0351ec4                sys_chdir
                0xc0351f3c                sys_faccessat
                0xc03520b4                sys_access
                0xc03520d4                do_truncate
                0xc03522dc                sys_ftruncate64
                0xc0352300                sys_ftruncate
                0xc03524f0                sys_truncate64
                0xc0352504                sys_truncate
                0xc0352520                vfs_statfs
                0xc03527b4                sys_fstatfs64
                0xc0352854                sys_fstatfs
                0xc03528e4                sys_statfs64
                0xc0352990                sys_statfs
                0xc0352a2c                generic_file_llseek_unlocked
                0xc0352ad0                no_llseek
                0xc0352ae8                vfs_llseek
                0xc0352b44                iov_shorten
                0xc0352b90                do_loop_readv_writev
                0xc0352c10                sys_lseek
                0xc0352c8c                rw_copy_check_uvector
                0xc0352e04                do_sync_readv_writev
                0xc0352f08                do_sync_write
                0xc0353014                do_sync_read
                0xc0353120                rw_verify_area
                0xc03533e0                sys_sendfile64
                0xc03534bc                sys_sendfile
                0xc0353708                vfs_writev
                0xc0353780                sys_writev
                0xc03537f0                vfs_readv
                0xc0353868                sys_readv
                0xc03538d8                vfs_write
                0xc0353a20                sys_pwrite64
                0xc0353aa0                sys_write
                0xc0353b10                vfs_read
                0xc0353c54                sys_pread64
                0xc0353cd4                sys_read
                0xc0353d44                sys_llseek
                0xc0353e0c                default_llseek
                0xc0353eec                generic_file_llseek
                0xc0353f58                get_max_files
                0xc0353f74                fs_may_remount_ro
                0xc0354044                file_kill
                0xc03540ac                file_move
                0xc035411c                fget_light
                0xc0354210                fget
                0xc03542fc                put_filp
                0xc03543c0                drop_file_write_access
                0xc0354420                __fput
                0xc03545f8                fput
                0xc0354630                init_file
                0xc03546e0                get_empty_filp
                0xc0354828                alloc_file
                0xc0354874                proc_nr_files
                0xc035490c                vfs_kern_mount
                0xc03549b0                kern_mount_data
                0xc03549d0                do_kern_mount
                0xc0354aa8                set_anon_super
                0xc0354ba4                emergency_remount
                0xc0354bc4                lock_super
                0xc0354c08                unlock_super
                0xc0354cdc                drop_super
                0xc0354d00                __put_super_and_need_restart
                0xc0354d48                user_get_super
                0xc0354e38                sys_ustat
                0xc0354f0c                get_super
                0xc0355000                sync_filesystems
                0xc0355188                sync_supers
                0xc03552a0                sget
                0xc035566c                __fsync_super
                0xc03556ec                fsync_super
                0xc035570c                do_remount_sb
                0xc0355a0c                generic_shutdown_super
                0xc0355b38                kill_block_super
                0xc0355b68                kill_anon_super
                0xc0355bcc                kill_litter_super
                0xc0355bf8                deactivate_super
                0xc0355c80                get_sb_single
                0xc0355d34                get_sb_nodev
                0xc0355dc4                get_sb_bdev
                0xc0355fdc                cd_forget
                0xc0356164                cdev_init
                0xc03561c4                cdev_alloc
                0xc0356210                cdev_put
                0xc0356458                cdev_del
                0xc035648c                cdev_add
                0xc0356570                unregister_chrdev
                0xc03565ac                unregister_chrdev_region
                0xc0356778                register_chrdev
                0xc0356860                alloc_chrdev_region
                0xc0356894                register_chrdev_region
                0xc0356930                chrdev_show
                0xc035699c                inode_set_bytes
                0xc03569c0                inode_get_bytes
                0xc0356a24                inode_sub_bytes
                0xc0356adc                inode_add_bytes
                0xc0356b70                generic_fillattr
                0xc0356c58                vfs_getattr
                0xc0356fd8                sys_readlinkat
                0xc035706c                sys_readlink
                0xc0357094                vfs_lstat_fd
                0xc03570e8                sys_newlstat
                0xc035712c                vfs_lstat
                0xc035714c                sys_lstat64
                0xc0357188                vfs_stat_fd
                0xc03571dc                sys_fstatat64
                0xc0357230                sys_newstat
                0xc0357274                vfs_stat
                0xc0357294                sys_stat64
                0xc03572d0                vfs_fstat
                0xc0357314                sys_fstat64
                0xc0357350                sys_newfstat
                0xc035738c                set_dumpable
                0xc0357448                get_dumpable
                0xc0357468                unregister_binfmt
                0xc03574d4                register_binfmt
                0xc03575cc                do_coredump
                0xc0357db8                set_binfmt
                0xc0357f30                remove_arg_zero
                0xc0358258                copy_strings_kernel
                0xc03582c4                free_bprm
                0xc03582d8                search_binary_handler
                0xc0358600                compute_creds
                0xc03586c8                set_task_comm
                0xc0358718                flush_old_exec
                0xc0358ef4                get_task_comm
                0xc0358f4c                kernel_read
                0xc0358fd4                prepare_binprm
                0xc03590c4                open_exec
                0xc0359190                setup_arg_pages
                0xc0359434                bprm_mm_init
                0xc0359578                do_execve
                0xc03597cc                sys_uselib
                0xc03599f8                generic_pipe_buf_map
                0xc0359a94                generic_pipe_buf_confirm
                0xc0359bd8                generic_pipe_buf_get
                0xc0359fa8                generic_pipe_buf_unmap
                0xc0359ff4                create_read_pipe
                0xc035a0a4                __free_pipe_info
                0xc035a110                free_pipe_info
                0xc035a234                free_write_pipe
                0xc035a264                alloc_pipe_info
                0xc035a2b0                create_write_pipe
                0xc035a444                do_pipe_flags
                0xc035a514                sys_pipe2
                0xc035a598                sys_pipe
                0xc035a5b0                do_pipe
                0xc035a5c8                generic_pipe_buf_steal
                0xc035a62c                pipe_wait
                0xc035b0c8                path_get
                0xc035b13c                deny_write_access
                0xc035b1d8                get_write_access
                0xc035b26c                __page_symlink
                0xc035b390                page_symlink
                0xc035b3b4                page_put_link
                0xc035b43c                page_follow_link_light
                0xc035b47c                generic_permission
                0xc035b598                inode_permission
                0xc035b61c                file_permission
                0xc035b638                vfs_permission
                0xc035b7c0                follow_up
                0xc035b8dc                path_put
                0xc035b9c4                follow_down
                0xc035ba5c                unlock_rename
                0xc035bdac                lookup_create
                0xc035be4c                lookup_one_len
                0xc035bee4                lookup_one_noperm
                0xc035bf6c                vfs_readlink
                0xc035bfe8                page_readlink
                0xc035c04c                generic_readlink
                0xc035c0ec                vfs_link
                0xc035c22c                vfs_symlink
                0xc035c2f0                vfs_mknod
                0xc035c3dc                vfs_create
                0xc035c4b0                vfs_mkdir
                0xc035c57c                vfs_unlink
                0xc035c644                dentry_unhash
                0xc035c748                vfs_rename
                0xc035cacc                vfs_rmdir
                0xc035cb88                may_open
                0xc035cd40                lock_rename
                0xc035cdd4                release_open_intent
                0xc035ce00                getname
                0xc035deb0                vfs_follow_link
                0xc035e0a8                vfs_path_lookup
                0xc035e250                kern_path
                0xc035e298                path_lookup
                0xc035e2c0                path_lookup_open
                0xc035e3c0                sys_renameat
                0xc035e598                sys_rename
                0xc035e718                sys_unlink
                0xc035e824                sys_unlinkat
                0xc035e854                sys_rmdir
                0xc035e870                sys_mkdirat
                0xc035e95c                sys_mkdir
                0xc035e97c                sys_mknodat
                0xc035eb5c                sys_mknod
                0xc035eb84                sys_symlinkat
                0xc035ec6c                sys_symlink
                0xc035ec88                user_path_at
                0xc035ed18                sys_linkat
                0xc035ee20                sys_link
                0xc035ee58                do_filp_open
                0xc035f5a4                filp_open
                0xc035f5cc                set_close_on_exec
                0xc035f654                fasync_helper
                0xc035f784                send_sigurg
                0xc035f8a4                send_sigio
                0xc035fa5c                __kill_fasync
                0xc035fad4                kill_fasync
                0xc035fb2c                f_getown
                0xc035fc6c                f_delown
                0xc035fca0                __f_setown
                0xc035fce0                f_setown
                0xc03600c0                sys_fcntl64
                0xc036014c                sys_fcntl
                0xc036019c                sys_dup
                0xc03601e0                sys_dup3
                0xc0360384                sys_dup2
                0xc0360420                fiemap_check_flags
                0xc03604e0                fiemap_fill_next_extent
                0xc03605d8                do_vfs_ioctl
                0xc0360ab8                sys_ioctl
                0xc0360b1c                generic_block_fiemap
                0xc0361070                vfs_readdir
                0xc0361118                sys_getdents64
                0xc03611d4                sys_getdents
                0xc0361288                poll_initwait
                0xc03613a0                poll_select_set_timeout
                0xc036144c                poll_freewait
                0xc03614c8                do_sys_poll
                0xc0361870                sys_poll
                0xc0361994                do_select
                0xc0361e1c                core_sys_select
                0xc0362260                sys_select
                0xc0362794                d_ancestor
                0xc0362924                dget_locked
                0xc0362998                d_genocide
                0xc0362a80                is_subdir
                0xc0362b30                d_rehash
                0xc0362bac                have_submounts
                0xc0362c90                d_find_alias
                0xc036356c                shrink_dcache_parent
                0xc03636d0                d_invalidate
                0xc0363880                shrink_dcache_sb
                0xc036389c                dput
                0xc0363aa8                d_prune_aliases
                0xc0363c94                dentry_path
                0xc0363e04                __d_path
                0xc0363fd0                sys_getcwd
                0xc03641a8                d_path
                0xc0364344                dynamic_dname
                0xc03643f8                d_instantiate
                0xc03647b0                shrink_dcache_for_umount
                0xc0364ac4                d_move
                0xc0364b0c                d_splice_alias
                0xc0364ccc                d_materialise_unique
                0xc0365058                d_instantiate_unique
                0xc03650e0                __d_lookup
                0xc0365298                d_lookup
                0xc03652e8                d_hash_and_lookup
                0xc0365374                find_inode_number
                0xc03653a8                d_delete
                0xc03654d0                d_validate
                0xc0365644                d_alloc
                0xc036580c                d_add_ci
                0xc0365984                d_obtain_alias
                0xc0365af4                d_alloc_root
                0xc0365b40                d_alloc_name
                0xc0365bac                __iget
                0xc0365ca0                bmap
                0xc0365ccc                inode_needs_sync
                0xc0365d28                init_special_inode
                0xc0365d9c                inode_double_lock
                0xc0365e08                remove_inode_hash
                0xc0365e80                __insert_inode_hash
                0xc0365f04                igrab
                0xc0365f70                inode_double_unlock
                0xc0365fc4                unlock_new_inode
                0xc0365fe4                inode_wait
                0xc0365ffc                file_update_time
                0xc0366120                touch_atime
                0xc0366250                iput
                0xc03663f4                iunique
                0xc03665b4                ilookup
                0xc0366694                ilookup5
                0xc03666e4                ilookup5_nowait
                0xc0366734                destroy_inode
                0xc03668c8                iget_locked
                0xc0366a60                iget5_locked
                0xc0366c3c                new_inode
                0xc0366cfc                clear_inode
                0xc036719c                invalidate_inodes
                0xc03672cc                generic_delete_inode
                0xc0367430                generic_drop_inode
                0xc0367640                inode_init_once
                0xc03676f0                inode_change_ok
                0xc0367868                inode_setattr
                0xc03679ec                notify_change
                0xc0367fd4                is_bad_inode
                0xc0367ffc                make_bad_inode
                0xc0368064                iget_failed
                0xc0368228                dup_fd
                0xc036858c                expand_files
                0xc03687c0                alloc_fd
                0xc03688ec                get_unused_fd
                0xc0368908                free_fdtable_rcu
                0xc0368ac4                unregister_filesystem
                0xc0368bf4                register_filesystem
                0xc0368cb0                get_filesystem_list
                0xc0368d7c                put_filesystem
                0xc0368d94                get_fs_type
                0xc0368fb8                sys_sysfs
                0xc0369238                get_filesystem
                0xc03692bc                __mnt_is_readonly
                0xc03692e4                __lookup_mnt
                0xc0369624                generic_show_options
                0xc036997c                mnt_set_mountpoint
                0xc0369a80                simple_set_mnt
                0xc0369b10                may_umount_tree
                0xc0369bc0                mnt_unpin
                0xc0369c44                mnt_pin
                0xc0369c94                lookup_mnt
                0xc0369d14                mnt_want_write
                0xc0369e2c                set_fs_pwd
                0xc0369eb0                set_fs_root
                0xc036a080                sys_pivot_root
                0xc036a5e0                copy_mount_options
                0xc036a6cc                may_umount
                0xc036a724                umount_tree
                0xc036a890                save_mount_options
                0xc036a914                free_vfsmnt
                0xc036a94c                mntput_no_expire
                0xc036aab0                release_mounts
                0xc036ab70                __put_mnt_ns
                0xc036ac34                mark_mounts_for_expiry
                0xc036ad7c                drop_collected_mounts
                0xc036ae04                sys_umount
                0xc036b130                mnt_release_group_id
                0xc036b584                do_add_mount
                0xc036b6a8                mnt_drop_write
                0xc036b8cc                alloc_vfsmnt
                0xc036bbd8                copy_tree
                0xc036be00                copy_mnt_ns
                0xc036c064                collect_mounts
                0xc036c0ac                do_mount
                0xc036c8cc                sys_mount
                0xc036ca04                seq_putc
                0xc036ca3c                seq_list_start
                0xc036ca88                seq_list_start_head
                0xc036cae8                seq_list_next
                0xc036cb1c                seq_puts
                0xc036cb84                seq_release
                0xc036cbac                seq_release_private
                0xc036cbe4                single_release
                0xc036cc10                seq_bitmap_list
                0xc036cc78                seq_bitmap
                0xc036cd78                seq_dentry
                0xc036ce00                seq_escape
                0xc036cec4                seq_path_root
                0xc036cf8c                seq_path
                0xc036d014                seq_printf
                0xc036d08c                seq_lseek
                0xc036d370                seq_read
                0xc036d740                seq_open
                0xc036d7cc                __seq_open_private
                0xc036d828                seq_open_private
                0xc036d848                single_open
                0xc036d8d4                xattr_getsecurity
                0xc036d8e8                vfs_listxattr
                0xc036d920                generic_getxattr
                0xc036d998                generic_listxattr
                0xc036da58                generic_setxattr
                0xc036daf0                generic_removexattr
                0xc036dc3c                sys_flistxattr
                0xc036dc84                sys_llistxattr
                0xc036dce4                sys_listxattr
                0xc036de6c                vfs_getxattr
                0xc036dff0                sys_fgetxattr
                0xc036e040                sys_lgetxattr
                0xc036e0a8                sys_getxattr
                0xc036e110                vfs_removexattr
                0xc036e260                sys_fremovexattr
                0xc036e2bc                sys_lremovexattr
                0xc036e328                sys_removexattr
                0xc036e394                vfs_setxattr
                0xc036e5bc                sys_fsetxattr
                0xc036e638                sys_lsetxattr
                0xc036e6bc                sys_setxattr
                0xc036e740                simple_statfs
                0xc036e784                simple_sync_file
                0xc036e798                generic_read_dir
                0xc036e7ac                generic_fh_to_parent
                0xc036e800                generic_fh_to_dentry
                0xc036e850                simple_attr_write
                0xc036e934                simple_attr_release
                0xc036e950                simple_attr_open
                0xc036e9cc                simple_transaction_release
                0xc036e9ec                simple_transaction_get
                0xc036eb00                simple_empty
                0xc036eb9c                dcache_readdir
                0xc036ee3c                memory_read_from_buffer
                0xc036eef0                simple_read_from_buffer
                0xc036efcc                simple_attr_read
                0xc036f090                simple_transaction_read
                0xc036f0d4                simple_release_fs
                0xc036f154                simple_pin_fs
                0xc036f278                simple_unlink
                0xc036f2dc                simple_rename
                0xc036f3b8                simple_rmdir
                0xc036f410                dcache_dir_close
                0xc036f42c                simple_link
                0xc036f4e8                simple_fill_super
                0xc036f6ac                simple_lookup
                0xc036f6f4                simple_prepare_write
                0xc036f7dc                simple_readpage
                0xc036f88c                simple_write_end
                0xc036f9fc                simple_write_begin
                0xc036fa50                dcache_dir_open
                0xc036fa84                get_sb_pseudo
                0xc036fbf8                dcache_dir_lseek
                0xc036fd84                simple_getattr
                0xc036fdc0                writeback_in_progress
                0xc036fdd8                sb_has_dirty_inodes
                0xc0370228                sync_inode
                0xc0370278                write_inode_now
                0xc0370354                generic_osync_inode
                0xc0370460                generic_sync_sb_inodes
                0xc037089c                sync_inodes_sb
                0xc0370a2c                writeback_inodes
                0xc0370b58                __mark_inode_dirty
                0xc0370d98                sync_inodes
                0xc0370dcc                propagate_umount
                0xc0370f20                propagate_mount_busy
                0xc037108c                get_dominating_id
                0xc0371140                propagate_mnt
                0xc03713d0                change_mnt_propagation
                0xc03715a4                drop_caches_sysctl_handler
                0xc0371834                sys_tee
                0xc0371d68                sys_splice
                0xc03721f0                splice_direct_to_actor
                0xc03723ac                do_splice_direct
                0xc03725a8                __splice_from_pipe
                0xc0372808                generic_file_splice_write
                0xc037293c                generic_file_splice_write_nolock
                0xc0372a3c                splice_from_pipe
                0xc0372acc                generic_splice_sendpage
                0xc0372afc                splice_to_pipe
                0xc0372f94                sys_vmsplice
                0xc0373634                generic_file_splice_read
                0xc03738a0                do_sync_mapping_range
                0xc0373944                sys_sync_file_range
                0xc0373a60                sys_sync_file_range2
                0xc0373a88                do_fsync
                0xc0373b58                sys_fdatasync
                0xc0373b70                sys_fsync
                0xc0373b88                file_fsync
                0xc0373bf4                emergency_sync
                0xc0373c80                sys_sync
                0xc0373e00                do_utimes
                0xc0373ef4                sys_futimesat
                0xc0373fd4                sys_utimes
                0xc0373ff4                sys_utimensat
                0xc037409c                fsstack_copy_attr_all
                0xc0374130                fsstack_copy_inode_size
                0xc03741c0                init_buffer
                0xc03741d8                mark_buffer_async_write
                0xc0374210                inode_has_buffers
                0xc0374230                generic_block_bmap
                0xc03742a0                block_sync_page
                0xc03742f8                block_is_partially_uptodate
                0xc03743c8                set_bh_page
                0xc0374424                free_buffer_head
                0xc03745d4                alloc_buffer_head
                0xc037468c                sys_bdflush
                0xc0374794                remove_inode_buffers
                0xc037482c                invalidate_inode_buffers
                0xc0374994                try_to_free_buffers
                0xc0374a78                submit_bh
                0xc0374c50                generic_cont_expand_simple
                0xc0374fa8                alloc_page_buffers
                0xc0375068                create_empty_buffers
                0xc03751b4                __brelse
                0xc037520c                invalidate_bh_lrus
                0xc03752a0                __find_get_block
                0xc03754f8                __getblk
                0xc037584c                __bforget
                0xc0375af8                mark_buffer_dirty
                0xc0375cc8                block_commit_write
                0xc0375cfc                page_zero_new_buffers
                0xc0375e80                block_write_end
                0xc0375eec                generic_write_end
                0xc0375fc8                nobh_write_end
                0xc0376138                mark_buffer_dirty_inode
                0xc03761f0                __set_page_dirty_buffers
                0xc03762f8                invalidate_bdev
                0xc0376330                thaw_bdev
                0xc03763a4                sync_blockdev
                0xc03763c8                freeze_bdev
                0xc0376440                fsync_bdev
                0xc0376484                __wait_on_buffer
                0xc03764b4                unmap_underlying_metadata
                0xc0376584                unlock_buffer
                0xc03765b8                bh_submit_read
                0xc03766b4                end_buffer_read_sync
                0xc0376ad4                end_buffer_write_sync
                0xc0376bb0                __lock_buffer
                0xc0376bf8                bh_uptodate_or_lock
                0xc0376c5c                sync_dirty_buffer
                0xc0376d8c                ll_rw_block
                0xc0376f10                block_truncate_page
                0xc0377180                nobh_truncate_page
                0xc0377838                block_prepare_write
                0xc0377898                block_page_mkwrite
                0xc03779c8                block_write_begin
                0xc0377ae0                cont_write_begin
                0xc0377ec8                __breadahead
                0xc0377f10                write_boundary_block
                0xc0377f78                sync_mapping_buffers
                0xc0378778                block_write_full_page
                0xc03788c0                nobh_writepage
                0xc03789fc                nobh_write_begin
                0xc0378ebc                block_read_full_page
                0xc0379268                block_invalidatepage
                0xc03793d0                __bread
                0xc03794a4                bvec_nr_vecs
                0xc03794c8                bio_get_nr_vecs
                0xc0379514                bio_endio
                0xc037956c                bio_sector_offset
                0xc0379628                bioset_free
                0xc0379678                bioset_create
                0xc0379780                bio_split
                0xc0379890                bio_put
                0xc03798f8                bio_pair_release
                0xc0379984                bio_free
                0xc03799fc                bio_check_pages_dirty
                0xc0379aec                bio_set_pages_dirty
                0xc0379c0c                bio_unmap_user
                0xc0379c70                __bio_clone
                0xc0379dc4                bio_init
                0xc0379df4                bvec_alloc_bs
                0xc0379ed0                bio_alloc_bioset
                0xc0379fb0                bio_clone
                0xc0379ffc                bio_kmalloc
                0xc037a024                bio_alloc
                0xc037a278                bio_uncopy_user
                0xc037a534                bio_add_page
                0xc037a588                bio_add_pc_page
                0xc037a5bc                bio_map_kern
                0xc037a6d4                bio_map_user_iov
                0xc037a974                bio_map_user
                0xc037a9b0                bio_copy_user_iov
                0xc037ac58                bio_copy_user
                0xc037ac94                bio_copy_kern
                0xc037ad7c                bio_phys_segments
                0xc037ada4                zero_fill_bio
                0xc037ae3c                I_BDEV
                0xc037ae90                bd_set_size
                0xc037b0c8                bd_release
                0xc037b144                bd_claim
                0xc037b208                nr_blockdev_pages
                0xc037b390                ioctl_by_bdev
                0xc037b528                __invalidate_device
                0xc037b5b0                set_blocksize
                0xc037b650                sb_set_blocksize
                0xc037b6a0                sb_min_blocksize
                0xc037b77c                check_disk_change
                0xc037b7d8                check_disk_size_change
                0xc037b8f0                bd_release_from_disk
                0xc037ba1c                bd_claim_by_disk
                0xc037bbec                bd_forget
                0xc037bc9c                bdput
                0xc037bde4                blkdev_put
                0xc037be3c                close_bdev_exclusive
                0xc037c10c                blkdev_get
                0xc037c124                revalidate_disk
                0xc037c190                bdget
                0xc037c4b0                lookup_bdev
                0xc037c540                open_bdev_exclusive
                0xc037c5c0                open_by_devnum
                0xc037d03c                __blockdev_direct_IO
                0xc037de40                mpage_bio_submit
                0xc037de74                mpage_writepages
                0xc037dee4                __mpage_writepage
                0xc037e4bc                mpage_writepage
                0xc037eac8                mpage_readpage
                0xc037eb48                mpage_readpages
                0xc037edc8                ioprio_best
                0xc037ee00                sys_ioprio_get
                0xc037f114                sys_ioprio_set
                0xc037f320                get_inotify_watch
                0xc037f34c                inotify_d_move
                0xc037f380                inotify_get_cookie
                0xc037f3b4                inotify_init_watch
                0xc037f3f8                inotify_find_update_watch
                0xc037f4a4                inotify_find_watch
                0xc037f634                inotify_d_instantiate
                0xc037f6b4                pin_inotify_watch
                0xc037f940                inotify_clone_watch
                0xc037f9f8                inotify_add_watch
                0xc037fb6c                inotify_inode_queue_event
                0xc037fc4c                inotify_remove_watch_locked
                0xc037fc9c                inotify_evict_watch
                0xc037fcf0                inotify_inode_is_dead
                0xc037fd64                inotify_init
                0xc037fdf0                put_inotify_watch
                0xc037fec0                inotify_rm_wd
                0xc037ff78                inotify_rm_watch
                0xc037ff90                inotify_destroy
                0xc0380070                unpin_inotify_watch
                0xc0380094                inotify_unmount_inodes
                0xc0380268                inotify_dentry_parent_queue_event
                0xc038085c                sys_inotify_rm_watch
                0xc03808d0                sys_inotify_add_watch
                0xc0380a70                sys_inotify_init1
                0xc0380cc8                sys_inotify_init
                0xc0381170                eventpoll_release_file
                0xc038140c                sys_epoll_ctl
                0xc0381a88                sys_epoll_wait
                0xc0382064                sys_epoll_create1
                0xc0382194                sys_epoll_create
                0xc0382214                anon_inode_getfd
                0xc03828cc                sys_signalfd4
                0xc0382a90                sys_signalfd
                0xc0382ef0                sys_timerfd_gettime
                0xc03830dc                sys_timerfd_settime
                0xc0383404                sys_timerfd_create
                0xc03837a0                eventfd_signal
                0xc0383af4                sys_eventfd2
                0xc0383b84                sys_eventfd
                0xc0383b9c                eventfd_fget
                0xc038414c                wait_on_sync_kiocb
                0xc0384364                aio_put_req
                0xc03843f4                kick_iocb
                0xc0384918                sys_io_cancel
                0xc0384f10                sys_io_destroy
                0xc0384f38                exit_aio
                0xc0384fec                sys_io_setup
                0xc0385424                aio_complete
                0xc03858e8                sys_io_getevents
                0xc0385f2c                sys_io_submit
                0xc03864d4                __locks_copy_lock
                0xc0386524                locks_copy_lock
                0xc03866c8                vfs_cancel_lock
                0xc0386a84                lock_may_write
                0xc0386b3c                lock_may_read
                0xc0386c00                posix_unblock_lock
                0xc0386ccc                locks_mandatory_locked
                0xc0386d34                posix_test_lock
                0xc0386df4                vfs_test_lock
                0xc038700c                lease_modify
                0xc03870d4                fcntl_getlease
                0xc0387140                locks_remove_flock
                0xc0387bf0                posix_lock_file
                0xc0387c0c                vfs_lock_file
                0xc0387c58                locks_remove_posix
                0xc0387dfc                fcntl_setlk64
                0xc0387ff4                fcntl_setlk
                0xc03881ec                posix_lock_file_wait
                0xc03882d8                fcntl_getlk64
                0xc0388430                fcntl_getlk
                0xc03885b8                flock_lock_file_wait
                0xc0388900                sys_flock
                0xc0388a80                generic_setlease
                0xc0388cec                vfs_setlease
                0xc0388d54                lease_get_mtime
                0xc0388db8                __break_lease
                0xc0389178                locks_init_lock
                0xc03891fc                fcntl_setlease
                0xc0389348                locks_mandatory_area
                0xc038be04                mb_cache_entry_insert
                0xc038c1cc                mb_cache_shrink
                0xc038c580                mb_cache_entry_find_first
                0xc038c614                mb_cache_entry_find_next
                0xc038c6a4                mb_cache_entry_get
                0xc038c864                mb_cache_entry_free
                0xc038c8dc                mb_cache_entry_release
                0xc038c908                mb_cache_entry_alloc
                0xc038c970                mb_cache_destroy
                0xc038cb0c                mb_cache_create
                0xc038ccd8                posix_acl_valid
                0xc038cdf4                posix_acl_equiv_mode
                0xc038ced0                posix_acl_create_masq
                0xc038d030                posix_acl_chmod_masq
                0xc038d108                posix_acl_permission
                0xc038d250                posix_acl_clone
                0xc038d28c                posix_acl_alloc
                0xc038d2bc                posix_acl_from_mode
                0xc038d32c                posix_acl_to_xattr
                0xc038d3b4                posix_acl_from_xattr
                0xc038d4d4                __inode_dir_notify
                0xc038d5c8                dnotify_parent
                0xc038d6a0                dnotify_flush
                0xc038d780                fcntl_dirnotify
                0xc038d9dc                get_vmalloc_info
                0xc038daec                task_vsize
                0xc038db04                task_statm
                0xc038e528                task_mem
                0xc038eb48                de_get
                0xc038ec18                proc_get_inode
                0xc038f674                de_put
                0xc038f6dc                proc_fill_super
                0xc038f910                pid_ns_release_proc
                0xc038f94c                pid_ns_prepare_proc
                0xc038fb3c                mem_lseek
                0xc038fb90                added_exe_file_vma
                0xc03903ec                set_mm_exe_file
                0xc0390440                removed_exe_file_vma
                0xc03930c4                proc_pid_readdir
                0xc03932dc                proc_pid_lookup
                0xc03934b8                proc_flush_task
                0xc03937ac                get_mm_exe_file
                0xc03938a8                dup_mm_exe_file
                0xc03938c4                mm_for_maps
                0xc0393b50                free_proc_entry
                0xc0393bd4                remove_proc_entry
                0xc03944b4                proc_create_data
                0xc0394564                create_proc_entry
                0xc0394604                proc_net_mkdir
                0xc039466c                proc_mkdir_mode
                0xc03946d0                proc_mkdir
                0xc03946f0                proc_symlink
                0xc03947a8                proc_readdir_de
                0xc0394a38                proc_readdir
                0xc0394a6c                proc_lookup_de
                0xc0394ba4                proc_lookup
                0xc0394c2c                proc_pid_statm
                0xc03953ec                proc_tgid_stat
                0xc0395410                proc_tid_stat
                0xc0395434                proc_pid_status
                0xc0395cf0                proc_tty_unregister_driver
                0xc0395d2c                proc_tty_register_driver
                0xc039611c                arch_report_meminfo
                0xc03973c4                proc_net_remove
                0xc03973e4                proc_net_fops_create
                0xc0397418                single_release_net
                0xc039742c                seq_release_net
                0xc0397444                single_open_net
                0xc0397480                seq_open_net
                0xc0397954                part_size_show
                0xc0397998                read_dev_sector
                0xc0397a34                register_disk
                0xc0397b60                disk_name
                0xc0397bfc                bdevname
                0xc0397c20                add_partition
                0xc0397e34                delete_partition
                0xc0397e98                del_gendisk
                0xc0397f54                rescan_partitions
                0xc0398244                part_stat_show
                0xc0398348                __bdevname
                0xc03983ec                msdos_partition
                0xc0398afc                sysfs_hash_and_remove
                0xc0398b68                sysfs_get_inode
                0xc0398d48                sysfs_setattr
                0xc0399538                sysfs_schedule_callback
                0xc039967c                sysfs_remove_file
                0xc0399698                sysfs_remove_file_from_group
                0xc0399748                sysfs_chmod_file
                0xc039993c                sysfs_add_file_mode
                0xc03999dc                sysfs_add_file
                0xc03999f4                sysfs_add_file_to_group
                0xc0399ab8                sysfs_create_file
                0xc0399af4                sysfs_notify_dirent
                0xc0399b80                sysfs_notify
                0xc0399bf8                sysfs_printk_last_file
                0xc0399e28                sysfs_remove_one
                0xc0399ec8                sysfs_find_dirent
                0xc0399fc4                sysfs_get_dirent
                0xc039a040                __sysfs_add_one
                0xc039a134                sysfs_add_one
                0xc039a17c                sysfs_addrm_start
                0xc039a224                sysfs_new_dirent
                0xc039a348                release_sysfs_dirent
                0xc039a494                sysfs_addrm_finish
                0xc039a774                sysfs_remove_subdir
                0xc039a788                sysfs_remove_dir
                0xc039a8e4                sysfs_create_dir
                0xc039a93c                sysfs_create_subdir
                0xc039a9a0                sysfs_put_active_two
                0xc039a9c4                sysfs_get_active_two
                0xc039aa7c                sysfs_get_dentry
                0xc039ab40                sysfs_move_dir
                0xc039ada4                sysfs_rename_dir
                0xc039b060                sysfs_remove_link
                0xc039b23c                sysfs_create_link_nowarn
                0xc039b254                sysfs_create_link
                0xc039b26c                sysfs_put
                0xc039b2ac                sysfs_get
                0xc039b930                sysfs_remove_bin_file
                0xc039b94c                sysfs_create_bin_file
                0xc039b988                sysfs_remove_group
                0xc039bc50                sysfs_update_group
                0xc039bc6c                sysfs_create_group
                0xc039bf58                devpts_get_tty
                0xc039bfa4                devpts_pty_kill
                0xc039c034                devpts_pty_new
                0xc039c1f4                devpts_kill_index
                0xc039c230                devpts_new_index
                0xc039c2d8                ext3_bg_has_super
                0xc039c370                ext3_bg_num_gdb
                0xc039c400                ext3_get_group_desc
                0xc039c4a4                ext3_count_free_blocks
                0xc039c6f8                ext3_discard_reservation
                0xc039cc84                ext3_should_retry_alloc
                0xc039ccd4                ext3_free_blocks_sb
                0xc039d0f4                ext3_free_blocks
                0xc039d170                ext3_init_block_alloc_info
                0xc039d2b4                ext3_rsv_window_add
                0xc039d8dc                ext3_new_blocks
                0xc039deb8                ext3_new_block
                0xc039dee8                ext3_check_dir_entry
                0xc039e070                ext3_htree_free_dir_info
                0xc039e804                ext3_htree_store_dirent
                0xc039ea44                ext3_sync_file
                0xc039eb1c                ext3_count_dirs
                0xc039eb70                ext3_count_free_inodes
                0xc039ec40                ext3_orphan_get
                0xc039ee38                ext3_new_inode
                0xc039f808                ext3_free_inode
                0xc039fc1c                ext3_set_aops
                0xc039fc90                ext3_can_truncate
                0xc039fcfc                ext3_set_inode_flags
                0xc039fd68                ext3_get_inode_flags
                0xc039fe8c                ext3_mark_iloc_dirty
                0xc03a0254                ext3_write_inode
                0xc03a05fc                ext3_iget
                0xc03a096c                ext3_get_inode_loc
                0xc03a0990                ext3_reserve_inode_write
                0xc03a0a18                ext3_mark_inode_dirty
                0xc03a0a5c                ext3_change_inode_journal_flag
                0xc03a0b24                ext3_dirty_inode
                0xc03a0bac                ext3_setattr
                0xc03a1e30                ext3_journal_dirty_data
                0xc03a1ea0                ext3_fiemap
                0xc03a1ed0                ext3_get_blocks_handle
                0xc03a293c                ext3_getblk
                0xc03a2af4                ext3_bread
                0xc03a2b98                ext3_forget
                0xc03a307c                ext3_truncate
                0xc03a3984                ext3_delete_inode
                0xc03a3a80                ext3_ioctl
                0xc03a6680                ext3_orphan_del
                0xc03a67e4                ext3_orphan_add
                0xc03a7164                ext3_get_parent
                0xc03a73a4                ext3_htree_fill_tree
                0xc03a7bdc                ext3_journal_abort_handle
                0xc03a8460                ext3_force_commit
                0xc03a84cc                ext3_warning
                0xc03a851c                ext3_update_dynamic_rev
                0xc03a8570                ext3_abort
                0xc03a864c                ext3_journal_start_sb
                0xc03a87b4                __ext3_std_error
                0xc03a8834                __ext3_journal_stop
                0xc03a8888                ext3_error
                0xc03aa4a4                ext3fs_dirhash
                0xc03aaa98                ext3_group_extend
                0xc03ab1f0                ext3_group_add
                0xc03ac1f0                __ext3_journal_dirty_metadata
                0xc03ac248                __ext3_journal_get_create_access
                0xc03ac2a0                __ext3_journal_revoke
                0xc03ac2fc                __ext3_journal_forget
                0xc03ac354                __ext3_journal_get_write_access
                0xc03ac3ac                __ext3_journal_get_undo_access
                0xc03ac570                exit_ext3_xattr
                0xc03ac5a4                ext3_xattr_put_super
                0xc03ac758                ext3_xattr_delete_inode
                0xc03ad5ec                ext3_xattr_set_handle
                0xc03ada08                ext3_xattr_set
                0xc03adabc                ext3_xattr_get
                0xc03add38                ext3_listxattr
                0xc03aebec                ext3_acl_chmod
                0xc03aed50                ext3_init_acl
                0xc03aeeec                ext3_permission
                0xc03aef88                ext3_init_security
                0xc03af09c                journal_release_buffer
                0xc03af1e8                __journal_file_buffer
                0xc03af3d0                journal_file_buffer
                0xc03af44c                journal_dirty_metadata
                0xc03af5b4                __journal_unfile_buffer
                0xc03af648                journal_unfile_buffer
                0xc03af6c8                __journal_refile_buffer
                0xc03af790                journal_refile_buffer
                0xc03af824                journal_invalidatepage
                0xc03afc6c                journal_try_to_free_buffers
                0xc03afe64                journal_stop
                0xc03b00e8                journal_forget
                0xc03b0344                journal_dirty_data
                0xc03b05a0                journal_get_create_access
                0xc03b0c0c                journal_get_write_access
                0xc03b0c4c                journal_get_undo_access
                0xc03b0dac                journal_unlock_updates
                0xc03b0e30                journal_lock_updates
                0xc03b0f90                journal_extend
                0xc03b14c4                journal_restart
                0xc03b15e8                journal_start
                0xc03b16bc                journal_force_commit
                0xc03b18a4                journal_commit_transaction
                0xc03b332c                journal_skip_recovery
                0xc03b339c                journal_recover
                0xc03b3468                __journal_insert_checkpoint
                0xc03b34dc                __journal_drop_transaction
                0xc03b35f0                __journal_remove_checkpoint
                0xc03b37d4                __journal_clean_checkpoint_list
                0xc03b386c                cleanup_journal_tail
                0xc03b3a48                log_do_checkpoint
                0xc03b3fe0                __log_wait_for_space
                0xc03b419c                journal_switch_revoke_table
                0xc03b41ec                journal_clear_revoke
                0xc03b4340                journal_test_revoke
                0xc03b4438                journal_set_revoke
                0xc03b453c                journal_write_revoke_records
                0xc03b46bc                journal_cancel_revoke
                0xc03b480c                journal_revoke
                0xc03b4998                journal_destroy_revoke
                0xc03b4a74                journal_init_revoke
                0xc03b4b08                journal_destroy_revoke_caches
                0xc03b4b54                __log_space_left
                0xc03b4b78                journal_check_available_features
                0xc03b4bc4                journal_blocks_per_page
                0xc03b4d9c                journal_put_journal_head
                0xc03b4e34                journal_remove_journal_head
                0xc03b4e7c                journal_grab_journal_head
                0xc03b4ee8                journal_ack_err
                0xc03b4f4c                journal_clear_err
                0xc03b4fb4                journal_errno
                0xc03b5018                journal_add_journal_head
                0xc03b51d4                journal_check_used_features
                0xc03b5270                journal_set_features
                0xc03b5538                journal_update_format
                0xc03b55e8                journal_update_superblock
                0xc03b5730                journal_wipe
                0xc03b57c0                __log_start_commit
                0xc03b58e8                journal_abort
                0xc03b58fc                journal_start_commit
                0xc03b59a0                log_start_commit
                0xc03b59f0                journal_destroy
                0xc03b5c54                log_wait_commit
                0xc03b5da4                journal_flush
                0xc03b5fe0                journal_force_commit_nested
                0xc03b61e8                journal_load
                0xc03b65b0                journal_init_dev
                0xc03b666c                journal_bmap
                0xc03b66ec                journal_create
                0xc03b6898                journal_init_inode
                0xc03b69a4                journal_next_log_block
                0xc03b6a48                journal_get_descriptor_buffer
                0xc03b6af4                journal_write_metadata_buffer
                0xc03b6ee8                ext2_bg_has_super
                0xc03b6f78                ext2_bg_num_gdb
                0xc03b6f9c                ext2_get_group_desc
                0xc03b7038                ext2_count_free_blocks
                0xc03b7130                ext2_discard_reservation
                0xc03b756c                ext2_free_blocks
                0xc03b7898                ext2_init_block_alloc_info
                0xc03b79dc                ext2_rsv_window_add
                0xc03b7f90                ext2_new_blocks
                0xc03b84f0                ext2_new_block
                0xc03b87c8                ext2_dotdot
                0xc03b8b90                ext2_empty_dir
                0xc03b8e04                ext2_make_empty
                0xc03b900c                ext2_delete_entry
                0xc03b91fc                ext2_set_link
                0xc03b9370                ext2_add_link
                0xc03b971c                ext2_find_entry
                0xc03b9934                ext2_inode_by_name
                0xc03b99ac                ext2_sync_file
                0xc03b9a00                ext2_count_dirs
                0xc03b9a54                ext2_count_free_inodes
                0xc03b9b1c                ext2_new_inode
                0xc03ba530                ext2_free_inode
                0xc03ba748                ext2_set_inode_flags
                0xc03ba7b4                ext2_get_inode_flags
                0xc03ba990                ext2_setattr
                0xc03ba9e0                ext2_sync_inode
                0xc03bae5c                ext2_write_inode
                0xc03bae70                ext2_iget
                0xc03bb5e4                ext2_truncate
                0xc03bbb58                __ext2_write_begin
                0xc03bbbe4                ext2_fiemap
                0xc03bbc14                ext2_get_block
                0xc03bc2e8                ext2_delete_inode
                0xc03bc378                ext2_ioctl
                0xc03bcec8                ext2_get_parent
                0xc03bd928                ext2_write_super
                0xc03bdb00                ext2_warning
                0xc03bdcec                ext2_update_dynamic_rev
                0xc03bdd40                ext2_error
                0xc03be96c                exit_ext2_xattr
                0xc03be98c                ext2_xattr_put_super
                0xc03be9a4                ext2_xattr_delete_inode
                0xc03bf208                ext2_xattr_set
                0xc03bf8f8                ext2_listxattr
                0xc03bfa8c                ext2_xattr_get
                0xc03c092c                ext2_acl_chmod
                0xc03c0a20                ext2_init_acl
                0xc03c0bb0                ext2_permission
                0xc03c0c4c                ext2_init_security
                0xc03c0d60                ext2_get_xip_mem
                0xc03c0e0c                ext2_clear_xip_target
                0xc03c0e70                ext2_xip_verify_sb
                0xc03c0ef8                ramfs_get_sb
                0xc03c0f28                ramfs_get_inode
                0xc03c1550                fat_cache_inval_inode
                0xc03c1620                fat_get_cluster
                0xc03c18e8                fat_bmap
                0xc03c1ad4                fat_cache_destroy
                0xc03c206c                fat_search_long
                0xc03c384c                fat_subdirs
                0xc03c3c00                fat_remove_entries
                0xc03c3d48                fat_scan
                0xc03c3e34                fat_dir_empty
                0xc03c3ee8                fat_get_dotdot_entry
                0xc03c4130                fat_alloc_new_dir
                0xc03c4314                fat_add_entries
                0xc03c4b3c                fat_count_free_clusters
                0xc03c4dac                fat_ent_read
                0xc03c50a0                fat_free_clusters
                0xc03c5388                fat_ent_write
                0xc03c53e8                fat_alloc_clusters
                0xc03c57e0                fat_ent_access_init
                0xc03c5f94                fat_setattr
                0xc03c6238                fat_getattr
                0xc03c6270                fat_truncate
                0xc03c6514                fat_generic_ioctl
                0xc03c6a1c                fat_flush_inodes
                0xc03c6bc0                fat_detach
                0xc03c6c44                fat_attach
                0xc03c7390                fat_sync_inode
                0xc03c741c                fat_fill_super
                0xc03c8544                fat_iget
                0xc03c86f4                fat_build_inode
                0xc03c8b54                fat_time_fat2unix
                0xc03c8c88                fat_time_unix2fat
                0xc03c8e38                fat_sync_bhs
                0xc03c8ee8                fat_clusters_flush
                0xc03c8f9c                fat_chain_add
                0xc03cbcf4                isofs_lookup
                0xc03cc624                isofs_iget
                0xc03cd7ac                isofs_get_blocks
                0xc03cda44                isofs_bread
                0xc03cdab0                isofs_name_translate
                0xc03cdb58                get_acorn_filename
                0xc03ce168                iso_date
                0xc03cf118                parse_rock_ridge_inode
                0xc03cf168                get_rock_ridge_filename
                0xc03cf738                get_joliet_filename
                0xc03cf8a8                nfs_fs_proc_exit
                0xc03cfba8                nfs_find_client_next
                0xc03cfd34                nfs_find_client
                0xc03d0670                nfs_put_client
                0xc03d0738                nfs_free_server
                0xc03d085c                nfs_clone_server
                0xc03d0aa0                nfs_create_server
                0xc03d1504                nfs_force_lookup_revalidate
                0xc03d2cbc                nfs_instantiate
                0xc03d4280                nfs_access_zap_cache
                0xc03d4740                nfs_permission
                0xc03d48e8                nfs_may_open
                0xc03d4918                nfs_access_cache_shrinker
                0xc03d5ee4                nfs_get_root
                0xc03d607c                nfs_compat_user_ino64
                0xc03d60b4                get_nfs_open_context
                0xc03d60e8                nfs_attribute_timeout
                0xc03d6138                nfs_inc_attr_generation_counter
                0xc03d616c                nfs_fattr_init
                0xc03d622c                nfs_destroy_inode
                0xc03d6250                nfs_alloc_inode
                0xc03d63c4                nfs_find_open_context
                0xc03d6490                nfs_invalidate_atime
                0xc03d64e0                nfs_zap_acl_cache
                0xc03d6554                nfs_zap_mapping
                0xc03d6fb0                nfs_post_op_update_inode_force_wcc
                0xc03d7104                nfs_post_op_update_inode
                0xc03d718c                nfs_refresh_inode
                0xc03d71ec                nfs_zap_caches
                0xc03d733c                __nfs_revalidate_inode
                0xc03d7518                nfs_revalidate_mapping_nolock
                0xc03d75b8                nfs_revalidate_inode
                0xc03d76c4                nfs_release
                0xc03d7760                put_nfs_open_context
                0xc03d7778                nfs_open
                0xc03d7928                nfs_getattr
                0xc03d7a00                nfs_setattr_update_inode
                0xc03d7cf0                nfs_setattr
                0xc03d7e58                nfs_sync_mapping
                0xc03d7ebc                nfs_revalidate_mapping
                0xc03d7f94                nfs_fhget
                0xc03d83c0                nfs_clear_inode
                0xc03d8408                nfs_write_inode
                0xc03d8460                nfs_sb_active
                0xc03d8668                nfs_sb_deactive
                0xc03d9380                nfs_parse_ip_address
                0xc03dadcc                nfs_decode_dirent
                0xc03dae94                nfs_stat_to_errno
                0xc03dc15c                nfs_destroy_directcache
                0xc03dc17c                nfs_direct_IO
                0xc03dc824                nfs_file_direct_write
                0xc03dcf18                nfs_file_direct_read
                0xc03dd684                nfs_pageio_init
                0xc03dd744                nfs_pageio_add_request
                0xc03dd85c                nfs_pageio_complete
                0xc03dd870                nfs_pageio_cond_complete
                0xc03dd8a4                nfs_destroy_nfspagecache
                0xc03dd8c4                nfs_wait_on_request
                0xc03dd94c                nfs_release_request
                0xc03dd96c                nfs_clear_request
                0xc03dd9d4                nfs_set_page_tag_locked
                0xc03dda3c                nfs_scan_list
                0xc03ddb48                nfs_unlock_request
                0xc03ddbac                nfs_clear_page_tag_locked
                0xc03ddc2c                nfs_create_request
                0xc03df304                nfs_destroy_readpagecache
                0xc03df32c                nfs_readpages
                0xc03df4d4                nfs_readpage_result
                0xc03dfed4                nfs_readdata_release
                0xc03dffe8                nfs_readdata_alloc
                0xc03e0334                nfs_readpage
                0xc03e09ec                nfs_complete_unlink
                0xc03e0c48                nfs_unblock_sillyrename
                0xc03e0d80                nfs_async_unlink
                0xc03e0e54                nfs_block_sillyrename
                0xc03e0f30                nfs_destroy_writepagecache
                0xc03e19f4                nfs_writeback_done
                0xc03e1ce0                nfs_writepages
                0xc03e1dc4                nfs_writepage
                0xc03e1dec                nfs_writedata_release
                0xc03e2240                nfs_commit_free
                0xc03e2280                nfs_commitdata_release
                0xc03e2440                nfs_commitdata_alloc
                0xc03e2760                nfs_sync_mapping_wait
                0xc03e2a0c                nfs_wb_page_cancel
                0xc03e2c10                nfs_wb_nocommit
                0xc03e2c2c                nfs_wb_all
                0xc03e2c48                nfs_commit_inode
                0xc03e2ce0                nfs_writedata_alloc
                0xc03e300c                nfs_wb_page
                0xc03e30f8                nfs_updatepage
                0xc03e3884                nfs_flush_incompatible
                0xc03e392c                nfs_release_automount_timer
                0xc03e397c                nfs_path
                0xc03e3ec8                nfs_mount
                0xc03e809c                nfs3_decode_dirent
                0xc03e82c4                nfs_unregister_sysctl
                0xc03e82ec                nfs_register_sysctl
                0xc03e8320                nlmclnt_recovery
                0xc03e837c                nlmclnt_done
                0xc03e8594                nlmclnt_grant
                0xc03e8720                nlmclnt_block
                0xc03e880c                nlmclnt_finish_block
                0xc03e8850                nlmclnt_prepare_block
                0xc03e88bc                nlmclnt_init
                0xc03e8920                nlmclnt_next_cookie
                0xc03e8df4                nlmclnt_reclaim
                0xc03e8f9c                nlm_async_reply
                0xc03e8ff0                nlm_async_call
                0xc03e904c                nlm_release_call
                0xc03e90a8                nlm_alloc_call
                0xc03e94b8                nlmclnt_proc
                0xc03e9bcc                nsm_release
                0xc03e9c50                nlm_release_host
                0xc03e9cf8                nlm_get_host
                0xc03e9f38                nlm_shutdown_hosts
                0xc03ea0b0                nlm_rebind_host
                0xc03ea124                nlm_bind_host
                0xc03ea764                nlm_host_rebooted
                0xc03eae00                nlmsvc_lookup_host
                0xc03eaf50                nlmclnt_lookup_host
                0xc03eb158                lockd_down
                0xc03eb25c                lockd_up
                0xc03ebbb8                nlmsvc_retry_blocked
                0xc03ebe18                nlmsvc_traverse_blocks
                0xc03ec114                nlmsvc_grant_reply
                0xc03ec20c                nlmsvc_cancel_blocked
                0xc03ec2ec                nlmsvc_unlock
                0xc03ec5dc                nlmsvc_testlock
                0xc03ec820                nlmsvc_lock
                0xc03eca9c                nlmsvc_traverse_shares
                0xc03ecaf0                nlmsvc_unshare_file
                0xc03ecb6c                nlmsvc_share_file
                0xc03edd00                nlmsvc_unlock_all_by_ip
                0xc03edd28                nlmsvc_unlock_all_by_sb
                0xc03edd54                nlmsvc_invalidate_all
                0xc03edd78                nlmsvc_free_host_resources
                0xc03edde0                nlmsvc_mark_resources
                0xc03ede24                nlm_release_file
                0xc03edf7c                nlm_lookup_file
                0xc03ee35c                nsm_unmonitor
                0xc03ee418                nsm_monitor
                0xc03ee738                nlmsvc_decode_void
                0xc03ee76c                nlmsvc_encode_void
                0xc03ee80c                nlmsvc_encode_res
                0xc03ee888                nlmsvc_encode_shareres
                0xc03eeac8                nlmsvc_encode_testres
                0xc03ef004                nlmsvc_decode_res
                0xc03ef208                nlmdbg_cookie2a
                0xc03ef27c                nlmsvc_decode_reboot
                0xc03ef300                nlmsvc_decode_notify
                0xc03ef374                nlmsvc_decode_shareargs
                0xc03ef560                nlmsvc_decode_unlockargs
                0xc03ef5cc                nlmsvc_decode_cancargs
                0xc03ef66c                nlmsvc_decode_lockargs
                0xc03ef74c                nlmsvc_decode_testargs
                0xc03ef7cc                locks_in_grace
                0xc03ef7f0                locks_end_grace
                0xc03ef84c                locks_start_grace
                0xc03ef8ac                nlm4svc_decode_void
                0xc03ef8e0                nlm4svc_encode_void
                0xc03ef99c                nlm4svc_encode_res
                0xc03ef9e8                nlm4svc_encode_shareres
                0xc03efc4c                nlm4svc_encode_testres
                0xc03f00c4                nlm4svc_decode_res
                0xc03f033c                nlm4svc_decode_reboot
                0xc03f03c0                nlm4svc_decode_notify
                0xc03f0434                nlm4svc_decode_shareargs
                0xc03f06b0                nlm4svc_decode_unlockargs
                0xc03f071c                nlm4svc_decode_cancargs
                0xc03f07bc                nlm4svc_decode_lockargs
                0xc03f089c                nlm4svc_decode_testargs
                0xc03f15a0                utf8_mbtowc
                0xc03f1634                utf8_mbstowcs
                0xc03f16b0                utf8_wctomb
                0xc03f1744                utf8_wcstombs
                0xc03f1834                unload_nls
                0xc03f1978                load_nls
                0xc03f19b0                load_nls_default
                0xc03f19dc                unregister_nls
                0xc03f1a98                register_nls
                0xc03f313c                CIFSSMBSetEA
                0xc03f34c0                CIFSSMBSetPathInfo
                0xc03f37ac                CIFSSMBSetEOF
                0xc03f3b58                CIFSSMBSetCIFSACL
                0xc03f3e78                CIFSSMBSetPosixACL
                0xc03f4334                CIFSCreateHardLink
                0xc03f45ac                CIFSUnixCreateHardLink
                0xc03f490c                CIFSSMBCopy
                0xc03f4b90                CIFSSMBRename
                0xc03f4de0                CIFSSMBOpen
                0xc03f5354                SMBLegacyOpen
                0xc03f57d4                CIFSSMBMkDir
                0xc03f599c                CIFSSMBRmDir
                0xc03f5b64                CIFSSMBDelFile
                0xc03f5d10                CIFSPOSIXDelFile
                0xc03f609c                CIFSSMBQueryEA
                0xc03f6498                CIFSSMBQAllEAs
                0xc03f68ac                CIFSSMBQFSPosixInfo
                0xc03f6c94                CIFSSMBSetFSUnixInfo
                0xc03f6f5c                CIFSSMBQFSUnixInfo
                0xc03f71bc                CIFSSMBQFSDeviceInfo
                0xc03f741c                CIFSSMBQFSAttributeInfo
                0xc03f7680                CIFSSMBQFSInfo
                0xc03f79d0                SMBOldQFSInfo
                0xc03f7ce8                CIFSGetSrvInodeNumber
                0xc03f8054                CIFSFindFirst
                0xc03f8524                CIFSSMBUnixQPathInfo
                0xc03f8844                CIFSSMBQPathInfo
                0xc03f8b68                CIFSGetExtAttr
                0xc03f8ec0                CIFSSMBGetPosixACL
                0xc03f9344                CIFSPOSIXCreate
                0xc03f9888                CIFSSMBNotify
                0xc03f9bd4                CIFSSMBUnixSetInfo
                0xc03fa598                CIFSSMBSetFileDisposition
                0xc03fa7e8                CIFSSMBSetFileInfo
                0xc03faa60                CIFSSMBSetFileSize
                0xc03fad58                CIFSFindClose
                0xc03fae54                CIFSSMBClose
                0xc03faf78                CIFSSMBTDis
                0xc03fb054                CIFSSMBLogoff
                0xc03fb17c                small_smb_init_no_tc
                0xc03fb300                CIFSGetDFSRefer
                0xc03fba8c                CIFSSMBQueryReparseLinkInfo
                0xc03fbe6c                CIFSFindNext
                0xc03fc2c8                SMBQueryInformation
                0xc03fc5dc                CIFSSMBGetCIFSACL
                0xc03fcba8                CIFSSMBWrite2
                0xc03fcef4                CIFSSMBRead
                0xc03fd218                CIFSSMBUnixQuerySymLink
                0xc03fd588                CIFSUnixCreateSymLink
                0xc03fd8d4                CIFSSMBRenameOpenFile
                0xc03fdc00                CIFSSMBPosixLock
                0xc03fe094                CIFSSMBLock
                0xc03fe36c                CIFSSMBWrite
                0xc03fe708                CIFSSMBNegotiate
                0xc03ff2c0                cifs_proc_clean
                0xc040008c                cifs_proc_init
                0xc0400210                cifs_dump_detail
                0xc04002c8                cifs_dump_mem
                0xc04003d4                cifs_dump_mids
                0xc0401940                cifs_setup_session
                0xc0402948                cifs_umount
                0xc0402988                CIFSTCon
                0xc04047a8                reset_cifs_unix_caps
                0xc0404cc4                cifs_mount
                0xc0407274                get_dfs_path
                0xc04075d0                build_path_from_dentry
                0xc04077d8                cifs_lookup
                0xc0407af4                cifs_mknod
                0xc0407fcc                cifs_create
                0xc040868c                is_size_safe_to_change
                0xc04087dc                find_readable_file
                0xc04088c8                cifs_fsync
                0xc0408d7c                find_writable_file
                0xc040a4b0                cifs_file_mmap
                0xc040a5b0                cifs_user_read
                0xc040a910                cifs_flush
                0xc040a970                cifs_user_write
                0xc040ad54                cifs_lock
                0xc040b518                cifs_closedir
                0xc040b710                cifs_close
                0xc040bad0                cifs_open
                0xc040d438                cifs_setattr
                0xc040db1c                cifs_rmdir
                0xc040e260                cifs_unlink
                0xc040e8b8                cifs_rename
                0xc040eb8c                cifs_get_inode_info_unix
                0xc040ee64                cifs_get_inode_info
                0xc040f9a0                cifs_revalidate
                0xc040fd7c                cifs_getattr
                0xc040fdbc                cifs_iget
                0xc040ff48                cifs_mkdir
                0xc04106e8                cifs_put_link
                0xc0410710                cifs_follow_link
                0xc0410884                cifs_readlink
                0xc0410b5c                cifs_symlink
                0xc0410d64                cifs_hardlink
                0xc0410f84                cifs_convertUCSpath
                0xc04110b8                cifsConvertToUCS
                0xc0411214                dump_smb
                0xc0411328                GetNextMid
                0xc04113fc                _FreeXid
                0xc0411454                _GetXid
                0xc0411514                is_valid_oplock_break
                0xc041193c                checkSMB
                0xc0411c00                header_assemble
                0xc0411ef4                cifs_small_buf_release
                0xc0411f64                cifs_buf_release
                0xc0411fb0                cifs_small_buf_get
                0xc0412024                cifs_buf_get
                0xc04120a4                tconInfoFree
                0xc0412114                sesInfoFree
                0xc04121a4                tconInfoAlloc
                0xc0412220                sesInfoAlloc
                0xc04122ac                smbCalcSize
                0xc04122d4                smbCalcSize_LE
                0xc04122fc                cifs_NTtimeToUnix
                0xc0412380                cifs_UnixTimeToNT
                0xc04123e4                cnvrtDosUnixTm
                0xc0412550                cnvrtDosCifsTm
                0xc04125bc                map_smb_to_linux_error
                0xc04127b0                cifs_inet_pton
                0xc0412f3c                E_P16
                0xc0412f90                E_P24
                0xc041302c                E_md4hash
                0xc04130e8                SMBNTencrypt
                0xc0413138                SMBencrypt
                0xc0413834                SendReceive2
                0xc0414078                SendReceiveNoRsp
                0xc0414108                smb_send
                0xc04142f0                SendReceive
                0xc0414868                SendReceiveBlockingLock
                0xc0414f94                DeleteTconOplockQEntries
                0xc0415060                DeleteOplockQEntry
                0xc04150e0                AllocOplockQEntry
                0xc0415460                decode_negTokenInit
                0xc0416708                mdfour
                0xc0416978                MD5Init
                0xc04173f8                MD5Final
                0xc0417534                MD5Update
                0xc0417670                hmac_md5_final
                0xc0417700                hmac_md5_update
                0xc0417728                hmac_md5_init_limK_to_64
                0xc0417804                cifs_strfromUCS_le
                0xc0417878                cifs_strtoUCS
                0xc0417924                cifs_listxattr
                0xc0417a78                cifs_getxattr
                0xc0417e80                cifs_removexattr
                0xc041805c                cifs_setxattr
                0xc0418428                CalcNTLMv2_response
                0xc0418494                CalcNTLMv2_partial_mac_key
                0xc0418620                setup_ntlmv2_rsp
                0xc04188f4                calc_lanman_hash
                0xc04189e0                cifs_calculate_mac_key
                0xc0418af0                cifs_verify_signature
                0xc0418c0c                cifs_sign_smb2
                0xc0418db0                cifs_sign_smb
                0xc0418eac                cifs_dir_notify
                0xc0419e14                cifs_readdir
                0xc041b428                cifs_ioctl
                0xc041b878                CIFS_SessSetup
                0xc041c294                compare_sids
                0xc041c798                match_sid
                0xc041cb80                acl_to_uid_mode
                0xc041d040                mode_to_acl
                0xc041d814                jffs2_compressors_exit
                0xc041d830                jffs2_free_comprbuf
                0xc041d84c                jffs2_unregister_compressor
                0xc041d8f8                jffs2_register_compressor
                0xc041d9f4                jffs2_decompress
                0xc041dbdc                jffs2_compress
                0xc041fb10                jffs2_do_readpage_unlock
                0xc041fb80                jffs2_fsync
                0xc041fba8                jffs2_ioctl
                0xc041fbbc                jffs2_get_ino_cache
                0xc041fc04                jffs2_lookup_node_frag
                0xc041fc70                __jffs2_ref_totlen
                0xc041fd40                jffs2_link_node_ref
                0xc041fee8                jffs2_scan_dirty_space
                0xc04200b4                jffs2_kill_fragtree
                0xc0420170                jffs2_free_raw_node_refs
                0xc04201e4                jffs2_free_ino_caches
                0xc0420230                jffs2_del_ino_cache
                0xc04202d8                jffs2_add_ino_cache
                0xc0420378                jffs2_set_inocache_state
                0xc0420434                jffs2_add_full_dnode_to_inode
                0xc042087c                jffs2_truncate_fragtree
                0xc04209d0                jffs2_add_fd_to_list
                0xc0420a88                jffs2_free_inode_cache
                0xc0420aac                jffs2_free_node_frag
                0xc0420ad0                jffs2_free_refblock
                0xc0420af4                jffs2_free_tmp_dnode_info
                0xc0420b18                jffs2_free_raw_inode
                0xc0420b3c                jffs2_free_raw_dirent
                0xc0420b60                jffs2_free_full_dnode
                0xc0420b84                jffs2_alloc_inode_cache
                0xc0420ba8                jffs2_alloc_node_frag
                0xc0420bcc                jffs2_prealloc_raw_node_refs
                0xc0420cb0                jffs2_alloc_tmp_dnode_info
                0xc0420cd4                jffs2_alloc_raw_inode
                0xc0420cf8                jffs2_alloc_raw_dirent
                0xc0420d1c                jffs2_alloc_full_dnode
                0xc0420d40                jffs2_free_full_dirent
                0xc0420d54                jffs2_alloc_full_dirent
                0xc0420d70                jffs2_destroy_slab_caches
                0xc0420e10                jffs2_read_dnode
                0xc0421248                jffs2_read_inode_range
                0xc0421394                jffs2_thread_should_wake
                0xc0421430                jffs2_mark_node_obsolete
                0xc0421a10                jffs2_complete_reservation
                0xc0421a30                jffs2_add_physical_node_ref
                0xc04220b8                jffs2_reserve_space_gc
                0xc042215c                jffs2_reserve_space
                0xc0422380                jffs2_do_clear_inode
                0xc0424430                jffs2_do_crccheck_inode
                0xc04244cc                jffs2_do_read_inode
                0xc0424718                jffs2_write_dirent
                0xc0424b78                jffs2_do_link
                0xc0424ddc                jffs2_do_unlink
                0xc0425170                jffs2_write_dnode
                0xc042556c                jffs2_do_create
                0xc0425840                jffs2_write_inode_range
                0xc0425c4c                jffs2_do_new_inode
                0xc0425d7c                jffs2_scan_classify_jeb
                0xc0425e60                jffs2_rotate_lists
                0xc0426158                jffs2_scan_make_ino_cache
                0xc04262cc                jffs2_scan_medium
                0xc0428940                jffs2_garbage_collect_pass
                0xc04293b0                jffs2_do_mount_fs
                0xc0429924                jffs2_free_jeb_node_refs
                0xc0429ca0                jffs2_erase_pending_blocks
                0xc042a55c                jffs2_stop_garbage_collect_thread
                0xc042a5e0                jffs2_start_garbage_collect_thread
                0xc042a66c                jffs2_garbage_collect_trigger
                0xc042a8b4                jffs2_flash_cleanup
                0xc042a930                jffs2_gc_release_page
                0xc042a948                jffs2_gc_fetch_page
                0xc042a9b4                jffs2_statfs
                0xc042aa98                jffs2_gc_release_inode
                0xc042aab0                jffs2_new_inode
                0xc042ac90                jffs2_write_super
                0xc042acd8                jffs2_remount_fs
                0xc042ad60                jffs2_iget
                0xc042b074                jffs2_gc_fetch_inode
                0xc042b1f0                jffs2_do_fill_super
                0xc042b408                jffs2_clear_inode
                0xc042b428                jffs2_do_setattr
                0xc042bb5c                jffs2_dirty_inode
                0xc042bbe0                jffs2_setattr
                0xc042bc14                jffs2_flash_direct_writev
                0xc042bcf0                jffs2_flash_direct_write
                0xc042c09c                __jffs2_dbg_acct_sanity_check_nolock
                0xc042c218                __jffs2_dbg_acct_sanity_check
                0xc042c260                jffs2_ubivol_cleanup
                0xc042c278                jffs2_nor_wbuf_flash_cleanup
                0xc042c290                jffs2_dataflash_cleanup
                0xc042c2a8                jffs2_nand_flash_cleanup
                0xc042c2cc                jffs2_write_nand_badblock
                0xc042c340                jffs2_write_nand_cleanmarker
                0xc042c3f8                jffs2_check_oob_empty
                0xc042c4e8                jffs2_ubivol_setup
                0xc042c574                jffs2_nor_wbuf_flash_setup
                0xc042c5e0                jffs2_dataflash_setup
                0xc042c6c0                jffs2_nand_flash_setup
                0xc042c78c                jffs2_check_nand_cleanmarker
                0xc042c8c8                jffs2_flash_read
                0xc042d97c                jffs2_flash_writev
                0xc042ddd0                jffs2_flash_write
                0xc042de40                jffs2_flush_wbuf_pad
                0xc042de9c                jffs2_flush_wbuf_gc
                0xc042dfbc                jffs2_rtime_exit
                0xc042e190                jffs2_rtime_init
                0xc042e454                jffs2_zlib_exit
                0xc042e474                autofs_update_usage
                0xc042e4cc                autofs_hash_enum
                0xc042e56c                autofs_hash_dputall
                0xc042e5bc                autofs_hash_nuke
                0xc042e618                autofs_hash_delete
                0xc042e690                autofs_hash_insert
                0xc042e744                autofs_hash_lookup
                0xc042e7b4                autofs_initialize_hash
                0xc042e7dc                autofs_expire
                0xc042ea64                autofs_iget
                0xc042ebf8                autofs_fill_super
                0xc042ef70                autofs_kill_sb
                0xc042fe50                autofs_wait_release
                0xc042feec                autofs_catatonic_mode
                0xc0430100                autofs_wait
 .text          0xc04302e4     0x5d40 ipc/built-in.o
                0xc04302e4                ipc_rcu_getref
                0xc0430300                kernel_to_ipc64_perm
                0xc0430348                ipc64_perm_to_ipc_perm
                0xc0430408                ipc_update_perm
                0xc0430440                ipc_parse_version
                0xc0430468                ipc_lock
                0xc0430548                ipc_lock_check
                0xc04305dc                ipcctl_pre_down
                0xc04306a8                ipc_get_maxid
                0xc04308c4                ipcperms
                0xc0430968                ipcget
                0xc0430ba4                ipc_rcu_putref
                0xc0430c50                ipc_free
                0xc0430c74                ipc_rcu_alloc
                0xc0430cd8                ipc_alloc
                0xc0430d00                ipc_rmid
                0xc0430d58                ipc_addid
                0xc0431058                ipc_init_ids
                0xc04310a0                free_msg
                0xc04310c8                store_msg
                0xc04311b0                load_msg
                0xc043135c                do_msgrcv
                0xc04317b4                sys_msgrcv
                0xc043180c                do_msgsnd
                0xc0431bec                sys_msgsnd
                0xc0431c40                sys_msgctl
                0xc04322fc                sys_msgget
                0xc0432518                recompute_msgmni
                0xc0432598                msg_init_ns
                0xc0432834                exit_sem
                0xc0432b14                copy_semundo
                0xc0432bc0                sys_semtimedop
                0xc04334b4                sys_semop
                0xc0433cbc                sys_semctl
                0xc043432c                sys_semget
                0xc0434564                sem_init_ns
                0xc04345fc                is_file_shm_hugepages
                0xc0434648                sys_shmdt
                0xc0434acc                do_shmat
                0xc0434f10                sys_shmat
                0xc0434f38                sys_shmctl
                0xc04356ec                sys_shmget
                0xc04359f0                shm_init_ns
                0xc0435a28                ipcns_notify
                0xc0435a4c                unregister_ipcns_notifier
                0xc0435a78                cond_register_ipcns_notifier
                0xc0435af4                register_ipcns_notifier
 .text          0xc0436024      0xa0c security/built-in.o
                0xc0436024                cap_netlink_send
                0xc0436058                cap_netlink_recv
                0xc0436088                cap_capable
                0xc04360b8                cap_ptrace_traceme
                0xc043610c                cap_capget
                0xc043614c                cap_capset_check
                0xc0436218                cap_capset_set
                0xc0436250                cap_inode_need_killpriv
                0xc0436264                cap_inode_killpriv
                0xc0436278                cap_bprm_set_security
                0xc0436320                cap_bprm_secureexec
                0xc04363a8                cap_task_post_setuid
                0xc043657c                cap_task_setscheduler
                0xc0436590                cap_task_setioprio
                0xc04365a4                cap_task_setnice
                0xc04365b8                cap_task_prctl
                0xc0436698                cap_task_reparent_to_init
                0xc04366f0                cap_vm_enough_memory
                0xc0436720                cap_syslog
                0xc0436754                cap_ptrace_may_access
                0xc04367ac                cap_settime
                0xc04367d0                cap_inode_removexattr
                0xc0436834                cap_inode_setxattr
                0xc0436898                cap_bprm_apply_creds
 .text          0xc0436a30     0x11c0 crypto/built-in.o
                0xc0436aa0                crypto_shoot_alg
                0xc0436ad8                __crypto_alloc_tfm
                0xc0436c44                crypto_probing_notify
                0xc0436c94                crypto_larval_kill
                0xc0436d20                crypto_larval_alloc
                0xc0436da4                crypto_mod_put
                0xc0436df4                crypto_free_tfm
                0xc0436e94                crypto_mod_get
                0xc04370d0                crypto_alg_lookup
                0xc043711c                crypto_larval_lookup
                0xc0437218                crypto_alg_mod_lookup
                0xc0437298                crypto_has_alg
                0xc04372c0                crypto_alloc_base
                0xc043734c                crypto_init_cipher_ops
                0xc04373a4                crypto_exit_cipher_ops
                0xc043761c                crypto_init_digest_ops
                0xc04376a0                crypto_exit_digest_ops
                0xc043772c                crypto_init_digest_ops_async
                0xc0437bb4                crypto_init_compress_ops
                0xc0437be0                crypto_exit_compress_ops
 .text          0xc0437bf0     0xf1f8 block/built-in.o
                0xc0437bf0                elv_rq_merge_ok
                0xc0437ca0                elv_rb_find
                0xc0437ce0                elv_dispatch_sort
                0xc0437db4                elv_dispatch_add_tail
                0xc0437e2c                elv_queue_empty
                0xc0437e68                elv_latter_request
                0xc0437e94                elv_former_request
                0xc0437ec0                elv_set_request
                0xc0437ef4                elv_put_request
                0xc0437f20                elv_may_queue
                0xc0437fa4                elv_rb_latter_request
                0xc0437fc4                elv_rb_former_request
                0xc0437fe4                elv_dequeue_request
                0xc0438050                elv_merge_requests
                0xc0438148                elv_merged_request
                0xc0438214                elv_merge
                0xc0438380                elv_unregister
                0xc04384a0                elv_iosched_show
                0xc04385f4                elv_register
                0xc043896c                elevator_exit
                0xc0438a74                elevator_init
                0xc0438b6c                elv_unregister_queue
                0xc0438b90                elv_register_queue
                0xc0438c08                elv_iosched_store
                0xc0438e94                elv_completed_request
                0xc0438f54                elv_abort_queue
                0xc0438f9c                elv_next_request
                0xc0439194                elv_insert
                0xc04393d0                __elv_add_request
                0xc0439490                elv_add_request
                0xc04394f4                elv_requeue_request
                0xc0439580                elv_rb_del
                0xc04395d0                elv_rb_add
                0xc0439640                blk_queue_congestion_threshold
                0xc0439684                blk_get_backing_dev_info
                0xc04396a4                blk_unplug_work
                0xc04396c4                blk_unplug
                0xc04396fc                blk_rq_bytes
                0xc0439720                blk_rq_cur_bytes
                0xc0439754                blk_lld_busy
                0xc0439778                kblockd_flush_work
                0xc043978c                kblockd_schedule_work
                0xc04397ac                blk_unplug_timeout
                0xc04397c4                blk_rq_bio_prep
                0xc04398c4                part_round_stats
                0xc043996c                init_request_from_bio
                0xc0439af8                blk_dump_rq_flags
                0xc0439cd4                blk_rq_check_limits
                0xc043a160                blk_update_request
                0xc043a190                blkdev_dequeue_request
                0xc043a1b8                blk_insert_cloned_request
                0xc043a268                generic_make_request
                0xc043a55c                submit_bio
                0xc043a760                __blk_put_request
                0xc043aa94                blk_end_request_callback
                0xc043aab8                blk_end_bidi_request
                0xc043aadc                blk_end_request
                0xc043ab04                __blk_end_request
                0xc043ab50                end_request
                0xc043ab7c                blk_put_request
                0xc043abe8                blk_start_queue
                0xc043ac30                blk_requeue_request
                0xc043ac90                blk_get_queue
                0xc043acbc                blk_alloc_queue_node
                0xc043ad90                blk_alloc_queue
                0xc043ada8                blk_put_queue
                0xc043adc0                blk_init_queue_node
                0xc043af30                blk_init_queue
                0xc043af48                blk_sync_queue
                0xc043af6c                blk_cleanup_queue
                0xc043afc0                blk_remove_plug
                0xc043b014                __blk_run_queue
                0xc043b044                blk_run_queue
                0xc043b0a8                blk_stop_queue
                0xc043b0cc                __generic_unplug_device
                0xc043b104                blk_start_queueing
                0xc043b13c                blk_insert_request
                0xc043b200                generic_unplug_device
                0xc043b26c                blk_plug_device
                0xc043b2dc                blk_plug_device_unlocked
                0xc043b340                blk_rq_init
                0xc043bbec                blk_get_request
                0xc043bc88                blk_queue_free_tags
                0xc043bca4                blk_queue_invalidate_tags
                0xc043bce4                blk_queue_find_tag
                0xc043bd18                blk_queue_start_tag
                0xc043be0c                blk_queue_end_tag
                0xc043bfa4                blk_queue_resize_tags
                0xc043c0b8                blk_init_tags
                0xc043c0d4                blk_queue_init_tags
                0xc043c22c                blk_free_tags
                0xc043c24c                __blk_queue_free_tags
                0xc043c8b0                blk_unregister_queue
                0xc043c90c                blk_register_queue
                0xc043c99c                blkdev_issue_discard
                0xc043cb10                blkdev_issue_flush
                0xc043cc3c                blk_ordered_req_seq
                0xc043cd2c                blk_ordered_cur_seq
                0xc043cd60                blk_do_ordered
                0xc043cfb4                blk_ordered_complete_seq
                0xc043d0cc                blk_queue_ordered
                0xc043d15c                blk_queue_prep_rq
                0xc043d170                blk_queue_set_discard
                0xc043d184                blk_queue_merge_bvec
                0xc043d198                blk_queue_softirq_done
                0xc043d1ac                blk_queue_rq_timeout
                0xc043d1c0                blk_queue_rq_timed_out
                0xc043d1d4                blk_queue_lld_busy
                0xc043d1e8                blk_queue_bounce_limit
                0xc043d224                blk_queue_hardsect_size
                0xc043d23c                blk_queue_dma_pad
                0xc043d250                blk_queue_update_dma_pad
                0xc043d26c                blk_queue_dma_drain
                0xc043d2c0                blk_queue_dma_alignment
                0xc043d2d4                blk_queue_update_dma_alignment
                0xc043d304                blk_queue_segment_boundary
                0xc043d34c                blk_queue_max_segment_size
                0xc043d388                blk_queue_max_hw_segments
                0xc043d3cc                blk_queue_max_phys_segments
                0xc043d40c                blk_queue_max_sectors
                0xc043d46c                blk_queue_stack_limits
                0xc043d5f4                blk_queue_make_request
                0xc043d6cc                alloc_io_context
                0xc043d740                current_io_context
                0xc043d780                get_io_context
                0xc043d7e4                put_io_context
                0xc043d8c8                copy_io_context
                0xc043d924                exit_io_context
                0xc043da18                blk_rq_map_kern
                0xc043db64                blk_rq_unmap_user
                0xc043dbc8                blk_rq_map_user_iov
                0xc043dd38                blk_rq_append_bio
                0xc043dd94                blk_rq_map_user
                0xc043dfc4                blk_execute_rq_nowait
                0xc043e0a8                blk_execute_rq
                0xc043e154                blk_recalc_rq_segments
                0xc043e32c                blk_recount_segments
                0xc043e6e4                attempt_front_merge
                0xc043e718                attempt_back_merge
                0xc043e74c                ll_front_merge_fn
                0xc043e818                ll_back_merge_fn
                0xc043e8e4                blk_rq_map_sg
                0xc043ebe4                blk_recalc_rq_sectors
                0xc043ed9c                __blk_complete_request
                0xc043ee0c                blk_complete_request
                0xc043ee44                blk_add_timer
                0xc043ef80                blk_rq_timed_out_timer
                0xc043f0d0                blk_delete_timer
                0xc043f118                blk_abort_request
                0xc043f15c                blk_abort_queue
                0xc043f1f4                __blkdev_driver_ioctl
                0xc043f2d0                blkdev_ioctl
                0xc043fc70                disk_map_sector_rcu
                0xc043fcec                set_device_ro
                0xc043fd04                bdev_read_only
                0xc0440024                disk_expand_part_tbl
                0xc04400f4                disk_part_iter_init
                0xc0440174                put_disk
                0xc0440194                get_disk
                0xc0440280                alloc_disk_node
                0xc0440330                alloc_disk
                0xc0440360                disk_part_iter_exit
                0xc0440390                get_gendisk
                0xc0440450                blkdev_show
                0xc04404bc                unregister_blkdev
                0xc0440560                blk_unregister_region
                0xc044058c                unlink_gendisk
                0xc04405d0                blk_register_region
                0xc0440620                blk_free_devt
                0xc0440670                blk_alloc_devt
                0xc044073c                add_disk
                0xc044086c                register_blkdev
                0xc044098c                disk_part_iter_next
                0xc0440cd8                set_disk_ro
                0xc0440d28                disk_get_part
                0xc0440db8                blk_lookup_devt
                0xc0440e54                bdget_disk
                0xc0440e8c                invalidate_partition
                0xc0440ec8                blk_set_cmd_filter_defaults
                0xc044134c                sg_scsi_ioctl
                0xc0441698                scsi_cmd_ioctl
                0xc0441ba4                blk_verify_command
 .text          0xc0446de8       0x1c arch/arm/lib/lib.a(ashldi3.o)
                0xc0446de8                __ashldi3
                0xc0446de8                __aeabi_llsl
 .text          0xc0446e04       0x1c arch/arm/lib/lib.a(ashrdi3.o)
                0xc0446e04                __ashrdi3
                0xc0446e04                __aeabi_lasr
 .text          0xc0446e20      0x160 arch/arm/lib/lib.a(backtrace.o)
                0xc0446e20                __backtrace
                0xc0446e28                c_backtrace
 .text          0xc0446f80       0x2c arch/arm/lib/lib.a(changebit.o)
                0xc0446f80                _change_bit_be
                0xc0446f84                _change_bit_le
 .text          0xc0446fac       0x64 arch/arm/lib/lib.a(clear_user.o)
                0xc0446fac                __clear_user
 .text          0xc0447010       0x2c arch/arm/lib/lib.a(clearbit.o)
                0xc0447010                _clear_bit_be
                0xc0447014                _clear_bit_le
 .text          0xc044703c      0x39c arch/arm/lib/lib.a(copy_from_user.o)
                0xc044703c                __copy_from_user
 *fill*         0xc04473d8        0x8 00
 .text          0xc04473e0       0x60 arch/arm/lib/lib.a(copy_page.o)
                0xc04473e0                copy_page
 .text          0xc0447440      0x3a8 arch/arm/lib/lib.a(copy_to_user.o)
                0xc0447440                __copy_to_user
 .text          0xc04477e8       0x40 arch/arm/lib/lib.a(csumipv6.o)
                0xc04477e8                __csum_ipv6_magic
 .text          0xc0447828      0x10c arch/arm/lib/lib.a(csumpartial.o)
                0xc04478b0                csum_partial
 .text          0xc0447934      0x418 arch/arm/lib/lib.a(csumpartialcopy.o)
                0xc04479e0                csum_partial_copy_nocheck
 .text          0xc0447d4c      0x448 arch/arm/lib/lib.a(csumpartialcopyuser.o)
                0xc0447df8                csum_partial_copy_from_user
 .text          0xc0448194       0x38 arch/arm/lib/lib.a(delay.o)
                0xc044819c                __udelay
                0xc04481a4                __const_udelay
                0xc04481c0                __delay
 .text          0xc04481cc      0x100 arch/arm/lib/lib.a(div64.o)
                0xc04481cc                __do_div64
 .text          0xc04482cc       0xc4 arch/arm/lib/lib.a(findbit.o)
                0xc04482cc                _find_first_zero_bit_le
                0xc04482f8                _find_next_zero_bit_le
                0xc0448324                _find_first_bit_le
                0xc0448350                _find_next_bit_le
 .text          0xc0448390       0x38 arch/arm/lib/lib.a(getuser.o)
                0xc0448390                __get_user_1
                0xc044839c                __get_user_2
                0xc04483b0                __get_user_4
 .text          0xc04483c8      0x180 arch/arm/lib/lib.a(io-readsb.o)
                0xc04483f8                __raw_readsb
 .text          0xc0448548       0xec arch/arm/lib/lib.a(io-readsl.o)
                0xc0448548                __raw_readsl
 .text          0xc0448634      0x114 arch/arm/lib/lib.a(io-readsw-armv4.o)
                0xc0448648                __raw_readsw
 .text          0xc0448748      0x164 arch/arm/lib/lib.a(io-writesb.o)
                0xc0448778                __raw_writesb
 .text          0xc04488ac       0xc0 arch/arm/lib/lib.a(io-writesl.o)
                0xc04488ac                __raw_writesl
 .text          0xc044896c       0xf8 arch/arm/lib/lib.a(io-writesw-armv4.o)
                0xc0448980                __raw_writesw
 .text          0xc0448a64      0x300 arch/arm/lib/lib.a(lib1funcs.o)
                0xc0448a64                __udivsi3
                0xc0448a64                __aeabi_uidiv
                0xc0448b00                __umodsi3
                0xc0448ba0                __divsi3
                0xc0448ba0                __aeabi_idiv
                0xc0448c6c                __modsi3
                0xc0448d24                __aeabi_uidivmod
                0xc0448d3c                __aeabi_idivmod
 .text          0xc0448d64       0x1c arch/arm/lib/lib.a(lshrdi3.o)
                0xc0448d64                __aeabi_llsr
                0xc0448d64                __lshrdi3
 .text          0xc0448d80       0x20 arch/arm/lib/lib.a(memchr.o)
                0xc0448d80                memchr
 .text          0xc0448da0      0x330 arch/arm/lib/lib.a(memcpy.o)
                0xc0448da0                memcpy
 .text          0xc04490d0      0x340 arch/arm/lib/lib.a(memmove.o)
                0xc04490d0                memmove
 *fill*         0xc0449410       0x10 00
 .text          0xc0449420       0xc0 arch/arm/lib/lib.a(memset.o)
                0xc0449440                memset
 .text          0xc04494e0       0xa0 arch/arm/lib/lib.a(memzero.o)
                0xc0449500                __memzero
 .text          0xc0449580       0x3c arch/arm/lib/lib.a(muldi3.o)
                0xc0449580                __muldi3
                0xc0449580                __aeabi_lmul
 .text          0xc04495bc       0x44 arch/arm/lib/lib.a(putuser.o)
                0xc04495bc                __put_user_1
                0xc04495c8                __put_user_2
                0xc04495dc                __put_user_4
                0xc04495e8                __put_user_8
 .text          0xc0449600       0x2c arch/arm/lib/lib.a(setbit.o)
                0xc0449600                _set_bit_be
                0xc0449604                _set_bit_le
 .text          0xc044962c      0x37c arch/arm/lib/lib.a(sha1.o)
                0xc044962c                sha_transform
                0xc0449994                sha_init
 *fill*         0xc04499a8       0x18 00
 .text          0xc04499c0       0x40 arch/arm/lib/lib.a(strchr.o)
                0xc04499c0                strchr
 .text          0xc0449a00       0x40 arch/arm/lib/lib.a(strncpy_from_user.o)
                0xc0449a00                __strncpy_from_user
 .text          0xc0449a40       0x40 arch/arm/lib/lib.a(strnlen_user.o)
                0xc0449a40                __strnlen_user
 .text          0xc0449a80       0x20 arch/arm/lib/lib.a(strrchr.o)
                0xc0449a80                strrchr
 .text          0xc0449aa0       0x34 arch/arm/lib/lib.a(testchangebit.o)
                0xc0449aa0                _test_and_change_bit_be
                0xc0449aa4                _test_and_change_bit_le
 .text          0xc0449ad4       0x34 arch/arm/lib/lib.a(testclearbit.o)
                0xc0449ad4                _test_and_clear_bit_be
                0xc0449ad8                _test_and_clear_bit_le
 .text          0xc0449b08       0x34 arch/arm/lib/lib.a(testsetbit.o)
                0xc0449b08                _test_and_set_bit_be
                0xc0449b0c                _test_and_set_bit_le
 .text          0xc0449b3c       0x30 arch/arm/lib/lib.a(ucmpdi2.o)
                0xc0449b3c                __ucmpdi2
                0xc0449b54                __aeabi_ulcmp
 .text          0xc0449b6c      0x174 lib/lib.a(argv_split.o)
                0xc0449b6c                argv_free
                0xc0449ba0                argv_split
 .text          0xc0449ce0      0x1d8 lib/lib.a(cmdline.o)
                0xc0449ce0                memparse
                0xc0449d80                get_option
                0xc0449dfc                get_options
 .text          0xc0449eb8        0x0 lib/lib.a(ctype.o)
 .text          0xc0449eb8       0x70 lib/lib.a(dec_and_lock.o)
                0xc0449eb8                _atomic_dec_and_lock
 .text          0xc0449f28       0xac lib/lib.a(extable.o)
                0xc0449f54                search_extable
                0xc0449f9c                sort_extable
 .text          0xc0449fd4      0xe48 lib/lib.a(idr.o)
                0xc044a028                idr_init
                0xc044a040                ida_init
                0xc044a07c                idr_replace
                0xc044a114                idr_find
                0xc044a2a8                idr_destroy
                0xc044a2e8                ida_destroy
                0xc044a5bc                ida_get_new_above
                0xc044a7b0                ida_get_new
                0xc044a830                idr_get_new
                0xc044a86c                idr_get_new_above
                0xc044a8a4                idr_for_each
                0xc044a968                idr_pre_get
                0xc044aa0c                ida_pre_get
                0xc044aa6c                idr_remove_all
                0xc044ab24                idr_remove
                0xc044acf0                ida_remove
 .text          0xc044ae1c       0x50 lib/lib.a(int_sqrt.o)
                0xc044ae1c                int_sqrt
 .text          0xc044ae6c        0x0 lib/lib.a(irq_regs.o)
 .text          0xc044ae6c      0xb00 lib/lib.a(kobject.o)
                0xc044aee0                kset_init
                0xc044af48                kobject_init
                0xc044affc                kobject_create
                0xc044b03c                kobject_put
                0xc044b098                kset_unregister
                0xc044b134                kobject_del
                0xc044b1d0                kobject_get
                0xc044b1f4                kset_find_obj
                0xc044b474                kset_register
                0xc044b54c                kobject_init_and_add
                0xc044b590                kobject_add
                0xc044b5f4                kobject_create_and_add
                0xc044b658                kobject_set_name
                0xc044b688                kset_create_and_add
                0xc044b70c                kobject_get_path
                0xc044b7b8                kobject_move
                0xc044b894                kobject_rename
 .text          0xc044b96c       0xf4 lib/lib.a(kref.o)
                0xc044b96c                kref_set
                0xc044b980                kref_init
                0xc044b998                kref_put
                0xc044ba14                kref_get
 .text          0xc044ba60      0x814 lib/lib.a(prio_tree.o)
                0xc044bc60                prio_tree_next
                0xc044beac                prio_tree_replace
                0xc044bf38                prio_tree_remove
                0xc044c03c                prio_tree_insert
 .text          0xc044c274      0x79c lib/lib.a(proportions.o)
                0xc044c274                prop_local_init_percpu
                0xc044c2a0                prop_local_destroy_percpu
                0xc044c2b0                prop_local_init_single
                0xc044c2d4                prop_local_destroy_single
                0xc044c3f4                prop_fraction_single
                0xc044c480                __prop_inc_single
                0xc044c678                prop_fraction_percpu
                0xc044c704                __prop_inc_percpu_max
                0xc044c838                __prop_inc_percpu
                0xc044c91c                prop_change_shift
                0xc044c9bc                prop_descriptor_init
 .text          0xc044ca10      0xec0 lib/lib.a(radix-tree.o)
                0xc044ca10                radix_tree_lookup_slot
                0xc044ca9c                radix_tree_lookup
                0xc044cb24                radix_tree_tag_clear
                0xc044cc78                radix_tree_next_hole
                0xc044cdb0                radix_tree_gang_lookup
                0xc044ce98                radix_tree_gang_lookup_slot
                0xc044d08c                radix_tree_gang_lookup_tag
                0xc044d194                radix_tree_gang_lookup_tag_slot
                0xc044d260                radix_tree_tagged
                0xc044d298                radix_tree_tag_set
                0xc044d370                radix_tree_delete
                0xc044d634                radix_tree_insert
                0xc044d820                radix_tree_preload
 .text          0xc044d8d0      0x140 lib/lib.a(ratelimit.o)
                0xc044d8d0                __ratelimit
 .text          0xc044da10      0x724 lib/lib.a(rbtree.o)
                0xc044db00                rb_insert_color
                0xc044dc34                rb_erase
                0xc044dfa0                rb_first
                0xc044dfcc                rb_last
                0xc044dff8                rb_next
                0xc044e060                rb_prev
                0xc044e0c8                rb_replace_node
 .text          0xc044e134       0x38 lib/lib.a(reciprocal_div.o)
                0xc044e134                reciprocal_value
 .text          0xc044e16c      0x4dc lib/lib.a(rwsem-spinlock.o)
                0xc044e16c                __init_rwsem
                0xc044e190                __down_write_trylock
                0xc044e220                __down_read_trylock
                0xc044e2b0                __downgrade_write
                0xc044e3d0                __up_write
                0xc044e558                __up_read
 .text          0xc044e648      0x778 lib/lib.a(string.o)
                0xc044e648                strnicmp
                0xc044e6cc                strcasecmp
                0xc044e734                strncasecmp
                0xc044e7a4                strcpy
                0xc044e7cc                strncpy
                0xc044e800                strcat
                0xc044e83c                strncat
                0xc044e894                strcmp
                0xc044e8d0                strncmp
                0xc044e920                strnchr
                0xc044e964                strstrip
                0xc044e9e8                strlen
                0xc044ea10                strnlen
                0xc044ea44                strspn
                0xc044ea8c                strcspn
                0xc044ead0                strpbrk
                0xc044eb14                strsep
                0xc044eb78                sysfs_streq
                0xc044ebf4                memcmp
                0xc044ec34                memscan
                0xc044ec68                strstr
                0xc044ece8                strlcat
                0xc044ed68                strlcpy
 .text          0xc044edc0     0x1584 lib/lib.a(vsprintf.o)
                0xc044edc0                simple_strtoul
                0xc044ee8c                simple_strtol
                0xc044eebc                simple_strtoull
                0xc044ef9c                simple_strtoll
                0xc044f4b4                vsscanf
                0xc044f9e4                sscanf
                0xc044fac8                vsnprintf
                0xc04500d8                sprintf
                0xc045010c                vsprintf
                0xc045012c                scnprintf
                0xc0450168                snprintf
                0xc0450198                vscnprintf
                0xc04501b8                strict_strtoull
                0xc045023c                strict_strtoll
                0xc0450284                strict_strtoul
                0xc0450304                strict_strtol
 .text          0xc0450344     0x8efc lib/built-in.o
                0xc0450344                bcd2bin
                0xc0450364                bin2bcd
                0xc0450398                __div64_32
                0xc0450494                iter_div_u64_rem
                0xc04504e0                div64_u64
                0xc045054c                div_s64_rem
                0xc0450618                sort
                0xc04507c0                match_strlcpy
                0xc0450804                match_strdup
                0xc04508dc                match_hex
                0xc04508f4                match_octal
                0xc045090c                match_int
                0xc0450924                match_token
                0xc0450b08                half_md4_transform
                0xc0450e5c                debug_locks_off
                0xc0450ec8                srandom32
                0xc0450f54                random32
                0xc0450fa4                bust_spinlocks
                0xc0450fe8                hex_dump_to_buffer
                0xc04512b0                print_hex_dump
                0xc04513bc                print_hex_dump_bytes
                0xc0451400                kvasprintf
                0xc0451468                kasprintf
                0xc0451498                __bitmap_empty
                0xc0451518                __bitmap_full
                0xc045159c                __bitmap_equal
                0xc045162c                __bitmap_complement
                0xc04516a8                __bitmap_and
                0xc04516ec                __bitmap_or
                0xc0451730                __bitmap_xor
                0xc0451774                __bitmap_andnot
                0xc04517b8                __bitmap_intersects
                0xc0451848                __bitmap_subset
                0xc04519c8                bitmap_find_free_region
                0xc0451a3c                bitmap_release_region
                0xc0451a54                bitmap_allocate_region
                0xc0451a9c                bitmap_copy_le
                0xc0451b7c                bitmap_fold
                0xc0451c04                bitmap_onto
                0xc0451ca8                __bitmap_shift_left
                0xc0451dcc                __bitmap_parse
                0xc0451fb0                bitmap_parse_user
                0xc0452004                __bitmap_shift_right
                0xc0452178                __bitmap_weight
                0xc045228c                bitmap_bitremap
                0xc0452338                bitmap_remap
                0xc0452440                bitmap_parselist
                0xc0452558                bitmap_scnlistprintf
                0xc045264c                bitmap_scnprintf
                0xc045271c                sg_last
                0xc0452734                __sg_free_table
                0xc04527ac                sg_free_table
                0xc04527cc                sg_next
                0xc04527fc                sg_miter_stop
                0xc04528b0                sg_miter_next
                0xc0452a34                sg_miter_start
                0xc0452b24                sg_copy_to_buffer
                0xc0452b48                sg_copy_from_buffer
                0xc0452b6c                sg_init_table
                0xc0452ba4                __sg_alloc_table
                0xc0452c88                sg_alloc_table
                0xc0452d34                sg_init_one
                0xc0452db0                string_get_size
                0xc0452fb0                __iowrite32_copy
                0xc0452fd8                __iowrite64_copy
                0xc0453048                devm_ioport_unmap
                0xc045309c                devm_ioport_map
                0xc045310c                devm_iounmap
                0xc0453160                devm_ioremap_release
                0xc0453178                devm_ioremap_nocache
                0xc04531ec                devm_ioremap
                0xc0453260                hweight32
                0xc04532b0                hweight16
                0xc04532fc                hweight8
                0xc0453330                hweight64
                0xc045335c                plist_del
                0xc04533dc                plist_add
                0xc0453484                bitrev16
                0xc04534ac                bitrev32
                0xc04534fc                crc_ccitt
                0xc045353c                crc32_be
                0xc0453654                crc32_le
                0xc045374c                inflate_fast
                0xc0453c40                zlib_inflate_workspacesize
                0xc0453c58                zlib_inflateReset
                0xc0453ce4                zlib_inflateInit2
                0xc0453d50                zlib_inflateEnd
                0xc0453e44                zlib_inflateIncomp
                0xc0454060                zlib_inflate
                0xc0455340                zlib_inflate_blob
                0xc04553f8                zlib_inflate_table
                0xc0455978                zlib_deflateEnd
                0xc0455c04                zlib_deflate_workspacesize
                0xc0456034                zlib_deflate
                0xc0456c48                zlib_deflateReset
                0xc0456d64                zlib_deflateInit2
                0xc0456ecc                zlib_tr_init
                0xc0457ff0                zlib_tr_stored_type_only
                0xc04580e8                zlib_tr_align
                0xc0458494                zlib_tr_tally
                0xc0458a08                zlib_tr_stored_block
                0xc0458bac                zlib_tr_flush_block
 .text          0xc0459240    0xaa2ac drivers/built-in.o
                0xc0459240                gpiochip_is_requested
                0xc0459290                __gpio_get_value
                0xc04592cc                __gpio_set_value
                0xc0459300                __gpio_cansleep
                0xc0459324                __gpio_to_irq
                0xc0459360                gpio_get_value_cansleep
                0xc045939c                gpio_set_value_cansleep
                0xc04593d0                gpio_interrupt_clear
                0xc045940c                gpio_interrupt_setup
                0xc045944c                gpio_interrupt_enable
                0xc0459488                gpio_interrupt_disable
                0xc04594c4                gpio_interrupt_mask
                0xc0459500                gpio_interrupt_unmask
                0xc045953c                gpiochip_remove
                0xc0459728                gpio_direction_output
                0xc045987c                gpio_direction_input
                0xc04599c8                gpiochip_add
                0xc0459b84                gpio_free
                0xc0459cac                gpio_request
                0xc045a408                fb_notifier_call_chain
                0xc045a42c                fb_unregister_client
                0xc045a44c                fb_register_client
                0xc045a46c                fb_get_color_depth
                0xc045a4d4                fb_pad_aligned_buffer
                0xc045a514                fb_pad_unaligned_buffer
                0xc045a5f0                fb_get_buffer_offset
                0xc045a694                fb_prepare_logo
                0xc045a6a8                fb_show_logo
                0xc045a74c                fb_pan_display
                0xc045ab80                fb_set_suspend
                0xc045abcc                fb_blank
                0xc045b0d4                fb_get_options
                0xc045b1e0                unregister_framebuffer
                0xc045b298                register_framebuffer
                0xc045b45c                fb_set_var
                0xc045bbdc                fb_new_modelist
                0xc045be28                fb_validate_mode
                0xc045bfb8                fb_firmware_edid
                0xc045bfcc                fb_destroy_modedb
                0xc045c0c0                fb_get_mode
                0xc045c990                fb_parse_edid
                0xc045d3a0                fb_edid_to_monspecs
                0xc045db44                fb_default_cmap
                0xc045db90                fb_invert_cmaps
                0xc045dcb8                fb_cmap_to_user
                0xc045de24                fb_copy_cmap
                0xc045df04                fb_set_cmap
                0xc045e004                fb_dealloc_cmap
                0xc045e050                fb_alloc_cmap
                0xc045e154                fb_set_user_cmap
                0xc045e398                fb_cleanup_device
                0xc045eb18                fb_init_device
                0xc045ebb4                framebuffer_release
                0xc045ebc8                framebuffer_alloc
                0xc045ecd0                fb_var_to_videomode
                0xc045edd0                fb_videomode_to_var
                0xc045ee54                fb_mode_is_equal
                0xc045ef20                fb_find_best_mode
                0xc045efc0                fb_find_nearest_mode
                0xc045f060                fb_match_mode
                0xc045f0cc                fb_find_best_display
                0xc045f1e0                fb_destroy_modelist
                0xc045f240                fb_delete_videomode
                0xc045f2b8                fb_add_videomode
                0xc045f364                fb_videomode_to_modelist
                0xc045f3b4                fb_find_mode
                0xc045f9dc                fb_find_mode_cvt
                0xc046060c                cfb_fillrect
                0xc04608dc                cfb_copyarea
                0xc04610cc                cfb_imageblit
                0xc046153c                unxlate_dev_mem_ptr
                0xc046154c                phys_mem_access_prot_allowed
                0xc0461560                map_devmem
                0xc0461570                unmap_devmem
                0xc0462918                secure_ipv6_port_ephemeral
                0xc0462984                secure_tcpv6_sequence_number
                0xc0462e7c                get_random_bytes
                0xc0462f14                generate_random_uuid
                0xc0463658                secure_ipv4_port_ephemeral
                0xc04636b4                secure_tcp_sequence_number
                0xc0463744                secure_ip_id
                0xc046379c                get_random_int
                0xc04637d4                randomize_range
                0xc0463968                add_disk_randomness
                0xc0463998                add_interrupt_randomness
                0xc04639e0                add_input_randomness
                0xc0463a1c                rand_initialize_disk
                0xc0463a50                rand_initialize_irq
                0xc0463b54                tty_hung_up_p
                0xc0463b7c                tty_driver_lookup_tty
                0xc0463bb0                tty_put_char
                0xc0463bf8                tty_set_operations
                0xc0463c0c                tty_devnum
                0xc0463c34                tty_default_fops
                0xc0463cb4                tty_get_pgrp
                0xc0463d40                get_current_tty
                0xc0463ea4                tty_paranoia_check
                0xc04640d4                tty_free_termios
                0xc046410c                tty_shutdown
                0xc0464220                alloc_tty_struct
                0xc0464248                tty_unregister_driver
                0xc04642b4                tty_driver_kref_put
                0xc04642d4                put_tty_driver
                0xc04642e8                tty_kref_put
                0xc0464444                proc_clear_tty
                0xc046453c                alloc_tty_driver
                0xc046458c                tty_unregister_device
                0xc0464658                tty_register_device
                0xc0464738                tty_register_driver
                0xc04648f0                initialize_tty_struct
                0xc0464a20                tty_write_unlock
                0xc0464a50                stop_tty
                0xc0464b48                tty_wakeup
                0xc0464ba8                start_tty
                0xc04651f0                tty_vhangup
                0xc0465208                tty_vhangup_self
                0xc0465234                do_SAK
                0xc0465254                tty_hangup
                0xc046526c                tty_ldisc_flush
                0xc04652b4                __do_SAK
                0xc04654e0                tty_do_resize
                0xc0465630                disassociate_ctty
                0xc04658ac                no_tty
                0xc04658f4                tty_init_termios
                0xc04659a4                tty_write_message
                0xc0465a10                tty_write_lock
                0xc0465c8c                redirected_tty_write
                0xc0465e4c                tty_check_change
                0xc0465f94                tty_ioctl
                0xc0466934                tty_name
                0xc0466968                tty_release_dev
                0xc0466e18                free_tty_struct
                0xc0466ef4                tty_init_dev
                0xc0467488                is_ignored
                0xc0469c00                tty_chars_in_buffer
                0xc0469c28                tty_write_room
                0xc0469c50                tty_driver_flush_buffer
                0xc0469c74                tty_throttle
                0xc0469cbc                tty_unthrottle
                0xc0469d04                tty_termios_baud_rate
                0xc0469d54                tty_termios_input_baud_rate
                0xc0469dbc                tty_termios_encode_baud_rate
                0xc0469f40                tty_encode_baud_rate
                0xc0469f58                tty_termios_copy_hw
                0xc0469f94                tty_termios_hw_change
                0xc046a084                tty_perform_flush
                0xc046a134                tty_get_baud_rate
                0xc046a18c                tty_wait_until_sent
                0xc046a734                tty_mode_ioctl
                0xc046ab6c                n_tty_ioctl_helper
                0xc046afa4                tty_ldisc_ref
                0xc046afc4                tty_unregister_ldisc
                0xc046b054                tty_register_ldisc
                0xc046b0dc                tty_ldisc_begin
                0xc046b204                tty_ldisc_init
                0xc046b28c                tty_ldisc_release
                0xc046b4f8                tty_ldisc_enable
                0xc046b53c                tty_ldisc_setup
                0xc046b5cc                tty_ldisc_deref
                0xc046b67c                tty_ldisc_ref_wait
                0xc046b738                tty_set_ldisc
                0xc046bbf8                tty_buffer_init
                0xc046bc40                tty_schedule_flip
                0xc046bf3c                tty_flip_buffer_push
                0xc046bfd0                tty_buffer_free_all
                0xc046c024                tty_buffer_request_room
                0xc046c18c                tty_prepare_flip_string_flags
                0xc046c1e8                tty_prepare_flip_string
                0xc046c248                tty_insert_flip_string_flags
                0xc046c2d8                tty_insert_flip_string
                0xc046c35c                tty_buffer_flush
                0xc046c4c8                tty_port_tty_set
                0xc046c554                tty_port_tty_get
                0xc046c5cc                tty_port_free_xmit_buf
                0xc046c610                tty_port_alloc_xmit_buf
                0xc046c660                tty_port_init
                0xc046d3ec                misc_deregister
                0xc046d498                misc_register
                0xc046d5e8                sysrq_on
                0xc046d624                __sysrq_get_key_op
                0xc046d774                unregister_sysrq_key
                0xc046d790                register_sysrq_key
                0xc046d7a8                __handle_sysrq
                0xc046d988                handle_sysrq
                0xc046dbac                cn_cb_equal
                0xc046dbe4                cn_queue_free_dev
                0xc046dce0                cn_queue_del_callback
                0xc046ddd0                cn_queue_wrapper
                0xc046de0c                cn_queue_alloc_dev
                0xc046debc                cn_queue_add_callback
                0xc046e504                cn_netlink_send
                0xc046e7e8                cn_del_callback
                0xc046e81c                cn_add_callback
                0xc046e9d4                proc_exit_connector
                0xc046eb30                proc_id_connector
                0xc046ec90                proc_exec_connector
                0xc046edcc                proc_fork_connector
                0xc046ef1c                uart_update_timeout
                0xc046ef7c                uart_get_divisor
                0xc046f078                uart_console_write
                0xc046f14c                uart_console_device
                0xc046f16c                uart_match_port
                0xc046f24c                uart_remove_one_port
                0xc046fb94                uart_add_one_port
                0xc046fef0                uart_unregister_driver
                0xc0470968                uart_set_options
                0xc0472078                uart_register_driver
                0xc04721ec                uart_resume_port
                0xc047245c                uart_suspend_port
                0xc047264c                uart_parse_options
                0xc04726c4                uart_get_baud_rate
                0xc04727d8                uart_write_wakeup
                0xc04744d4                serial8250_suspend_port
                0xc0474500                serial8250_unregister_port
                0xc047457c                serial8250_register_port
                0xc04746fc                serial8250_find_port
                0xc0474758                serial8250_resume_port
                0xc0474ef4                serial8250_find_port_for_earlycon
                0xc0474f90                dev_driver_string
                0xc04750a8                device_shutdown
                0xc047514c                put_device
                0xc047530c                dev_set_name
                0xc04754e0                device_for_each_child
                0xc0475778                get_device
                0xc047579c                device_move
                0xc04758e0                device_rename
                0xc0475a1c                device_find_child
                0xc0475b30                device_initialize
                0xc0475bb8                device_schedule_callback_owner
                0xc0475bd8                device_remove_bin_file
                0xc0475bf8                device_create_bin_file
                0xc0475c1c                device_remove_file
                0xc0475ca4                device_del
                0xc0475de8                device_unregister
                0xc0475e08                device_destroy
                0xc0475e4c                device_create_file
                0xc0475e6c                device_add
                0xc04763b8                device_register
                0xc04763d8                device_create_vargs
                0xc0476480                device_create
                0xc04765b4                sysdev_resume
                0xc047662c                sysdev_show_int
                0xc0476658                sysdev_show_ulong
                0xc0476684                sysdev_store_int
                0xc04766d0                sysdev_store_ulong
                0xc047671c                sysdev_suspend
                0xc04768f4                sysdev_shutdown
                0xc04769b8                sysdev_unregister
                0xc0476a24                sysdev_driver_unregister
                0xc0476ab8                sysdev_register
                0xc0476b78                sysdev_driver_register
                0xc0476c9c                sysdev_class_unregister
                0xc0476cb4                sysdev_class_register
                0xc0476d20                sysdev_class_remove_file
                0xc0476d38                sysdev_remove_file
                0xc0476d50                sysdev_class_create_file
                0xc0476d68                sysdev_create_file
                0xc0476e88                bus_get_kset
                0xc0476e9c                bus_get_device_klist
                0xc0476eb4                bus_sort_breadthfirst
                0xc0476ff8                bus_unregister_notifier
                0xc0477014                bus_register_notifier
                0xc04770d0                device_reprobe
                0xc0477150                bus_remove_driver
                0xc0477214                bus_add_driver
                0xc04773c8                bus_remove_device
                0xc047748c                bus_attach_device
                0xc04774ec                bus_add_device
                0xc047765c                bus_for_each_drv
                0xc04776f0                bus_find_device
                0xc0477788                bus_find_device_by_name
                0xc04777a4                bus_for_each_dev
                0xc0477830                bus_rescan_devices
                0xc0477874                bus_remove_file
                0xc04778b0                bus_unregister
                0xc0477934                bus_create_file
                0xc047797c                bus_register
                0xc0477b64                driver_probe_done
                0xc0477c5c                driver_detach
                0xc0477d4c                device_release_driver
                0xc0477d7c                driver_attach
                0xc0477e84                driver_probe_device
                0xc04780a8                device_bind_driver
                0xc04780d4                device_attach
                0xc0478144                driver_find
                0xc047816c                driver_unregister
                0xc04781ac                put_driver
                0xc04781c4                driver_register
                0xc04782e4                get_driver
                0xc0478308                driver_add_kobj
                0xc0478378                driver_remove_file
                0xc0478398                driver_create_file
                0xc04783bc                driver_find_device
                0xc0478454                driver_for_each_device
                0xc0478578                class_dev_iter_exit
                0xc047858c                class_dev_iter_next
                0xc04785d4                class_dev_iter_init
                0xc0478608                class_interface_unregister
                0xc04786b8                class_interface_register
                0xc0478784                class_find_device
                0xc0478848                class_for_each_device
                0xc04788fc                make_class_name
                0xc0478990                class_remove_file
                0xc04789b4                class_unregister
                0xc0478a08                class_destroy
                0xc0478a2c                class_create_file
                0xc0478a54                __class_register
                0xc0478bec                __class_create
                0xc0478c60                platform_get_resource
                0xc0478cbc                platform_get_irq
                0xc0478e58                dma_get_required_mask
                0xc0478ec8                platform_driver_unregister
                0xc0478ee0                platform_driver_register
                0xc0478f74                platform_driver_probe
                0xc0479020                platform_device_del
                0xc0479080                platform_device_add
                0xc04791e0                platform_device_register
                0xc0479204                platform_device_add_data
                0xc047924c                platform_device_add_resources
                0xc04792a0                platform_device_alloc
                0xc047932c                platform_device_put
                0xc047934c                platform_device_register_data
                0xc04793c0                platform_device_register_simple
                0xc0479424                platform_device_unregister
                0xc0479444                platform_add_devices
                0xc04794ac                platform_get_resource_byname
                0xc047951c                platform_get_irq_byname
                0xc0479544                get_cpu_sysdev
                0xc0479608                kobj_map_init
                0xc04796a4                kobj_unmap
                0xc0479768                kobj_map
                0xc0479874                kobj_lookup
                0xc0479ad4                devres_alloc
                0xc0479b24                devres_close_group
                0xc0479c28                devres_remove
                0xc0479cb8                devres_find
                0xc0479d2c                devres_add
                0xc0479dc0                devm_kzalloc
                0xc047a01c                devres_release_group
                0xc047a110                devres_release_all
                0xc047a150                devres_remove_group
                0xc047a268                devres_free
                0xc047a2a0                devres_destroy
                0xc047a2c8                devm_kfree
                0xc047a308                devres_get
                0xc047a3c4                devres_open_group
                0xc047a4b8                attribute_container_classdev_to_container
                0xc047a4cc                attribute_container_find_class_device
                0xc047a52c                attribute_container_remove_attrs
                0xc047a588                attribute_container_class_device_del
                0xc047a5a8                attribute_container_add_attrs
                0xc047a624                attribute_container_add_class_device
                0xc047a64c                attribute_container_add_class_device_adapter
                0xc047a664                attribute_container_trigger
                0xc047a6d8                attribute_container_device_trigger
                0xc047a7b0                attribute_container_remove_device
                0xc047a8b0                attribute_container_add_device
                0xc047aa18                attribute_container_unregister
                0xc047aac0                attribute_container_register
                0xc047ab8c                transport_destroy_device
                0xc047abd8                transport_remove_device
                0xc047abf4                transport_configure_device
                0xc047ac10                transport_add_device
                0xc047acc8                transport_setup_device
                0xc047ace4                anon_transport_class_unregister
                0xc047ad0c                anon_transport_class_register
                0xc047ad4c                transport_class_unregister
                0xc047ad60                transport_class_register
                0xc047ad8c                dmam_release_declared_memory
                0xc047adc8                dmam_free_noncoherent
                0xc047ae8c                dmam_declare_coherent_memory
                0xc047af14                dmam_alloc_noncoherent
                0xc047af48                dmam_free_coherent
                0xc047afcc                dmam_alloc_coherent
                0xc047b0b4                module_remove_driver
                0xc047b128                module_add_driver
                0xc047bb30                loop_register_transfer
                0xc047bbf8                loop_unregister_transfer
                0xc047da48                mii_ethtool_gset
                0xc047dc94                mii_ethtool_sset
                0xc047dec8                mii_check_gmii_support
                0xc047df18                mii_link_ok
                0xc047df5c                mii_nway_restart
                0xc047dfac                generic_mii_ioctl
                0xc047e130                mii_check_media
                0xc047e30c                mii_check_link
                0xc047e608                ppp_channel_index
                0xc047e628                ppp_unit_number
                0xc047f258                ppp_unregister_compressor
                0xc047f318                ppp_register_compressor
                0xc047ffa8                ppp_output_wakeup
                0xc0480154                ppp_unregister_channel
                0xc0480254                ppp_register_channel
                0xc0480f20                ppp_input_error
                0xc0481004                ppp_input
                0xc0483788                register_pppox_proto
                0xc04837c0                unregister_pppox_proto
                0xc0483908                pppox_ioctl
                0xc04839c0                pppox_unbind_sock
                0xc04851bc                slhc_toss
                0xc04851e0                slhc_remember
                0xc0485370                slhc_uncompress
                0xc04857cc                slhc_compress
                0xc0485e5c                slhc_free
                0xc0485e9c                slhc_init
                0xc0489164                usbnet_cdc_unbind
                0xc04891d8                usbnet_generic_cdc_bind
                0xc0489f20                usbnet_get_msglevel
                0xc0489f34                usbnet_set_msglevel
                0xc0489f48                usbnet_resume
                0xc048a040                usbnet_suspend
                0xc048a0e4                usbnet_unlink_rx_urbs
                0xc048a2d8                usbnet_get_endpoints
                0xc048a738                usbnet_probe
                0xc048ad8c                usbnet_disconnect
                0xc048ae40                usbnet_get_drvinfo
                0xc048aec4                usbnet_nway_reset
                0xc048aef0                usbnet_get_link
                0xc048af40                usbnet_set_settings
                0xc048af8c                usbnet_get_settings
                0xc048afb8                usbnet_defer_kevent
                0xc048b994                usbnet_skb_return
                0xc048c414                xc2028_attach
                0xc048f964                simple_tuner_attach
                0xc0490254                microtune_attach
                0xc04918dc                tda829x_probe
                0xc0492ec4                tda829x_attach
                0xc04938f4                tea5767_autodetection
                0xc0494180                tea5767_attach
                0xc04944a4                tea5761_autodetection
                0xc04947e8                tea5761_attach
                0xc04955fc                tda9887_attach
                0xc0496724                xc5000_attach
                0xc0496a40                video_device_release_empty
                0xc0496a50                video_devdata
                0xc0496ae8                video_unregister_device
                0xc0496b00                video_register_device_index
                0xc0496e7c                video_register_device
                0xc0496f2c                video_device_release
                0xc0496f40                video_device_alloc
                0xc049702c                v4l_printk_ioctl
                0xc04972ac                video_usercopy
                0xc04975e0                v4l2_video_std_construct
                0xc0497668                v4l2_norm_to_name
                0xc049a970                __video_ioctl2
                0xc049ac98                video_ioctl2
                0xc049acb8                v4l_compat_ioctl32
                0xc049ad74                v4l2_int_ioctl_0
                0xc049adbc                v4l2_int_ioctl_1
                0xc049adf4                v4l2_int_device_unregister
                0xc049ae8c                v4l2_int_device_try_attach_all
                0xc049aff4                v4l2_int_device_register
                0xc049b078                v4l2_prio_change
                0xc049b0f8                v4l2_prio_open
                0xc049b110                v4l2_prio_close
                0xc049b150                v4l2_prio_max
                0xc049b190                v4l2_prio_check
                0xc049b1e4                v4l2_ctrl_check
                0xc049b294                v4l2_ctrl_get_menu
                0xc049b3f4                v4l2_ctrl_get_name
                0xc049b868                v4l2_ctrl_next
                0xc049b92c                v4l2_chip_match_host
                0xc049b950                v4l2_chip_match_i2c_client
                0xc049b9b0                v4l2_chip_ident_i2c_client
                0xc049ba04                v4l2_i2c_attach
                0xc049baa0                v4l2_ctrl_query_menu_valid_items
                0xc049bb0c                v4l2_ctrl_query_menu
                0xc049bbc4                v4l2_ctrl_query_fill
                0xc049bdf4                v4l2_ctrl_query_fill_std
                0xc049c320                v4l2_prio_init
                0xc049e318                v4l_compat_translate_ioctl
                0xc049e550                scsi_device_type
                0xc049e598                __scsi_device_lookup_by_target
                0xc049e5e0                __scsi_device_lookup
                0xc049e640                __starget_for_each_device
                0xc049e6d4                scsi_device_put
                0xc049e71c                scsi_device_get
                0xc049e7dc                scsi_device_lookup
                0xc049e8a4                scsi_device_lookup_by_target
                0xc049e97c                __scsi_iterate_devices
                0xc049ea2c                starget_for_each_device
                0xc049eac0                scsi_adjust_queue_depth
                0xc049ebe4                scsi_track_queue_full
                0xc049ec90                scsi_finish_command
                0xc049ed54                scsi_dispatch_cmd
                0xc049efa0                __scsi_put_command
                0xc049f050                scsi_put_command
                0xc049f170                scsi_destroy_command_freelist
                0xc049f2a8                scsi_free_command
                0xc049f3c4                scsi_setup_command_freelist
                0xc049f44c                scsi_allocate_command
                0xc049f478                __scsi_get_command
                0xc049f530                scsi_get_command
                0xc049f608                scsi_host_set_state
                0xc049f6d8                scsi_is_host_device
                0xc049f700                scsi_flush_work
                0xc049f740                scsi_queue_work
                0xc049f854                scsi_host_put
                0xc049f86c                scsi_unregister
                0xc049f8a8                scsi_exit_hosts
                0xc049f8c4                scsi_init_hosts
                0xc049f8e8                scsi_host_get
                0xc049f920                scsi_host_lookup
                0xc049f97c                scsi_host_alloc
                0xc049fbd0                scsi_register
                0xc049fc34                scsi_add_host
                0xc049fde8                scsi_remove_host
                0xc049ff70                scsi_nonblockable_ioctl
                0xc04a015c                scsi_set_medium_removal
                0xc04a01e4                scsi_ioctl
                0xc04a0568                scsi_sense_key_string
                0xc04a057c                scsi_extd_sense_format
                0xc04a0590                scsi_show_result
                0xc04a05b8                scsi_print_result
                0xc04a0638                scsi_show_sense_hdr
                0xc04a06b0                scsi_print_status
                0xc04a07c4                scsi_print_command
                0xc04a088c                __scsi_print_command
                0xc04a08f4                scsi_show_extd_sense
                0xc04a095c                scsi_cmd_print_sense_hdr
                0xc04a0a64                scsi_print_sense_hdr
                0xc04a0d1c                scsi_print_sense
                0xc04a0e30                __scsi_print_sense
                0xc04a0eac                scsi_partsize
                0xc04a1010                scsi_bios_ptable
                0xc04a1090                scsicam_bios_param
                0xc04a127c                scsi_eh_restore_cmnd
                0xc04a12e8                scsi_eh_finish_cmd
                0xc04a133c                scsi_noretry_cmd
                0xc04a13ec                scsi_report_bus_reset
                0xc04a1444                scsi_report_device_reset
                0xc04a14b8                scsi_sense_desc_find
                0xc04a1548                scsi_get_sense_info_fld
                0xc04a1624                scsi_build_sense_buffer
                0xc04a167c                scsi_normalize_sense
                0xc04a1778                scsi_command_normalize_sense
                0xc04a1c3c                scsi_reset_provider
                0xc04a1e38                scsi_eh_flush_done_q
                0xc04a1ef0                scsi_decide_disposition
                0xc04a20e0                scsi_eh_prep_cmnd
                0xc04a25b0                scsi_eh_ready_devs
                0xc04a2bbc                scsi_eh_get_sense
                0xc04a2cc8                scsi_error_handler
                0xc04a3088                scsi_block_when_processing_errors
                0xc04a315c                scsi_eh_wakeup
                0xc04a3184                scsi_eh_scmd_add
                0xc04a3274                scsi_times_out
                0xc04a32e4                scsi_schedule_eh
                0xc04a3454                scsi_calculate_bounce_limit
                0xc04a349c                scsi_block_requests
                0xc04a34b8                scsi_device_set_state
                0xc04a35a0                scsi_kunmap_atomic_sg
                0xc04a35d8                scsi_kmap_atomic_sg
                0xc04a37e0                scsi_target_resume
                0xc04a3800                scsi_target_quiesce
                0xc04a3820                scsi_target_unblock
                0xc04a3868                scsi_target_block
                0xc04a38b0                scsi_internal_device_unblock
                0xc04a395c                scsi_internal_device_block
                0xc04a3db4                scsi_device_resume
                0xc04a3df4                scsi_device_quiesce
                0xc04a3e50                scsi_prep_state_check
                0xc04a3efc                sdev_evt_alloc
                0xc04a3f38                sdev_evt_send
                0xc04a3fbc                sdev_evt_send_simple
                0xc04a4014                scsi_evt_thread
                0xc04a4160                scsi_exit_queue
                0xc04a41b4                scsi_free_queue
                0xc04a47a0                __scsi_alloc_queue
                0xc04a487c                scsi_alloc_queue
                0xc04a497c                scsi_next_command
                0xc04a4be4                scsi_release_buffers
                0xc04a4c98                scsi_prep_return
                0xc04a4d18                scsi_init_io
                0xc04a4dd4                scsi_setup_fs_cmnd
                0xc04a4e94                scsi_setup_blk_pc_cmnd
                0xc04a4f9c                scsi_prep_fn
                0xc04a4fdc                scsi_io_completion
                0xc04a53cc                scsi_run_host_queues
                0xc04a5408                scsi_unblock_requests
                0xc04a5428                scsi_device_unbusy
                0xc04a5534                scsi_queue_insert
                0xc04a5778                scsi_execute_async
                0xc04a5b00                scsi_execute
                0xc04a5c10                scsi_execute_req
                0xc04a5ccc                scsi_test_unit_ready
                0xc04a5e00                scsi_mode_sense
                0xc04a6058                scsi_mode_select
                0xc04a6200                scsi_dma_unmap
                0xc04a6238                scsi_dma_map
                0xc04a627c                scsi_is_target_device
                0xc04a62a4                scsilun_to_int
                0xc04a62e4                scsi_free_host_dev
                0xc04a6908                scsi_forget_host
                0xc04a69c8                scsi_complete_async_scans
                0xc04a6b28                int_to_scsilun
                0xc04a7484                scsi_rescan_device
                0xc04a7548                scsi_target_reap
                0xc04a7648                scsi_get_host_dev
                0xc04a7ca0                scsi_scan_host_selected
                0xc04a800c                scsi_scan_host
                0xc04a8200                scsi_scan_target
                0xc04a82bc                __scsi_add_device
                0xc04a8394                scsi_add_device
                0xc04a8400                scsi_device_state_name
                0xc04a844c                scsi_host_state_name
                0xc04a84f4                scsi_is_sdev_device
                0xc04a92c8                scsi_sysfs_device_initialize
                0xc04a9404                scsi_sysfs_add_host
                0xc04a947c                scsi_register_interface
                0xc04a949c                scsi_register_driver
                0xc04a94bc                __scsi_remove_device
                0xc04a9534                scsi_remove_device
                0xc04a96bc                scsi_remove_target
                0xc04a973c                scsi_sysfs_add_sdev
                0xc04a9920                scsi_sysfs_unregister
                0xc04a9948                scsi_sysfs_register
                0xc04a9b30                scsi_exit_devinfo
                0xc04a9b6c                scsi_get_device_flags
                0xc04a9ca8                scsi_exit_sysctl
                0xc04a9ee8                sd_read_protection_type
                0xc04aa278                sd_read_app_tag_own
                0xc04ad010                sr_test_unit_ready
                0xc04aded4                sr_get_last_session
                0xc04adf14                sr_reset
                0xc04adf28                sr_drive_status
                0xc04adfe0                sr_lock_door
                0xc04ae004                sr_do_ioctl
                0xc04ae434                sr_disk_status
                0xc04ae4e8                sr_audio_ioctl
                0xc04ae6a0                sr_select_speed
                0xc04ae71c                sr_get_mcn
                0xc04ae7ec                sr_tray_move
                0xc04ae854                sr_is_xa
                0xc04aea20                sr_vendor_init
                0xc04aea38                sr_set_blocklength
                0xc04aeb08                sr_cd_check
                0xc04b20a8                cdrom_media_changed
                0xc04b2794                unregister_cdrom
                0xc04b2844                register_cdrom
                0xc04b2c38                cdrom_mode_select
                0xc04b2ca4                cdrom_mode_sense
                0xc04b2d0c                init_cdrom_command
                0xc04b2ffc                cdrom_release
                0xc04b3348                cdrom_number_of_slots
                0xc04b357c                cdrom_get_media_event
                0xc04b3638                cdrom_open
                0xc04b4638                cdrom_get_last_written
                0xc04b60b4                cdrom_ioctl
                0xc04b70d4                default_mtd_writev
                0xc04b71b4                register_mtd_user
                0xc04b7340                put_mtd_device
                0xc04b73a4                unregister_mtd_user
                0xc04b7428                get_mtd_device_nm
                0xc04b755c                get_mtd_device
                0xc04b76b8                del_mtd_device
                0xc04b7774                add_mtd_device
                0xc04b78cc                kill_mtd_super
                0xc04b7a28                get_sb_mtd
                0xc04b806c                mtd_erase_callback
                0xc04b8530                parse_mtd_partitions
                0xc04b85f4                deregister_mtd_parser
                0xc04b8664                register_mtd_parser
                0xc04b86c8                del_mtd_partitions
                0xc04b8760                add_mtd_partitions
                0xc04b932c                mtd_concat_destroy
                0xc04b935c                mtd_concat_create
                0xc04bb430                deregister_mtd_blktrans
                0xc04bb520                register_mtd_blktrans
                0xc04bb9b4                del_mtd_blktrans_dev
                0xc04bba28                add_mtd_blktrans_dev
                0xc04bc514                map_destroy
                0xc04bc674                do_map_probe
                0xc04bc6e4                unregister_mtd_chip_driver
                0xc04bc750                register_mtd_chip_driver
                0xc04bc848                simple_map_init
                0xc04bd580                nand_wait_ready
                0xc04be358                nand_release
                0xc04be398                nand_scan_tail
                0xc04c0310                nand_scan_ident
                0xc04c0900                nand_scan
                0xc04c0964                nand_erase_nand
                0xc04c0cd8                nand_isbad_bbt
                0xc04c1900                nand_update_bbt
                0xc04c1e98                nand_scan_bbt
                0xc04c231c                nand_default_bbt
                0xc04c23f4                nand_calculate_ecc
                0xc04c2844                nand_correct_data
                0xc04c2a30                ftnandc023v2_read_bbt
                0xc04c2b98                platform_select_pinmux
                0xc04c42d4                platform_check_nandc
                0xc04c4418                spi_sync
                0xc04c4488                spi_write_then_read
                0xc04c45c8                spi_busnum_to_master
                0xc04c4600                spi_unregister_master
                0xc04c4658                spi_alloc_master
                0xc04c46f4                spi_alloc_device
                0xc04c4788                spi_add_device
                0xc04c48e8                spi_new_device
                0xc04c4994                spi_register_master
                0xc04c4aa0                spi_register_driver
                0xc04c5458                usb_ifnum_to_if
                0xc04c54a8                usb_altnum_to_altsetting
                0xc04c5554                usb_disabled
                0xc04c5570                __usb_get_extra_descriptor
                0xc04c562c                usb_buffer_unmap_sg
                0xc04c5684                usb_buffer_map_sg
                0xc04c56e4                usb_buffer_free
                0xc04c5714                usb_buffer_alloc
                0xc04c5744                usb_get_current_frame_number
                0xc04c5758                usb_lock_device_for_reset
                0xc04c5834                usb_put_intf
                0xc04c5854                usb_put_dev
                0xc04c5874                usb_get_intf
                0xc04c5898                usb_get_dev
                0xc04c5960                usb_find_device
                0xc04c59f0                usb_alloc_dev
                0xc04c5bc8                usb_find_interface
                0xc04c60e4                usb_kick_khubd
                0xc04c635c                usb_set_device_state
                0xc04c67c8                usb_hub_cleanup
                0xc04c6d34                usb_hub_init
                0xc04c6de4                usb_ep0_reinit
                0xc04c785c                usb_reset_device
                0xc04c7d54                usb_deauthorize_device
                0xc04c7ee4                usb_authorize_device
                0xc04c8004                usb_new_device
                0xc04c80a0                usb_disconnect
                0xc04c9a38                usb_hub_tt_clear_buffer
                0xc04c9b58                usb_calc_bus_time
                0xc04c9d08                usb_hcd_disable_endpoint
                0xc04c9d30                usb_hcd_get_frame_number
                0xc04c9d64                usb_hcd_platform_shutdown
                0xc04c9d8c                usb_mon_register
                0xc04c9dbc                usb_mon_deregister
                0xc04c9df8                usb_hcd_check_unlink_urb
                0xc04c9ebc                usb_hcd_synchronize_unlinks
                0xc04c9f18                usb_hcd_unlink_urb_from_ep
                0xc04c9f78                usb_hcd_link_urb_to_ep
                0xc04ca18c                usb_remove_hcd
                0xc04ca2b0                usb_put_hcd
                0xc04ca2f0                usb_get_hcd
                0xc04ca314                usb_create_hcd
                0xc04ca3e4                usb_hc_died
                0xc04ca490                usb_hcd_irq
                0xc04ca6b0                usb_hcd_giveback_urb
                0xc04ca8dc                usb_hcd_flush_endpoint
                0xc04caa64                usb_hcd_unlink_urb
                0xc04caba0                usb_hcd_poll_rh_status
                0xc04cad40                usb_add_hcd
                0xc04cb314                usb_hcd_submit_urb
                0xc04cbc34                usb_host_cleanup
                0xc04cbc54                usb_host_init
                0xc04cbc8c                usb_anchor_empty
                0xc04cbcac                usb_unpoison_urb
                0xc04cbd20                usb_wait_anchor_empty_timeout
                0xc04cbdd8                usb_unlink_urb
                0xc04cbe1c                usb_poison_urb
                0xc04cbf3c                usb_kill_urb
                0xc04cc0b4                usb_submit_urb
                0xc04cc2fc                usb_get_urb
                0xc04cc31c                usb_anchor_urb
                0xc04cc3e4                usb_free_urb
                0xc04cc408                usb_unlink_anchored_urbs
                0xc04cc4d8                usb_poison_anchored_urbs
                0xc04cc5c0                usb_kill_anchored_urbs
                0xc04cc69c                usb_unanchor_urb
                0xc04cc7a4                usb_get_from_anchor
                0xc04cc860                usb_scuttle_anchored_urbs
                0xc04cc960                usb_init_urb
                0xc04cc994                usb_alloc_urb
                0xc04cc9d0                usb_enable_endpoint
                0xc04cca94                usb_driver_set_configuration
                0xc04ccb04                usb_disable_endpoint
                0xc04ccb6c                usb_disable_device
                0xc04ccc64                usb_disable_interface
                0xc04cccb0                usb_sg_cancel
                0xc04cd0a8                usb_sg_wait
                0xc04cd26c                usb_sg_init
                0xc04cd5c4                usb_bulk_msg
                0xc04cd6b0                usb_interrupt_msg
                0xc04cd6dc                usb_control_msg
                0xc04cd7e0                usb_reset_configuration
                0xc04cd918                usb_clear_halt
                0xc04cd9ac                usb_set_interface
                0xc04cdb64                usb_get_status
                0xc04cddc0                usb_string
                0xc04cdf44                usb_cache_string
                0xc04cdfd4                usb_set_configuration
                0xc04ce508                usb_get_descriptor
                0xc04ce5e8                usb_get_device_descriptor
                0xc04ce6e0                usb_match_device
                0xc04ce7bc                usb_match_one_id
                0xc04ce86c                usb_match_id
                0xc04cea34                usb_deregister
                0xc04cea6c                usb_deregister_device_driver
                0xc04ceaa4                usb_register_driver
                0xc04ceb60                usb_register_device_driver
                0xc04cedf0                usb_driver_release_interface
                0xc04cee6c                usb_rebind_intf
                0xc04ceee4                usb_forced_unbind_intf
                0xc04cef14                usb_driver_claim_interface
                0xc04cef8c                usb_release_interface_cache
                0xc04cefd8                usb_get_configuration
                0xc04cff20                usb_destroy_configuration
                0xc04cfff8                usb_deregister_dev
                0xc04d00d4                usb_register_dev
                0xc04d029c                usb_major_cleanup
                0xc04d02bc                usb_major_init
                0xc04d04c8                hcd_buffer_free
                0xc04d0554                hcd_buffer_alloc
                0xc04d05ec                hcd_buffer_destroy
                0xc04d0628                hcd_buffer_create
                0xc04d0f78                usb_remove_sysfs_intf_files
                0xc04d0fe4                usb_create_sysfs_intf_files
                0xc04d1094                usb_remove_sysfs_dev_files
                0xc04d11a4                usb_create_sysfs_dev_files
                0xc04d1490                usb_remove_ep_files
                0xc04d1538                usb_create_ep_files
                0xc04d30d4                usb_fs_classdev_common_remove
                0xc04d4908                usb_devio_cleanup
                0xc04d49f8                usb_notify_remove_bus
                0xc04d4a1c                usb_notify_add_bus
                0xc04d4a40                usb_notify_add_device
                0xc04d4a64                usb_notify_remove_device
                0xc04d4aa4                usb_unregister_notify
                0xc04d4ac4                usb_register_notify
                0xc04d4b14                usb_choose_configuration
                0xc04d4d68                usb_detect_quirks
                0xc04d4dec                mon_bus_lookup
                0xc04d5100                mon_reader_del
                0xc04d53a8                mon_reader_add
                0xc04d5564                mon_text_del
                0xc04d5574                mon_text_exit
                0xc04d5584                mon_text_add
                0xc04d649c                mon_bin_exit
                0xc04d6b08                mon_copy_to_buff
                0xc04d7aec                mon_bin_del
                0xc04d7b14                mon_bin_add
                0xc04d7b9c                mon_dmapeek
                0xc04d7bb0                mon_dmapeek_vec
                0xc04d7bc0                usb_get_pmu_fd
                0xc04d7bdc                is_fotg200_init
                0xc04d7bf8                ehci_reset_OTG
                0xc04d7c28                is_init_FOTG2XX_Dev
                0xc04d7c44                fotg200_otgd_init
                0xc04d7c98                OTG_RoleChange
                0xc04d7cb4                OTGC_Init
                0xc04d7d9c                fotg200_init
                0xc04d7e18                init_FOTG2XX_Dev
                0xc04d8010                ehci_reset_PHY
                0xc04d8180                Reset_OTG_Host_Controller
                0xc04d8258                Execute_OTG_Procedure
                0xc04d85bc                OTG_handler
                0xc04d8a2c                fotg200_handle_irq
                0xc04d8d50                ehci_is_ehci_irq
                0xc04d8d98                fotg_ehci_irq_macro
                0xc04d8dc0                fotg2xx_get_device
                0xc04d8df4                AMBA_bus_match
                0xc04dd488                usb_host_unregister
                0xc04dd4cc                usb_host_register
                0xc04dd560                usb_hcd_fotg2xx_remove
                0xc04dd5cc                usb_hcd_fotg2xx_probe
                0xc04df6ac                usb_stor_report_bus_reset
                0xc04df714                usb_stor_report_device_reset
                0xc04df770                usb_stor_access_xfer_buf
                0xc04df8a4                usb_stor_set_xfer_buf
                0xc04df8fc                usb_stor_transparent_scsi_command
                0xc04df910                usb_stor_ufi_command
                0xc04df99c                usb_stor_ATAPI_command
                0xc04df9e0                usb_stor_qic157_command
                0xc04dfa24                usb_stor_port_reset
                0xc04dfbd4                usb_stor_control_msg
                0xc04dfc88                usb_stor_Bulk_max_lun
                0xc04dfcf4                usb_stor_clear_halt
                0xc04dfdfc                usb_stor_bulk_transfer_buf
                0xc04dfe84                usb_stor_ctrl_transfer
                0xc04dff6c                usb_stor_stop_transport
                0xc04dffd8                usb_stor_invoke_transport
                0xc04e03c0                usb_stor_bulk_transfer_sg
                0xc04e0418                usb_stor_bulk_srb
                0xc04e0460                usb_stor_Bulk_transport
                0xc04e0708                usb_stor_CB_transport
                0xc04e0904                usb_stor_CB_reset
                0xc04e0964                usb_stor_Bulk_reset
                0xc04e0994                usb_stor_CBI_transport
                0xc04e1508                fill_inquiry_response
                0xc04e18a8                usb_stor_huawei_e220_init
                0xc04e18f8                usb_stor_euscsi_init
                0xc04e1954                usb_stor_ucr61s2b_init
                0xc04e1b60                sierra_ms_init
                0xc04e21f0                serio_close
                0xc04e2220                serio_open
                0xc04e25b0                serio_unregister_child_port
                0xc04e25f0                serio_unregister_port
                0xc04e2bfc                serio_unregister_driver
                0xc04e2e60                __serio_register_driver
                0xc04e2ef0                serio_reconnect
                0xc04e2f0c                serio_rescan
                0xc04e2f28                serio_interrupt
                0xc04e2fd0                __serio_register_port
                0xc04e3090                ps2_cmd_aborted
                0xc04e30dc                ps2_handle_response
                0xc04e316c                ps2_handle_ack
                0xc04e322c                ps2_init
                0xc04e3268                ps2_drain
                0xc04e33ac                ps2_sendbyte
                0xc04e3548                ps2_is_keyboard_id
                0xc04e3574                ps2_command
                0xc04e3a54                input_get_keycode
                0xc04e3f9c                input_set_keycode
                0xc04e4318                input_flush_device
                0xc04e4674                input_unregister_handle
                0xc04e46e0                input_register_handle
                0xc04e47e4                input_release_device
                0xc04e481c                input_close_device
                0xc04e4894                input_open_device
                0xc04e4940                input_grab_device
                0xc04e4994                input_unregister_handler
                0xc04e4a80                input_register_handler
                0xc04e4b78                input_unregister_device
                0xc04e5558                input_register_device
                0xc04e5d24                input_inject_event
                0xc04e5df0                input_set_capability
                0xc04e5fb4                input_free_device
                0xc04e6170                input_allocate_device
                0xc04e6200                input_event
                0xc04e62b0                input_ff_event
                0xc04e6370                input_ff_destroy
                0xc04e63d8                input_ff_create
                0xc04e66c8                input_ff_erase
                0xc04e6724                input_ff_upload
                0xc04eb1a0                rtc_month_days
                0xc04eb208                rtc_year_days
                0xc04eb278                rtc_time_to_tm
                0xc04eb3dc                rtc_valid_tm
                0xc04eb454                rtc_tm_to_time
                0xc04eb4a8                rtc_device_unregister
                0xc04eb550                rtc_device_register
                0xc04eb720                rtc_irq_set_freq
                0xc04eb810                rtc_irq_set_state
                0xc04eb8d4                rtc_irq_unregister
                0xc04eb94c                rtc_irq_register
                0xc04eba2c                rtc_class_close
                0xc04eba50                rtc_class_open
                0xc04ebb48                rtc_update_irq
                0xc04ebc20                rtc_set_alarm
                0xc04ebc98                rtc_set_time
                0xc04ebd10                rtc_set_mmss
                0xc04ebe04                rtc_read_time
                0xc04ebe80                rtc_read_alarm
                0xc04ec164                rtc_dev_del_device
                0xc04ec188                rtc_dev_add_device
                0xc04ec1d8                rtc_dev_prepare
                0xc04ec9f0                rtc_proc_del_device
                0xc04eca18                rtc_proc_add_device
                0xc04ece88                rtc_sysfs_del_device
                0xc04ecffc                rtc_sysfs_add_device
                0xc04ed158                i2c_verify_client
                0xc04ed4bc                i2c_put_adapter
                0xc04ed4d4                i2c_get_adapter
                0xc04ed5d0                i2c_clients_command
                0xc04ed604                i2c_transfer
                0xc04ed6b4                i2c_smbus_xfer
                0xc04edb78                i2c_smbus_write_i2c_block_data
                0xc04edbd4                i2c_smbus_read_i2c_block_data
                0xc04edc4c                i2c_smbus_write_block_data
                0xc04edca8                i2c_smbus_read_block_data
                0xc04edd10                i2c_smbus_process_call
                0xc04edd64                i2c_smbus_write_word_data
                0xc04eddb0                i2c_smbus_read_word_data
                0xc04eddfc                i2c_smbus_write_byte_data
                0xc04ede48                i2c_smbus_read_byte_data
                0xc04ede94                i2c_smbus_write_byte
                0xc04eded8                i2c_smbus_read_byte
                0xc04ee040                i2c_probe
                0xc04ee20c                i2c_master_recv
                0xc04ee264                i2c_master_send
                0xc04ee2b8                i2c_release_client
                0xc04ee2d8                i2c_use_client
                0xc04ee304                i2c_detach_client
                0xc04ee3b8                i2c_attach_client
                0xc04ee55c                i2c_del_driver
                0xc04ee5ac                i2c_unregister_device
                0xc04ee8d4                i2c_register_driver
                0xc04ee9cc                i2c_del_adapter
                0xc04eeb28                i2c_new_device
                0xc04eebb4                i2c_new_probed_device
                0xc04ef334                i2c_add_numbered_adapter
                0xc04ef3f0                i2c_add_adapter
                0xc04ef48c                i2c_new_dummy
                0xc04f0204                ftiic010_set_clock_speed
                0xc04f0800                mmc_request_done
                0xc04f0898                mmc_set_data_timeout
                0xc04f0988                mmc_align_data_size
                0xc04f09a0                mmc_set_chip_select
                0xc04f09c4                mmc_set_bus_mode
                0xc04f09e8                mmc_set_bus_width
                0xc04f0a0c                mmc_set_timing
                0xc04f0a88                mmc_select_voltage
                0xc04f0adc                mmc_detect_change
                0xc04f0b04                mmc_start_host
                0xc04f0b28                mmc_detach_bus
                0xc04f0c68                mmc_attach_bus
                0xc04f0d3c                mmc_set_clock
                0xc04f0d94                mmc_release_host
                0xc04f0e38                __mmc_claim_host
                0xc04f0f98                mmc_stop_host
                0xc04f10fc                mmc_rescan
                0xc04f1440                mmc_wait_for_req
                0xc04f1558                mmc_wait_for_cmd
                0xc04f16d0                mmc_remove_card
                0xc04f1734                mmc_add_card
                0xc04f18ac                mmc_alloc_card
                0xc04f1950                mmc_unregister_driver
                0xc04f1970                mmc_register_driver
                0xc04f1990                mmc_unregister_bus
                0xc04f19ac                mmc_register_bus
                0xc04f19c8                mmc_free_host
                0xc04f1a28                mmc_remove_host
                0xc04f1a48                mmc_add_host
                0xc04f1abc                mmc_alloc_host
                0xc04f1bf8                mmc_unregister_host_class
                0xc04f1c14                mmc_register_host_class
                0xc04f1e98                mmc_attach_mmc
                0xc04f25c4                mmc_send_status
                0xc04f2658                mmc_switch
                0xc04f26dc                mmc_spi_set_crc
                0xc04f2748                mmc_spi_read_ocr
                0xc04f2834                mmc_set_relative_addr
                0xc04f28a0                mmc_all_send_cid
                0xc04f2990                mmc_deselect_cards
                0xc04f29a8                mmc_select_card
                0xc04f2acc                mmc_send_ext_csd
                0xc04f2afc                mmc_send_cid
                0xc04f2b94                mmc_send_csd
                0xc04f2c20                mmc_send_op_cond
                0xc04f2cfc                mmc_go_idle
                0xc04f302c                mmc_attach_sd
                0xc04f380c                mmc_sd_switch
                0xc04f39b0                mmc_app_send_scr
                0xc04f3ae8                mmc_wait_for_app_cmd
                0xc04f3bb4                mmc_app_set_bus_width
                0xc04f3c34                mmc_send_relative_addr
                0xc04f3cac                mmc_send_if_cond
                0xc04f3d30                mmc_send_app_op_cond
                0xc04f3e8c                mmc_attach_sdio
                0xc04f4498                mmc_io_rw_extended
                0xc04f4660                mmc_io_rw_direct
                0xc04f4768                mmc_send_io_op_cond
                0xc04f48ec                sdio_remove_func
                0xc04f491c                sdio_add_func
                0xc04f4b6c                sdio_alloc_func
                0xc04f4c08                sdio_unregister_driver
                0xc04f4c2c                sdio_register_driver
                0xc04f4c58                sdio_unregister_bus
                0xc04f4c74                sdio_register_bus
                0xc04f4cd8                sdio_free_common_cis
                0xc04f4d0c                sdio_free_func_cis
                0xc04f5114                sdio_read_func_cis
                0xc04f517c                sdio_read_common_cis
                0xc04f529c                sdio_f0_writeb
                0xc04f5308                sdio_f0_readb
                0xc04f5378                sdio_writeb
                0xc04f53c8                sdio_readb
                0xc04f5438                sdio_set_block_size
                0xc04f54f4                sdio_disable_func
                0xc04f570c                sdio_writesb
                0xc04f5738                sdio_readsb
                0xc04f5764                sdio_memcpy_toio
                0xc04f5794                sdio_writel
                0xc04f57c4                sdio_writew
                0xc04f57f8                sdio_memcpy_fromio
                0xc04f5820                sdio_readl
                0xc04f586c                sdio_readw
                0xc04f58bc                sdio_align_size
                0xc04f5a4c                sdio_enable_func
                0xc04f5b44                sdio_release_host
                0xc04f5b78                sdio_claim_host
                0xc04f5bb0                sdio_release_irq
                0xc04f5cb0                sdio_claim_irq
                0xc04f6a30                mmc_queue_bounce_post
                0xc04f6a88                mmc_queue_bounce_pre
                0xc04f6ae0                mmc_queue_map_sg
                0xc04f6b80                mmc_queue_resume
                0xc04f6c08                mmc_queue_suspend
                0xc04f6c90                mmc_cleanup_queue
                0xc04f6d58                mmc_init_queue
                0xc04f7470                hid_set_field
                0xc04f76d0                hid_unregister_driver
                0xc04f76e8                __hid_register_driver
                0xc04f771c                hid_destroy_device
                0xc04f7aac                hid_allocate_device
                0xc04f7c14                hid_output_report
                0xc04f8058                hid_add_device
                0xc04f8240                hid_connect
                0xc04f8c94                hid_report_raw_event
                0xc04f9190                hid_input_report
                0xc04f9284                hid_parse_report
                0xc04f95dc                hidinput_find_field
                0xc04f96b0                hidinput_disconnect
                0xc04f9718                hidinput_connect
                0xc04fcbe8                hidinput_report_event
                0xc04fcc2c                hidinput_hid_event
                0xc04fcf90                hid_compat_a4tech
                0xc04fd2dc                hid_compat_apple
                0xc04fda24                hid_compat_belkin
                0xc04fdb54                hid_compat_bright
                0xc04fddac                hid_compat_cherry
                0xc04fe1f0                hid_compat_chicony
                0xc04fe320                hid_compat_cypress
                0xc04fe4dc                hid_compat_dell
                0xc04fe6d0                hid_compat_ezkey
                0xc04fea10                hid_compat_gyration
                0xc04ff924                hid_compat_logitech
                0xc04fff4c                hid_compat_microsoft
                0xc05003b4                hid_compat_monterey
                0xc050046c                hid_compat_pantherlord
                0xc05007fc                hid_compat_petalynx
                0xc05009bc                hid_compat_samsung
                0xc0500b90                hid_compat_sony
                0xc0500f70                hid_compat_sunplus
                0xc0501350                usbhid_close
                0xc050241c                usbhid_open
                0xc05025bc                usbhid_wait_io
                0xc05026a8                usbhid_submit_report
                0xc0502b2c                usbhid_set_leds
                0xc0502bdc                usbhid_init_reports
                0xc050322c                usbhid_lookup_quirk
                0xc0503308                usbhid_quirks_exit
                0xc0503388                usbhid_quirks_init
 .text          0xc05034ec    0x1ca90 sound/built-in.o
                0xc0503938                unregister_sound_dsp
                0xc0503958                unregister_sound_midi
                0xc0503978                unregister_sound_mixer
                0xc0503998                unregister_sound_special
                0xc0503b60                register_sound_dsp
                0xc0503bb4                register_sound_midi
                0xc0503c08                register_sound_mixer
                0xc0503c5c                register_sound_special_device
                0xc0503de0                register_sound_special
                0xc0503ef4                snd_lookup_minor_data
                0xc0503f5c                snd_add_device_sysfs_file
                0xc050401c                snd_unregister_device
                0xc05040f4                snd_register_device_for_dev
                0xc0504278                snd_request_card
                0xc050466c                snd_card_file_remove
                0xc05047d4                snd_card_file_add
                0xc0504898                snd_component_add
                0xc0504a08                snd_card_info_read_oss
                0xc0504a84                snd_card_locked
                0xc0504ac8                snd_card_register
                0xc0504da0                snd_card_disconnect
                0xc0504fd4                snd_card_free
                0xc050508c                snd_card_free_when_closed
                0xc0505210                snd_card_new
                0xc0505430                copy_from_user_toio
                0xc05054e4                copy_to_user_fromio
                0xc05056cc                snd_info_get_line
                0xc05057a4                snd_info_get_str
                0xc0506068                snd_info_register
                0xc05061ec                snd_info_free_entry
                0xc050626c                snd_info_card_free
                0xc0506298                snd_info_card_disconnect
                0xc05063a4                snd_info_create_card_entry
                0xc05063d8                snd_card_proc_new
                0xc0506448                snd_info_create_module_entry
                0xc0506474                snd_info_card_register
                0xc05064d0                snd_info_card_create
                0xc0506548                snd_iprintf
                0xc050663c                snd_info_check_reserved_words
                0xc0506694                snd_ctl_find_numid
                0xc0506760                snd_ctl_boolean_mono_info
                0xc0506788                snd_ctl_boolean_stereo_info
                0xc05067b4                snd_ctl_create
                0xc050697c                snd_ctl_unregister_ioctl
                0xc0506a14                snd_ctl_free_one
                0xc0506d14                snd_ctl_register_ioctl
                0xc0506e04                snd_ctl_notify
                0xc05071bc                snd_ctl_remove
                0xc0507780                snd_ctl_find_id
                0xc0507a20                snd_ctl_rename_id
                0xc0507abc                snd_ctl_remove_id
                0xc0507b1c                snd_ctl_add
                0xc0508b64                snd_ctl_new1
                0xc0508c50                release_and_free_resource
                0xc0508c74                snd_device_register
                0xc0508cf0                snd_device_register_all
                0xc0508d58                snd_device_disconnect
                0xc0508de4                snd_device_disconnect_all
                0xc0508e34                snd_device_free
                0xc0508f08                snd_device_free_all
                0xc0508f78                snd_device_new
                0xc05090b8                snd_lookup_oss_minor_data
                0xc0509120                snd_unregister_oss_device
                0xc05092ac                snd_register_oss_device
                0xc05094b8                snd_info_minor_unregister
                0xc05094e0                snd_info_minor_register
                0xc0509724                snd_oss_info_register
                0xc0509864                snd_timer_resolution
                0xc0509be0                snd_timer_global_free
                0xc0509d68                snd_timer_global_register
                0xc0509da0                snd_timer_notify
                0xc050a7ac                snd_timer_pause
                0xc050a7c8                snd_timer_stop
                0xc050a854                snd_timer_continue
                0xc050a920                snd_timer_start
                0xc050af34                snd_timer_new
                0xc050b064                snd_timer_global_new
                0xc050b0b4                snd_timer_interrupt
                0xc050b464                snd_timer_close
                0xc050b944                snd_timer_open
                0xc050cc30                snd_pcm_notify
                0xc050cf1c                snd_pcm_detach_substream
                0xc050cf88                snd_pcm_attach_substream
                0xc050d5fc                snd_pcm_new_stream
                0xc050d830                snd_pcm_new
                0xc050dbb0                snd_pcm_drain_done
                0xc050de24                snd_pcm_mmap_data
                0xc050e420                snd_pcm_stop
                0xc050e444                snd_pcm_start
                0xc050ea3c                snd_pcm_status
                0xc050f120                snd_pcm_release_substream
                0xc050f224                snd_pcm_hw_constraints_complete
                0xc050f54c                snd_pcm_hw_constraints_init
                0xc050fab0                snd_pcm_open_substream
                0xc0510094                snd_pcm_hw_refine
                0xc05108b0                snd_pcm_info
                0xc0510990                snd_pcm_info_user
                0xc051286c                snd_pcm_kernel_ioctl
                0xc051291c                snd_pcm_set_ops
                0xc051294c                snd_pcm_set_sync
                0xc0512980                snd_interval_refine
                0xc0512af8                snd_interval_mul
                0xc0512c18                snd_interval_div
                0xc0512d5c                snd_interval_muldivk
                0xc05130b8                snd_interval_mulkdiv
                0xc0513430                snd_interval_ratnum
                0xc05136ec                snd_interval_list
                0xc0513818                snd_pcm_hw_constraint_integer
                0xc051387c                snd_pcm_hw_constraint_minmax
                0xc0514188                snd_pcm_playback_silence
                0xc0514688                _snd_pcm_hw_param_setempty
                0xc0514708                snd_pcm_hw_constraint_mask64
                0xc0514764                snd_pcm_hw_constraint_mask
                0xc05147d0                snd_pcm_period_elapsed
                0xc0514a98                snd_pcm_update_hw_ptr
                0xc0514fa0                snd_pcm_lib_readv
                0xc0515000                snd_pcm_lib_read
                0xc05153cc                snd_pcm_lib_writev
                0xc0515434                snd_pcm_lib_write
                0xc05154a4                snd_pcm_lib_ioctl
                0xc051565c                snd_pcm_hw_param_value
                0xc0515770                snd_pcm_hw_param_last
                0xc0515948                snd_pcm_hw_param_first
                0xc0515af8                snd_pcm_hw_params_choose
                0xc0515c20                _snd_pcm_hw_params_any
                0xc0515c84                snd_pcm_hw_rule_add
                0xc0515d68                snd_pcm_hw_constraint_pow2
                0xc0515d9c                snd_pcm_hw_constraint_step
                0xc0515dcc                snd_pcm_hw_constraint_msbits
                0xc0515e0c                snd_pcm_hw_constraint_ratdens
                0xc0515e3c                snd_pcm_hw_constraint_ratnums
                0xc0515e6c                snd_pcm_hw_constraint_list
                0xc0515ed8                snd_pcm_timer_done
                0xc0515f0c                snd_pcm_timer_init
                0xc0516120                snd_pcm_timer_resolution_change
                0xc0516248                snd_pcm_format_signed
                0xc0516280                snd_pcm_format_unsigned
                0xc05162c4                snd_pcm_format_linear
                0xc0516304                snd_pcm_format_little_endian
                0xc051633c                snd_pcm_format_big_endian
                0xc0516380                snd_pcm_format_width
                0xc05163b8                snd_pcm_format_physical_width
                0xc05163f0                snd_pcm_format_size
                0xc0516430                snd_pcm_format_silence_64
                0xc051646c                snd_pcm_limit_hw_rates
                0xc05164f8                snd_pcm_rate_to_rate_bit
                0xc0516544                snd_pcm_format_set_silence
                0xc051667c                snd_pcm_sgbuf_ops_page
                0xc05166b0                snd_pcm_sgbuf_get_chunk_size
                0xc0516720                snd_pcm_lib_free_pages
                0xc051677c                snd_pcm_lib_malloc_pages
                0xc0516860                snd_pcm_lib_preallocate_pages
                0xc0516934                snd_pcm_lib_preallocate_pages_for_all
                0xc05169a8                snd_pcm_lib_preallocate_free
                0xc05169f0                snd_pcm_lib_preallocate_free_for_all
                0xc0516b2c                snd_dma_reserve_buf
                0xc0516bd8                snd_dma_get_reserved_buf
                0xc0516cec                snd_free_pages
                0xc0516d38                snd_dma_free_pages
                0xc0516de4                snd_malloc_pages
                0xc0516e78                snd_dma_alloc_pages
                0xc0516f94                snd_dma_alloc_pages_fallback
                0xc0517020                snd_free_sgbuf_pages
                0xc0517114                snd_malloc_sgbuf_pages
                0xc0517dc8                snd_mixer_oss_ioctl_card
                0xc051969c                snd_pcm_plugin_append
                0xc0519b80                snd_pcm_oss_writev3
                0xc0519c60                snd_pcm_oss_write3
                0xc051ab9c                snd_pcm_oss_readv3
                0xc051ac90                snd_pcm_oss_read3
                0xc051da78                snd_pcm_plugin_client_channels
                0xc051da94                snd_pcm_plug_client_size
                0xc051db40                snd_pcm_plug_slave_size
                0xc051dbf0                snd_pcm_plug_write_transfer
                0xc051dcdc                snd_pcm_plug_read_transfer
                0xc051dd88                snd_pcm_plug_client_channels_buf
                0xc051de50                snd_pcm_area_silence
                0xc051df7c                snd_pcm_area_copy
                0xc051e128                snd_pcm_plug_slave_format
                0xc051e30c                snd_pcm_plugin_free
                0xc051e350                snd_pcm_plug_format_plugins
                0xc051e860                snd_pcm_plugin_build
                0xc051eac4                snd_pcm_plug_alloc
                0xc051eb80                snd_pcm_plugin_build_io
                0xc051ee3c                snd_pcm_plugin_build_copy
                0xc051ef64                snd_pcm_plugin_build_linear
                0xc051f284                snd_pcm_plugin_build_mulaw
                0xc051f6f4                snd_pcm_plugin_build_route
                0xc051fa84                snd_pcm_plugin_build_rate
 .text          0xc051ff7c    0x88088 net/built-in.o
                0xc052004c                kernel_bind
                0xc0520068                kernel_listen
                0xc0520084                kernel_connect
                0xc05200a0                kernel_getsockname
                0xc05200c0                kernel_getpeername
                0xc05200e0                kernel_sock_ioctl
                0xc052015c                kernel_sock_shutdown
                0xc052046c                kernel_sendpage
                0xc05204ac                kernel_setsockopt
                0xc0520550                kernel_getsockopt
                0xc0520630                socket_seq_show
                0xc052065c                sock_unregister
                0xc05206e0                sock_register
                0xc052078c                move_addr_to_kernel
                0xc0520bc8                dlci_ioctl_set
                0xc0520c00                vlan_ioctl_set
                0xc0520c38                brioctl_set
                0xc0520ce0                sys_shutdown
                0xc0520d44                sys_getsockopt
                0xc0520de0                sys_setsockopt
                0xc0520e88                sys_connect
                0xc0520f20                sys_listen
                0xc0520f94                sys_bind
                0xc05210b8                sock_create_lite
                0xc0521208                sock_map_fd
                0xc05212a8                sock_wake_async
                0xc0521344                sock_recvmsg
                0xc0521420                kernel_recvmsg
                0xc0521498                sock_sendmsg
                0xc0521568                sys_sendmsg
                0xc052177c                sys_sendto
                0xc0521854                sys_send
                0xc052187c                kernel_sendmsg
                0xc05218f4                __sock_recv_timestamp
                0xc05219c0                sock_release
                0xc0521d70                sock_create_kern
                0xc0521db4                sock_create
                0xc0521e08                sys_socketpair
                0xc0521fc0                sys_socket
                0xc0522030                kernel_accept
                0xc052212c                sockfd_lookup
                0xc052218c                move_addr_to_user
                0xc0522224                sys_recvmsg
                0xc05223f4                sys_recvfrom
                0xc05224d8                sys_recv
                0xc0522500                sys_getpeername
                0xc0522594                sys_getsockname
                0xc0522624                sys_accept4
                0xc0522824                sys_accept
                0xc052283c                __sk_mem_schedule
                0xc0522a14                __sk_mem_reclaim
                0xc0522a94                sock_no_bind
                0xc0522aa8                sock_no_connect
                0xc0522abc                sock_no_socketpair
                0xc0522ad0                sock_no_accept
                0xc0522ae4                sock_no_getname
                0xc0522af8                sock_no_poll
                0xc0522b0c                sock_no_ioctl
                0xc0522b20                sock_no_listen
                0xc0522b34                sock_no_shutdown
                0xc0522b48                sock_no_setsockopt
                0xc0522b5c                sock_no_getsockopt
                0xc0522b70                sock_no_sendmsg
                0xc0522b84                sock_no_recvmsg
                0xc0522b98                sock_no_mmap
                0xc0522bac                sock_common_getsockopt
                0xc0522be0                sock_common_recvmsg
                0xc0522c38                sock_common_setsockopt
                0xc0522c6c                sock_prot_inuse_add
                0xc0522c94                sock_prot_inuse_get
                0xc0523080                sock_i_ino
                0xc05230e4                sock_i_uid
                0xc0523198                sock_kfree_s
                0xc05231d4                proto_unregister
                0xc05232e8                sock_kmalloc
                0xc0523378                proto_register
                0xc05235c8                sock_enable_timestamp
                0xc05235f4                sock_get_timestampns
                0xc05236b8                sock_get_timestamp
                0xc0523804                release_sock
                0xc05238e8                lock_sock_nested
                0xc05239e8                sock_init_data
                0xc0523d20                sk_stop_timer
                0xc0523d6c                sk_reset_timer
                0xc0523db0                sk_send_sigurg
                0xc0523e14                sock_no_sendpage
                0xc0523ea8                sk_wait_data
                0xc0523fa4                sock_rmalloc
                0xc052403c                sock_wmalloc
                0xc05240d4                sock_rfree
                0xc0524144                sk_setup_caps
                0xc05241c0                sk_dst_check
                0xc05242c0                __sk_dst_check
                0xc0524408                sk_alloc
                0xc0524458                sk_free
                0xc0524550                sk_common_release
                0xc052462c                sock_wfree
                0xc05246a4                sk_release_kernel
                0xc0524718                sk_clone
                0xc052494c                sock_getsockopt
                0xc0524e74                sock_setsockopt
                0xc05254c0                sk_receive_skb
                0xc05255cc                sock_queue_rcv_skb
                0xc05256c8                sock_alloc_send_skb
                0xc0525928                __reqsk_queue_destroy
                0xc052595c                reqsk_queue_destroy
                0xc0525a50                reqsk_queue_alloc
                0xc0525b8c                skb_add_rx_frag
                0xc0525be8                skb_prepare_seq_read
                0xc0525c14                skb_find_text
                0xc0525cb0                __skb_warn_lro_forwarding
                0xc0525ce0                skb_under_panic
                0xc0525d50                skb_over_panic
                0xc0525dc0                skb_partial_csum_set
                0xc0525e4c                skb_pull
                0xc0525e9c                skb_trim
                0xc05260ec                skb_to_sgvec
                0xc0526668                skb_pull_rcsum
                0xc05266ec                skb_append_datato_frags
                0xc0526880                __netdev_alloc_page
                0xc05268a8                skb_abort_seq_read
                0xc0526904                skb_seq_read
                0xc0526b18                skb_checksum
                0xc0526d9c                skb_store_bits
                0xc0526fc8                skb_copy_bits
                0xc05271fc                skb_insert
                0xc0527278                skb_append
                0xc05272f8                skb_unlink
                0xc0527380                skb_queue_tail
                0xc05273fc                skb_queue_head
                0xc052747c                skb_dequeue_tail
                0xc0527520                skb_dequeue
                0xc05275c4                skb_copy_and_csum_bits
                0xc0527874                skb_copy_and_csum_dev
                0xc0527944                skb_push
                0xc0527988                skb_put
                0xc05279e0                skb_split
                0xc0527be0                skb_clone
                0xc0527d00                skb_recycle_check
                0xc0527dcc                __kfree_skb
                0xc0527e8c                kfree_skb
                0xc0527edc                skb_queue_purge
                0xc0527f08                skb_splice_bits
                0xc052813c                pskb_expand_head
                0xc05282d8                skb_morph
                0xc0528308                __pskb_pull_tail
                0xc05285b0                ___pskb_trim
                0xc05287e0                skb_pad
                0xc05288f4                __alloc_skb
                0xc05289e0                skb_segment
                0xc0528cfc                skb_copy_expand
                0xc0528dc8                pskb_copy
                0xc0528f40                skb_realloc_headroom
                0xc0528fb4                skb_copy
                0xc0529054                skb_cow_data
                0xc0529314                dev_alloc_skb
                0xc0529358                __netdev_alloc_skb
                0xc05293a4                skb_truesize_bug
                0xc05293f8                memcpy_fromiovecend
                0xc05294c4                memcpy_fromiovec
                0xc052958c                csum_partial_copy_fromiovecend
                0xc052980c                memcpy_toiovec
                0xc05298c4                verify_iovec
                0xc05299ac                datagram_poll
                0xc0529dd8                __skb_checksum_complete_head
                0xc0529e38                __skb_checksum_complete
                0xc0529e50                skb_copy_datagram_from_iovec
                0xc052a020                skb_copy_datagram_iovec
                0xc052a1f0                skb_copy_and_csum_datagram_iovec
                0xc052a2f8                skb_kill_datagram
                0xc052a3e0                skb_free_datagram
                0xc052a420                __skb_recv_datagram
                0xc052a698                skb_recv_datagram
                0xc052a6c8                sk_stream_kill_queues
                0xc052a7e8                sk_stream_error
                0xc052a858                sk_stream_wait_memory
                0xc052aa7c                sk_stream_wait_close
                0xc052ab60                sk_stream_wait_connect
                0xc052acd8                sk_stream_write_space
                0xc052ad7c                scm_fp_dup
                0xc052ae04                put_cmsg
                0xc052af1c                __scm_destroy
                0xc052b01c                scm_detach_fds
                0xc052b188                __scm_send
                0xc052b438                gnet_stats_finish_copy
                0xc052b4f8                gnet_stats_copy_app
                0xc052b564                gnet_stats_copy_queue
                0xc052b5f0                gnet_stats_copy_rate_est
                0xc052b668                gnet_stats_copy_basic
                0xc052b6e0                gnet_stats_start_copy_compat
                0xc052b79c                gnet_stats_start_copy
                0xc052b7c8                gen_kill_estimator
                0xc052b8e8                gen_new_estimator
                0xc052ba48                gen_replace_estimator
                0xc052bc24                copy_net_ns
                0xc052bc94                unregister_pernet_device
                0xc052bcd8                register_pernet_device
                0xc052bd2c                unregister_pernet_subsys
                0xc052bd60                register_pernet_subsys
                0xc052bdb8                net_assign_generic
                0xc052be6c                unregister_pernet_gen_device
                0xc052bec4                unregister_pernet_gen_subsys
                0xc052bf0c                register_pernet_gen_device
                0xc052bfa8                register_pernet_gen_subsys
                0xc052c030                skb_dma_unmap
                0xc052c040                skb_dma_map
                0xc052c150                __dev_get_by_index
                0xc052c190                net_enable_timestamp
                0xc052c1c4                net_disable_timestamp
                0xc052c1f8                netif_device_detach
                0xc052c258                __napi_schedule
                0xc052c2ac                register_gifconf
                0xc052c2dc                dev_seq_start
                0xc052c36c                dev_seq_next
                0xc052c5d8                dev_get_flags
                0xc052c678                netdev_increment_features
                0xc052c700                netdev_fix_features
                0xc052cc5c                dev_seq_stop
                0xc052cc94                netif_nit_deliver
                0xc052cd88                dev_get_by_flags
                0xc052ce38                dev_get_by_index
                0xc052d08c                dev_disable_lro
                0xc052d248                __netif_schedule
                0xc052d2ac                dev_kfree_skb_irq
                0xc052d310                netdev_drivername
                0xc052d450                __dev_set_rx_mode
                0xc052d4e4                __dev_getfirstbyhwtype
                0xc052d55c                dev_getfirstbyhwtype
                0xc052d5b0                dev_change_net_namespace
                0xc052d60c                dev_set_rx_mode
                0xc052d654                dev_set_allmulti
                0xc052d718                dev_set_promiscuity
                0xc052d758                __dev_remove_pack
                0xc052d820                dev_add_pack
                0xc052d8c4                __dev_get_by_name
                0xc052d958                dev_get_by_name
                0xc052d9d4                synchronize_net
                0xc052d9e8                dev_remove_pack
                0xc052da00                free_netdev
                0xc052daac                dev_kfree_skb_any
                0xc052daf4                netdev_set_master
                0xc052dbc0                __dev_addr_add
                0xc052dcb4                dev_unicast_add
                0xc052dd6c                __dev_addr_delete
                0xc052de20                __dev_addr_unsync
                0xc052dea8                dev_unicast_unsync
                0xc052df3c                __dev_addr_sync
                0xc052e010                dev_unicast_sync
                0xc052e088                dev_unicast_delete
                0xc052e13c                dev_getbyhwaddr
                0xc052e1d4                netif_receive_skb
                0xc052e5c8                netif_rx
                0xc052e72c                netif_rx_ni
                0xc052e7a0                netdev_rx_csum_fault
                0xc052e7e0                skb_gso_segment
                0xc052e9e8                dev_hard_start_xmit
                0xc052ec7c                skb_checksum_help
                0xc052edac                dev_queue_xmit
                0xc052f2d8                netif_device_attach
                0xc052f354                call_netdevice_notifiers
                0xc052f378                netdev_run_todo
                0xc052f5d8                dev_set_mac_address
                0xc052f63c                dev_set_mtu
                0xc052f6bc                dev_change_flags
                0xc052f828                netdev_bonding_change
                0xc052f844                netdev_state_change
                0xc052f880                netdev_features_change
                0xc052f89c                unregister_netdevice_notifier
                0xc052f8d0                register_netdevice_notifier
                0xc052fa64                dev_close
                0xc052fd2c                unregister_netdevice
                0xc052fd98                unregister_netdev
                0xc052fdbc                dev_open
                0xc052febc                dev_load
                0xc052ff34                dev_set_alias
                0xc052ffdc                dev_valid_name
                0xc0530070                netdev_boot_setup_check
                0xc05300ec                netdev_boot_base
                0xc0530170                dev_alloc_name
                0xc05302f0                dev_change_name
                0xc0530800                dev_ioctl
                0xc0530f68                alloc_netdev_mq
                0xc05310a4                register_netdevice
                0xc0531498                register_netdev
                0xc05314ec                ethtool_op_get_link
                0xc053150c                ethtool_op_get_tx_csum
                0xc053152c                ethtool_op_set_tx_csum
                0xc0531554                ethtool_op_set_tx_hw_csum
                0xc053157c                ethtool_op_set_tx_ipv6_csum
                0xc05315a4                ethtool_op_get_sg
                0xc05315bc                ethtool_op_set_sg
                0xc05315e4                ethtool_op_get_tso
                0xc05315fc                ethtool_op_set_tso
                0xc0531624                ethtool_op_get_ufo
                0xc0531640                ethtool_op_set_ufo
                0xc0531668                ethtool_op_get_flags
                0xc0531680                ethtool_op_set_flags
                0xc053181c                dev_ethtool
                0xc0532fa4                dev_mc_unsync
                0xc0533038                dev_mc_sync
                0xc05330b0                dev_mc_add
                0xc053313c                dev_mc_delete
                0xc0533460                dst_release
                0xc05334b4                dst_destroy
                0xc05337dc                __dst_free
                0xc05338c4                dst_alloc
                0xc053396c                dst_discard
                0xc0533984                call_netevent_notifiers
                0xc05339a8                unregister_netevent_notifier
                0xc05339c8                register_netevent_notifier
                0xc0533c40                neigh_seq_start
                0xc0533df8                neigh_seq_stop
                0xc0533e24                neigh_for_each
                0xc0533eb4                neigh_seq_next
                0xc05349e4                neigh_sysctl_unregister
                0xc0534a60                neigh_sysctl_register
                0xc0534df8                neigh_connected_output
                0xc05350f8                __neigh_event_send
                0xc05352fc                neigh_resolve_output
                0xc05355f4                neigh_parms_release
                0xc05356ec                neigh_rand_reach_time
                0xc0535718                neigh_table_init_no_netlink
                0xc05358c0                neigh_table_init
                0xc0535970                neigh_parms_alloc
                0xc0535a88                pneigh_enqueue
                0xc0535bb4                neigh_compat_output
                0xc0535c7c                pneigh_delete
                0xc0535da4                __pneigh_lookup
                0xc0535e20                neigh_lookup_nodev
                0xc0535f68                neigh_lookup
                0xc05360c0                neigh_destroy
                0xc05362f4                pneigh_lookup
                0xc05365fc                __neigh_for_each_release
                0xc05368d4                neigh_create
                0xc0536f90                neigh_ifdown
                0xc053708c                neigh_table_clear
                0xc053719c                neigh_changeaddr
                0xc0537218                neigh_update
                0xc0537834                neigh_event_ns
                0xc053859c                rtnl_is_locked
                0xc05385c0                __rtnl_link_register
                0xc053860c                __rtnl_link_unregister
                0xc05388c0                rtnl_unregister_all
                0xc0538900                rtnl_unregister
                0xc0538958                __rtnl_register
                0xc05389e0                rtnl_register
                0xc0538f44                __rta_fill
                0xc0538f9c                rtnetlink_put_metrics
                0xc0539614                rtnl_create_link
                0xc0539704                rtnl_put_cacheinfo
                0xc05397b0                rtnl_set_sk_err
                0xc05397d4                rtnl_notify
                0xc053981c                rtmsg_ifinfo
                0xc05399c4                rtnl_unicast
                0xc0539b7c                rtnetlink_send
                0xc0539c04                rtnl_trylock
                0xc0539c20                rtnl_unlock
                0xc0539c34                __rtnl_unlock
                0xc0539c50                rtnl_lock
                0xc053a314                rtnl_link_unregister
                0xc053a338                rtnl_kill_links
                0xc053a398                rtnl_link_register
                0xc053a3ec                inet_proto_csum_replace4
                0xc053a4b8                in4_pton
                0xc053a624                in6_pton
                0xc053a930                in_aton
                0xc053a9b4                net_ratelimit
                0xc053ab1c                linkwatch_fire_event
                0xc053ae6c                linkwatch_run_queue
                0xc053ae84                sk_chk_filter
                0xc053b0dc                sk_detach_filter
                0xc053b18c                sk_attach_filter
                0xc053b310                sk_run_filter
                0xc053baa8                sk_filter
                0xc053bc4c                flow_cache_flush
                0xc053bdb4                flow_cache_lookup
                0xc053c150                netdev_kobject_init
                0xc053c854                netdev_initialize_kobject
                0xc053c86c                netdev_class_remove_file
                0xc053c88c                netdev_class_create_file
                0xc053c8ac                netdev_register_kobject
                0xc053cbe0                netdev_unregister_kobject
                0xc053cd00                print_mac
                0xc053cd28                sysfs_format_mac
                0xc053cd68                alloc_etherdev_mq
                0xc053cd90                ether_setup
                0xc053ce88                eth_header_cache_update
                0xc053cea8                eth_header_cache
                0xc053cf10                eth_header_parse
                0xc053cf3c                eth_type_trans
                0xc053d044                eth_rebuild_header
                0xc053d0a4                eth_header
                0xc053d230                qdisc_reset
                0xc053d518                __netdev_watchdog_up
                0xc053d8b0                dev_deactivate
                0xc053db40                qdisc_destroy
                0xc053dc70                dev_shutdown
                0xc053dce0                qdisc_alloc
                0xc053dd98                qdisc_create_dflt
                0xc053de54                netif_carrier_off
                0xc053de98                netif_carrier_on
                0xc053def4                __qdisc_run
                0xc053e174                dev_activate
                0xc053e2bc                dev_init_scheduler
                0xc053e4f8                netlink_getsockbyfilp
                0xc053e730                netlink_set_nonroot
                0xc053ea34                netlink_set_err
                0xc053eb28                netlink_has_listeners
                0xc053f4a8                netlink_clear_multicast_users
                0xc053f928                netlink_detachskb
                0xc053f970                netlink_sendskb
                0xc053fa7c                netlink_dump_start
                0xc0540290                netlink_unregister_notifier
                0xc05402b0                netlink_register_notifier
                0xc05402d0                netlink_change_ngroups
                0xc0540384                netlink_kernel_release
                0xc0540398                netlink_kernel_create
                0xc054051c                netlink_broadcast
                0xc054091c                netlink_attachskb
                0xc0540b2c                netlink_unicast
                0xc05410b8                nlmsg_notify
                0xc0541150                netlink_ack
                0xc0541300                netlink_rcv_skb
                0xc05413b8                nla_find
                0xc0541410                nla_append
                0xc0541468                nla_memcpy
                0xc0541498                __nla_reserve_nohdr
                0xc05414d0                __nla_put_nohdr
                0xc05414f8                nla_put_nohdr
                0xc054153c                nla_reserve_nohdr
                0xc054157c                __nla_reserve
                0xc05415cc                __nla_put
                0xc05415f8                nla_put
                0xc054163c                nla_reserve
                0xc054167c                nla_strlcpy
                0xc05416e4                nla_strcmp
                0xc0541724                nla_memcmp
                0xc05418d4                nla_parse
                0xc0541998                nla_validate
                0xc05425cc                genl_unregister_mc_group
                0xc0542608                genl_unregister_family
                0xc0542720                genl_unregister_ops
                0xc05427bc                genl_register_ops
                0xc05428a4                genl_register_family
                0xc0542a78                genl_register_mc_group
                0xc0542bd0                nf_iterate
                0xc0542c80                skb_make_writable
                0xc0542d30                nf_hook_slow
                0xc0542e54                nf_unregister_hook
                0xc0542ea0                nf_unregister_hooks
                0xc0542ed8                nf_register_hook
                0xc0542f68                nf_register_hooks
                0xc0542fcc                nf_register_afinfo
                0xc0543014                nf_unregister_afinfo
                0xc05431a0                nf_log_packet
                0xc0543264                nf_log_unregister
                0xc05432b8                nf_log_unregister_pf
                0xc05432fc                nf_log_register
                0xc0543780                nf_reinject
                0xc054391c                nf_queue
                0xc0543a10                nf_register_queue_handler
                0xc0543a74                nf_unregister_queue_handlers
                0xc0543ac4                nf_unregister_queue_handler
                0xc0543b38                nf_register_sockopt
                0xc0543dcc                nf_getsockopt
                0xc0543df8                nf_setsockopt
                0xc0543e24                nf_unregister_sockopt
                0xc0544560                ip_rt_send_redirect
                0xc0544c90                ip_rt_frag_needed
                0xc05451ac                rt_cache_flush
                0xc0545384                ip_rt_multicast_event
                0xc05458b0                ip_rt_get_source
                0xc0545d20                __ip_route_output_key
                0xc05467ec                ip_route_output_flow
                0xc05469fc                ip_route_output_key
                0xc0546a24                ip_route_input
                0xc05479ac                ip_rt_redirect
                0xc0547fe4                rt_bind_peer
                0xc054805c                __ip_select_ident
                0xc054864c                ip_rt_dump
                0xc05488d8                inet_putpeer
                0xc0548c3c                inet_getpeer
                0xc0548f98                inet_add_protocol
                0xc0549004                inet_del_protocol
                0xc05493bc                ip_rcv
                0xc0549844                ip_local_deliver
                0xc05498e4                ip_call_ra_chain
                0xc0549a58                ip_frag_nqueues
                0xc0549a6c                ip_frag_mem
                0xc0549e74                ip_defrag
                0xc054a928                ip_forward
                0xc054acb8                ip_options_rcv_srr
                0xc054ae98                ip_forward_options
                0xc054b074                ip_options_undo
                0xc054b184                ip_options_echo
                0xc054b550                ip_options_compile
                0xc054bab4                ip_options_get
                0xc054bb14                ip_options_get_from_user
                0xc054bbbc                ip_options_fragment
                0xc054bc74                ip_options_build
                0xc054be60                ip_send_check
                0xc054bff8                ip_flush_pending_frames
                0xc054c060                ip_append_page
                0xc054c550                ip_append_data
                0xc054cefc                ip_generic_getfrag
                0xc054cfb0                ip_fragment
                0xc054d8e4                __ip_local_out
                0xc054d9bc                ip_local_out
                0xc054d9ec                ip_push_pending_frames
                0xc054dda8                ip_send_reply
                0xc054dfd0                ip_queue_xmit
                0xc054e320                ip_build_and_send_pkt
                0xc054e9b0                ip_output
                0xc054eb2c                ip_mc_output
                0xc054f360                ip_getsockopt
                0xc054f410                ip_local_error
                0xc054f578                ip_icmp_error
                0xc054f6bc                ip_ra_control
                0xc05504bc                ip_setsockopt
                0xc0550558                ip_cmsg_send
                0xc0550654                ip_cmsg_recv
                0xc05507d4                ip_recv_error
                0xc05509c8                inet_bind_hash
                0xc0550a0c                __inet_hash_nolisten
                0xc0550b74                __inet_lookup_established
                0xc0550d7c                __inet_lookup_listener
                0xc0550f2c                __inet_inherit_port
                0xc05512e0                inet_listen_wlock
                0xc05513ac                inet_unhash
                0xc0551480                inet_hash
                0xc055157c                inet_bind_bucket_destroy
                0xc05515b0                inet_put_port
                0xc0551648                inet_bind_bucket_create
                0xc05516a8                __inet_hash_connect
                0xc05519dc                inet_hash_connect
                0xc0551a34                inet_twsk_schedule
                0xc0551c20                inet_twsk_alloc
                0xc0551d68                __inet_twsk_hashdance
                0xc0551ed4                inet_twsk_put
                0xc0552068                inet_twdr_twcal_tick
                0xc05521e4                inet_twsk_deschedule
                0xc055228c                inet_twsk_purge
                0xc0552460                inet_twdr_twkill_work
                0xc0552528                inet_twdr_hangman
                0xc05525fc                inet_csk_addr2sockaddr
                0xc0552628                inet_csk_bind_conflict
                0xc0552718                inet_get_local_port_range
                0xc055275c                inet_csk_search_req
                0xc0552884                inet_csk_listen_start
                0xc0552964                inet_csk_destroy_sock
                0xc0552a9c                inet_csk_clone
                0xc0552b1c                inet_csk_route_req
                0xc0552c6c                inet_csk_reset_keepalive_timer
                0xc0552c94                inet_csk_reqsk_queue_prune
                0xc0552ef4                inet_csk_reqsk_queue_hash_add
                0xc055303c                inet_csk_delete_keepalive_timer
                0xc0553054                inet_csk_listen_stop
                0xc05531e8                inet_csk_clear_xmit_timers
                0xc055322c                inet_csk_init_xmit_timers
                0xc0553284                inet_csk_accept
                0xc0553468                inet_csk_get_port
                0xc0553750                tcp_poll
                0xc05538d8                tcp_tso_segment
                0xc0553b54                tcp_get_info
                0xc0553d40                tcp_getsockopt
                0xc055405c                tcp_ioctl
                0xc05541c8                tcp_enter_memory_pressure
                0xc0554314                tcp_set_state
                0xc055449c                tcp_done
                0xc0554524                tcp_disconnect
                0xc0554898                tcp_close
                0xc0554d38                tcp_shutdown
                0xc0554d94                tcp_cleanup_rbuf
                0xc0554edc                tcp_setsockopt
                0xc0555284                tcp_recvmsg
                0xc0555af0                tcp_read_sock
                0xc0555cdc                tcp_splice_read
                0xc0555ec8                sk_stream_alloc_skb
                0xc0555fc4                tcp_sendmsg
                0xc0556b00                tcp_sendpage
                0xc0557178                tcp_enter_quickack_mode
                0xc0557374                tcp_initialize_rcv_mss
                0xc05573c4                tcp_rcv_space_adjust
                0xc05574d8                tcp_init_cwnd
                0xc0557534                tcp_enter_cwr
                0xc0557600                tcp_skb_mark_lost_uncond_verify
                0xc055768c                tcp_limit_reno_sacked
                0xc05576d4                tcp_clear_retrans
                0xc0557b10                tcp_cwnd_application_limited
                0xc0557d88                tcp_use_frto
                0xc05580e0                tcp_enter_loss
                0xc0558300                tcp_enter_frto
                0xc055d060                tcp_parse_options
                0xc055d5cc                tcp_rcv_established
                0xc055dec8                tcp_update_metrics
                0xc055e0dc                tcp_rcv_state_process
                0xc055ed48                tcp_select_initial_window
                0xc055ef28                tcp_mtu_to_mss
                0xc055ef80                tcp_mss_to_mtu
                0xc055efb8                tcp_mtup_init
                0xc055f03c                tcp_sync_mss
                0xc055f294                __tcp_select_window
                0xc055f454                tcp_current_mss
                0xc055f580                tcp_may_send_now
                0xc055ffc8                tcp_send_ack
                0xc05600d0                tcp_send_delayed_ack
                0xc05601ac                tcp_send_active_reset
                0xc0560370                tcp_connect
                0xc0560768                tcp_make_synack
                0xc0560a9c                tcp_send_synack
                0xc0560dd8                tcp_trim_head
                0xc0560f0c                tcp_fragment
                0xc05612c4                tcp_write_wakeup
                0xc0561440                tcp_send_probe0
                0xc0561534                tcp_retransmit_skb
                0xc0561b64                tcp_xmit_retransmit_queue
                0xc0561d94                tcp_simple_retransmit
                0xc0562074                tcp_push_one
                0xc05621bc                __tcp_push_pending_frames
                0xc0562a00                tcp_send_fin
                0xc0562ba0                tcp_set_keepalive
                0xc0562bf8                tcp_init_xmit_timers
                0xc0563e84                tcp_v4_send_check
                0xc056401c                tcp4_proc_exit
                0xc05643fc                tcp_proc_unregister
                0xc0564430                tcp_proc_register
                0xc0564cf4                tcp_v4_destroy_sock
                0xc0564ec8                tcp_twsk_unique
                0xc0564f70                tcp_v4_tw_remember_stamp
                0xc0564ff0                tcp_v4_remember_stamp
                0xc05650c4                tcp_v4_gso_send_check
                0xc056516c                tcp_v4_do_rcv
                0xc0565334                tcp_v4_rcv
                0xc0565a38                tcp_v4_syn_recv_sock
                0xc0565bbc                tcp_v4_conn_request
                0xc056604c                tcp_v4_err
                0xc05664ac                tcp_v4_connect
                0xc05668b0                tcp_twsk_destructor
                0xc05668c0                tcp_child_process
                0xc05669a8                tcp_check_req
                0xc0566dc0                tcp_create_openreq_child
                0xc05670e8                tcp_time_wait
                0xc05672b4                tcp_timewait_state_process
                0xc0567640                tcp_is_cwnd_limited
                0xc05676bc                tcp_slow_start
                0xc056776c                tcp_reno_cong_avoid
                0xc0567864                tcp_reno_ssthresh
                0xc0567884                tcp_reno_min_cwnd
                0xc056789c                tcp_init_congestion_control
                0xc05679ac                tcp_unregister_congestion_control
                0xc0567a60                tcp_set_default_congestion_control
                0xc0567b6c                tcp_set_allowed_congestion_control
                0xc0567cac                tcp_get_allowed_congestion_control
                0xc0567d80                tcp_get_available_congestion_control
                0xc0567e44                tcp_get_default_congestion_control
                0xc0567ebc                tcp_cleanup_congestion_control
                0xc0567ef0                tcp_set_congestion_control
                0xc05680b0                tcp_register_congestion_control
                0xc0568190                ip4_datagram_connect
                0xc0568420                raw_seq_start
                0xc0568528                raw_seq_next
                0xc0568630                raw_seq_stop
                0xc05693a0                raw_seq_open
                0xc05693fc                raw_rcv
                0xc05694c0                raw_icmp_error
                0xc05696c4                raw_local_deliver
                0xc0569904                raw_hash_sk
                0xc05699b0                raw_unhash_sk
                0xc0569cb8                udp_ioctl
                0xc0569eec                udp4_proc_exit
                0xc0569f08                udp4_seq_show
                0xc056a050                udp_proc_unregister
                0xc056a084                udp_proc_register
                0xc056a2e8                udp4_lib_lookup
                0xc056a368                udp_poll
                0xc056a488                udp_lib_getsockopt
                0xc056a588                udp_getsockopt
                0xc056a918                udp_lib_setsockopt
                0xc056aa90                udp_setsockopt
                0xc056aad8                udp_queue_rcv_skb
                0xc056ad30                udp_disconnect
                0xc056ae10                udp_recvmsg
                0xc056b144                udp_flush_pending_frames
                0xc056b178                udp_destroy_sock
                0xc056b1a4                udp_sendmsg
                0xc056b798                udp_sendpage
                0xc056b904                __udp4_lib_err
                0xc056ba80                udp_err
                0xc056ba9c                __udp4_lib_rcv
                0xc056c2cc                udp_rcv
                0xc056c398                udp_lib_get_port
                0xc056c538                udp_v4_get_port
                0xc056c780                arp_mc_map
                0xc056cba8                arp_bind_neighbour
                0xc056cc78                arp_xmit
                0xc056cf0c                arp_ifdown
                0xc056cf2c                arp_ioctl
                0xc056d4c8                arp_create
                0xc056d6a0                arp_send
                0xc056e160                arp_find
                0xc056e350                xrlim_allow
                0xc056e3c8                icmp_out_count
                0xc056eef8                icmp_rcv
                0xc056f160                icmp_send
                0xc056f784                inet_ifa_byprefix
                0xc056f840                in_dev_finish_destroy
                0xc05708a8                inet_confirm_addr
                0xc05709c0                inet_select_addr
                0xc0570b94                inet_addr_onlink
                0xc0571020                ipv4_doint_and_flush_strategy
                0xc0571064                ipv4_doint_and_flush
                0xc05710c8                inetdev_by_index
                0xc0571304                unregister_inetaddr_notifier
                0xc0571324                register_inetaddr_notifier
                0xc0571344                devinet_ioctl
                0xc0571c14                snmp_fold_field
                0xc05720b0                inet_sendmsg
                0xc0572114                inet_dgram_connect
                0xc0572194                inet_shutdown
                0xc05722ac                snmp_mib_free
                0xc05722e8                snmp_mib_init
                0xc057235c                inet_ctl_sock_create
                0xc05723c0                inet_sk_rebuild_header
                0xc05726ac                inet_accept
                0xc0572784                inet_unregister_protosw
                0xc0572804                inet_register_protosw
                0xc05728e8                inet_ioctl
                0xc05729f8                inet_getname
                0xc0572a94                inet_stream_connect
                0xc0572d18                inet_bind
                0xc0572ef4                inet_release
                0xc0572f68                build_ehash_secret
                0xc0573370                inet_listen
                0xc0573400                inet_sock_destruct
                0xc0573594                ip_mc_rejoin_group
                0xc05735a4                ip_mc_sf_allow
                0xc057377c                ip_check_mc
                0xc05747a4                ip_mc_gsfget
                0xc0574b8c                ip_mc_init_dev
                0xc0574c88                ip_mc_dec_group
                0xc0574d70                ip_mc_drop_socket
                0xc0574e20                ip_mc_down
                0xc0574e88                ip_mc_destroy_dev
                0xc0574fbc                ip_mc_inc_group
                0xc0575128                ip_mc_up
                0xc0575284                ip_mc_join_group
                0xc057536c                ip_mc_leave_group
                0xc057544c                ip_mc_msfilter
                0xc0575674                ip_mc_source
                0xc05759d4                ip_mc_msfget
                0xc0575b48                fib_select_default
                0xc0575c60                fib_add_ifaddr
                0xc0575f08                inet_dev_addr_type
                0xc0575ff4                inet_addr_type
                0xc05760c0                ip_dev_find
                0xc057629c                ip_rt_ioctl
                0xc05766f8                fib_validate_source
                0xc0576fbc                fib_find_alias
                0xc0577018                fib_nh_match
                0xc0577090                fib_sync_down_addr
                0xc0577128                fib_sync_down_dev
                0xc0577218                fib_dump_info
                0xc0577450                __fib_res_prefsrc
                0xc0577474                fib_semantic_match
                0xc0577598                free_fib_info
                0xc0577610                fib_release_info
                0xc05777c8                fib_create_info
                0xc0578170                fib_detect_death
                0xc0578240                rtmsg_fib
                0xc057836c                ip_fib_check_default
                0xc0578454                inet_frags_init_net
                0xc057847c                inet_frag_find
                0xc057869c                inet_frag_kill
                0xc05787a0                inet_frags_fini
                0xc05787b8                inet_frag_destroy
                0xc05788c8                inet_frag_evictor
                0xc0578a1c                inet_frags_exit_net
                0xc0578a50                inet_frags_init
                0xc0579798                fib_hash_table
                0xc057b8cc                nf_ip_checksum
                0xc057ba7c                ip_xfrm_me_harder
                0xc057bb60                ip_route_me_harder
                0xc057bdf0                inet_diag_unregister
                0xc057be34                inet_diag_register
                0xc057e27c                xfrm4_extract_header
                0xc057e34c                xfrm4_transport_finish
                0xc057e444                xfrm4_rcv_encap
                0xc057e46c                xfrm4_rcv
                0xc057e490                xfrm4_udp_encap_rcv
                0xc057e640                xfrm4_extract_input
                0xc057e6b0                xfrm4_output
                0xc057e72c                xfrm4_prepare_output
                0xc057e788                xfrm4_extract_output
                0xc057e810                xfrm_policy_walk_init
                0xc057e83c                xfrm_dst_ifdown
                0xc057e8e8                xfrm_policy_walk_done
                0xc057e958                xfrm_policy_walk
                0xc057eab8                xfrm_spd_getinfo
                0xc057eb40                xfrm_policy_unregister_afinfo
                0xc057ebf4                xfrm_policy_register_afinfo
                0xc057ee24                __xfrm_decode_session
                0xc057f0e8                xfrm_selector_match
                0xc057f3c0                xfrm_bundle_ok
                0xc057f74c                xfrm_policy_destroy
                0xc057f8b0                __xfrm_policy_check
                0xc05802e0                xfrm_sk_policy_insert
                0xc0580464                xfrm_policy_delete
                0xc0580584                xfrm_policy_flush
                0xc05807f0                xfrm_policy_byid
                0xc05809ac                xfrm_policy_bysel_ctx
                0xc0580b6c                xfrm_policy_insert
                0xc058105c                xfrm_policy_alloc
                0xc058120c                __xfrm_sk_clone_policy
                0xc058175c                __xfrm_lookup
                0xc0582198                xfrm_lookup
                0xc05821cc                __xfrm_route_forward
                0xc0582474                xfrm_state_walk_init
                0xc05824a0                xfrm_state_walk_done
                0xc0582510                xfrm_state_mtu
                0xc05825a4                xfrm_unregister_km
                0xc058260c                xfrm_register_km
                0xc058266c                xfrm_state_walk
                0xc05827c0                xfrm_get_acqseq
                0xc0582830                xfrm_find_acq_byseq
                0xc0582904                xfrm_sad_getinfo
                0xc0582ae0                xfrm_state_unregister_afinfo
                0xc0582b78                xfrm_state_register_afinfo
                0xc0582c68                xfrm_unregister_mode
                0xc0582cd8                xfrm_unregister_type
                0xc0582d28                xfrm_register_type
                0xc0582e14                xfrm_register_mode
                0xc0582f08                km_report
                0xc0582fb8                km_new_mapping
                0xc058306c                km_query
                0xc0583118                km_state_notify
                0xc05831b0                km_state_expired
                0xc0583204                km_policy_notify
                0xc05832a4                km_policy_expired
                0xc0583414                xfrm_init_state
                0xc0583640                xfrm_replay_check
                0xc058381c                xfrm_state_lookup
                0xc0583a50                xfrm_state_lookup_byaddr
                0xc0583ab8                xfrm_user_policy
                0xc0583c44                xfrm_replay_notify
                0xc0583d5c                xfrm_replay_advance
                0xc05844d4                xfrm_state_check_expire
                0xc0584708                xfrm_state_insert
                0xc0584758                xfrm_stateonly_find
                0xc0584988                __xfrm_state_destroy
                0xc0584a20                xfrm_alloc_spi
                0xc0584c6c                __xfrm_state_delete
                0xc0584dc0                xfrm_state_delete
                0xc0585010                xfrm_state_delete_tunnel
                0xc0585094                xfrm_state_update
                0xc0585334                xfrm_state_flush
                0xc058548c                xfrm_state_alloc
                0xc05859a0                xfrm_find_acq
                0xc0585a28                xfrm_state_add
                0xc0585c9c                xfrm_state_find
                0xc05862d0                xfrm_hash_free
                0xc0586330                xfrm_hash_alloc
                0xc05863a8                xfrm_prepare_input
                0xc0586444                xfrm_parse_spi
                0xc0586550                secpath_dup
                0xc05865e8                __secpath_destroy
                0xc0586658                xfrm_input
                0xc0586a04                xfrm_input_resume
                0xc0586a20                xfrm_inner_extract_output
                0xc0586aac                xfrm_output_resume
                0xc0586e0c                xfrm_output
                0xc0586ef4                xfrm_aalg_get_byidx
                0xc0586f20                xfrm_ealg_get_byidx
                0xc0586f4c                xfrm_count_auth_supported
                0xc0586f8c                xfrm_count_enc_supported
                0xc0586fcc                skb_icv_walk
                0xc05871c0                xfrm_probe_algs
                0xc0587398                xfrm_aead_get_byname
                0xc05873d4                xfrm_calg_get_byname
                0xc0587400                xfrm_ealg_get_byname
                0xc058742c                xfrm_aalg_get_byname
                0xc0587458                xfrm_calg_get_byid
                0xc0587484                xfrm_ealg_get_byid
                0xc05874b0                xfrm_aalg_get_byid
                0xc058b03c                unix_notinflight
                0xc058b13c                unix_inflight
                0xc058b24c                unix_gc
                0xc058b5cc                wait_for_unix_gc
                0xc058b670                unix_sysctl_unregister
                0xc058b698                unix_sysctl_register
                0xc058b704                __ipv6_addr_type
                0xc058b820                ipv6_ext_hdr
                0xc058b860                ipv6_skip_exthdr
                0xc058b99c                inet6_hash_connect
                0xc058b9f8                inet6_lookup_listener
                0xc058bb54                __inet6_lookup_established
                0xc058c324                inet6_lookup
                0xc058c3c4                __inet6_hash
                0xc058f0f4                rpc_call_start
                0xc058f110                rpc_peeraddr2str
                0xc058f13c                rpc_setbufsize
                0xc058f164                rpc_max_payload
                0xc058f17c                rpc_force_rebind
                0xc058f1b8                rpc_restart_call
                0xc058f4b0                rpc_show_tasks
                0xc0590974                rpc_peeraddr
                0xc05909a0                rpc_run_task
                0xc0590a10                rpc_call_null
                0xc0590a8c                rpc_call_async
                0xc0590b00                rpc_call_sync
                0xc0590b84                rpc_release_client
                0xc0590d34                rpc_shutdown_client
                0xc0590ef0                rpc_clone_client
                0xc0591088                rpc_create
                0xc0591560                rpc_bind_new_program
                0xc05915f8                xprt_set_retrans_timeout_def
                0xc0591614                xprt_get
                0xc0591630                xprt_put
                0xc05916d0                xprt_unregister_transport
                0xc0591788                xprt_register_transport
                0xc0591840                xprt_create_transport
                0xc0591c80                xprt_end_transmit
                0xc0591ec4                xprt_prepare_transmit
                0xc0591f84                xprt_release
                0xc0592220                xprt_adjust_cwnd
                0xc05922f0                xprt_release_rqst_cong
                0xc0592334                xprt_release_xprt_cong
                0xc0592360                xprt_release_xprt
                0xc05923f4                xprt_connect
                0xc059253c                xprt_wait_for_buffer_space
                0xc0592570                xprt_reserve_xprt_cong
                0xc05926d4                xprt_reserve_xprt
                0xc05927cc                xprt_reserve
                0xc0592980                xprt_lookup_rqst
                0xc0592a04                xprt_transmit
                0xc0592c74                xprt_complete_rqst
                0xc0592d24                xprt_write_space
                0xc0592db8                xprt_update_rtt
                0xc0592e48                xprt_adjust_timeout
                0xc0592fa4                xprt_set_retrans_timeout_rtt
                0xc0593014                xprt_wake_pending_tasks
                0xc059303c                xprt_conditional_disconnect
                0xc0593110                xprt_force_disconnect
                0xc05931bc                xprt_disconnect_done
                0xc05932e0                xdr_partial_copy_from_skb
                0xc05934f4                csum_partial_copy_to_xdr
                0xc0593640                xdr_skb_read_bits
                0xc0593798                cleanup_socket_xprt
                0xc0596844                init_socket_xprt
                0xc05968cc                rpc_release_calldata
                0xc05968f0                rpciod_up
                0xc0596904                rpciod_down
                0xc0596a4c                rpc_put_task
                0xc0596b18                rpc_new_task
                0xc0596ce8                rpc_free
                0xc0596d58                rpc_malloc
                0xc0596de8                __rpc_wait_for_completion_task
                0xc0596e78                rpc_exit_task
                0xc05971c4                rpc_wake_up_status
                0xc0597260                rpc_wake_up
                0xc05972f4                rpc_wake_up_next
                0xc05974b8                rpc_wake_up_queued_task
                0xc0597508                rpc_killall_tasks
                0xc05978c8                rpc_execute
                0xc059791c                rpc_destroy_wait_queue
                0xc0597934                rpc_destroy_mempool
                0xc05979e8                rpc_sleep_on
                0xc0597cac                rpc_delay
                0xc0597e78                rpc_init_wait_queue
                0xc0597e90                rpc_init_mempool
                0xc0597fb8                rpc_init_priority_wait_queue
                0xc0597fd0                rpcauth_release
                0xc0598010                rpcauth_init_cred
                0xc059806c                rpcauth_uptodatecred
                0xc0598094                rpcauth_unregister
                0xc059811c                rpcauth_register
                0xc059819c                rpcauth_invalcred
                0xc0598208                rpcauth_refreshcred
                0xc059826c                rpcauth_checkverf
                0xc05982d0                rpcauth_marshcred
                0xc0598334                rpcauth_generic_bind_cred
                0xc0598398                rpcauth_unwrap_resp
                0xc0598448                rpcauth_wrap_req
                0xc05984f8                put_rpccred
                0xc0598904                rpcauth_clear_credcache
                0xc0598aa4                rpcauth_unbindcred
                0xc0598b00                rpcauth_lookup_credcache
                0xc0598e10                rpcauth_lookupcred
                0xc0598f00                rpcauth_bindcred
                0xc0598fdc                rpcauth_destroy_credcache
                0xc0599010                rpcauth_init_credcache
                0xc0599060                rpcauth_create
                0xc05998b0                rpc_lookup_machine_cred
                0xc0599ad4                rpc_lookup_cred
                0xc0599af4                svc_pool_for_cpu
                0xc0599b54                svc_max_payload
                0xc0599d34                svc_process
                0xc059a4f4                svc_register
                0xc059a73c                svc_destroy
                0xc059a87c                svc_exit_thread
                0xc059a954                svc_prepare_thread
                0xc059aa94                svc_set_num_threads
                0xc059af8c                svc_create
                0xc059b034                svc_create_pooled
                0xc059b3e4                svc_sock_update_bufs
                0xc059d2b8                svc_addsock
                0xc059d434                svc_cleanup_xprt_sock
                0xc059d45c                svc_init_xprt_sock
                0xc059d484                svc_sock_names
                0xc059d570                svc_set_client
                0xc059d58c                auth_domain_lookup
                0xc059d6e0                auth_domain_find
                0xc059d6f8                svc_auth_unregister
                0xc059d75c                svc_auth_register
                0xc059d7d4                auth_domain_put
                0xc059d860                svc_authorise
                0xc059d8a0                svc_authenticate
                0xc059da2c                auth_unix_forget_old
                0xc059e584                svcauth_unix_info_release
                0xc059eb0c                auth_unix_lookup
                0xc059ebe4                auth_unix_add_addr
                0xc059eca8                svcauth_unix_set_client
                0xc059ef34                svcauth_unix_purge
                0xc059ef50                unix_domain_find
                0xc059f7c0                rpcb_getport_async
                0xc059fc58                rpcb_getport_sync
                0xc059fe50                rpcb_register
                0xc059ff2c                rpcb_v4_register
                0xc05a0264                rpc_init_rtt
                0xc05a02a8                rpc_update_rtt
                0xc05a030c                rpc_calc_rto
                0xc05a034c                xdr_encode_pages
                0xc05a03c0                xdr_inline_pages
                0xc05a0400                xdr_init_decode
                0xc05a0438                xdr_buf_from_iov
                0xc05a0480                xdr_buf_subsegment
                0xc05a0588                xdr_inline_decode
                0xc05a05cc                xdr_write_pages
                0xc05a0664                xdr_reserve_space
                0xc05a06cc                xdr_init_encode
                0xc05a0768                xdr_process_buf
                0xc05a0974                xdr_decode_string_inplace
                0xc05a09b8                xdr_decode_netobj
                0xc05a09fc                xdr_encode_netobj
                0xc05a0ba8                read_bytes_from_xdr_buf
                0xc05a0bf4                xdr_decode_word
                0xc05a0c3c                xdr_buf_read_netobj
                0xc05a0de8                write_bytes_to_xdr_buf
                0xc05a0e88                xdr_encode_word
                0xc05a140c                xdr_encode_array2
                0xc05a1454                xdr_decode_array2
                0xc05a1738                xdr_shift_buf
                0xc05a174c                xdr_read_pages
                0xc05a1874                xdr_enter_page
                0xc05a18f0                xdr_encode_opaque_fixed
                0xc05a1944                xdr_encode_opaque
                0xc05a196c                xdr_encode_string
                0xc05a199c                qword_add
                0xc05a1a7c                qword_addhex
                0xc05a1b40                qword_get
                0xc05a1f00                cache_clean_deferred
                0xc05a28ec                cache_flush
                0xc05a2924                cache_purge
                0xc05a2a24                cache_unregister
                0xc05a2b88                cache_register
                0xc05a3468                cache_check
                0xc05a3a28                sunrpc_cache_update
                0xc05a3c7c                sunrpc_cache_lookup
                0xc05a3f30                unregister_rpc_pipefs
                0xc05a413c                register_rpc_pipefs
                0xc05a46f0                rpc_unlink
                0xc05a4998                rpc_mkpipe
                0xc05a4cd4                rpc_put_mount
                0xc05a4d10                rpc_get_mount
                0xc05a4d44                rpc_queue_upcall
                0xc05a51f8                rpc_mkdir
                0xc05a5430                rpc_rmdir
                0xc05a5504                svc_xprt_names
                0xc05a5634                svc_port_is_privileged
                0xc05a56a8                svc_print_addr
                0xc05a586c                svc_find_xprt
                0xc05a5978                svc_unreg_xprt_class
                0xc05a5a00                svc_reg_xprt_class
                0xc05a5ae8                svc_xprt_copy_addrs
                0xc05a5c30                svc_wake_up
                0xc05a5cd8                svc_xprt_enqueue
                0xc05a5fc8                svc_reserve
                0xc05a601c                svc_xprt_received
                0xc05a6068                svc_create_xprt
                0xc05a6364                svc_xprt_init
                0xc05a63fc                svc_xprt_put
                0xc05a641c                svc_delete_xprt
                0xc05a6534                svc_close_xprt
                0xc05a65bc                svc_close_all
                0xc05a66f8                svc_send
                0xc05a679c                svc_drop
                0xc05a67dc                svc_recv
                0xc05a7398                svc_print_xprts
                0xc05a746c                rpc_count_iostats
                0xc05a7560                rpc_proc_exit
                0xc05a75c4                svc_proc_unregister
                0xc05a75e4                rpc_proc_unregister
                0xc05a7604                rpc_proc_init
                0xc05a766c                svc_proc_register
                0xc05a76dc                rpc_proc_register
                0xc05a7774                rpc_print_iostats
                0xc05a79a4                svc_seq_show
                0xc05a7aa0                rpc_free_iostats
                0xc05a7ab4                rpc_alloc_iostats
                0xc05a7ae4                rpc_unregister_sysctl
                0xc05a7b14                rpc_register_sysctl
                0xc05a7f5c                unregister_net_sysctl_table
                0xc05a7f70                register_net_sysctl_rotable
                0xc05a7f9c                register_net_sysctl_table
 .text          0xc05a8004      0x52c lib/lib.a(klist.o)
                0xc05a8004                klist_init
                0xc05a8024                klist_node_attached
                0xc05a8040                klist_iter_init_node
                0xc05a8064                klist_iter_init
                0xc05a807c                klist_next
                0xc05a8224                klist_iter_exit
                0xc05a8254                klist_del
                0xc05a82d4                klist_remove
                0xc05a8360                klist_add_before
                0xc05a83d8                klist_add_after
                0xc05a8450                klist_add_tail
                0xc05a84c0                klist_add_head
 .text          0xc05a8530        0x0 .tmp_kallsyms2.o
 *(.ref.text)
 .ref.text      0xc05a8530       0x88 init/built-in.o
 .ref.text      0xc05a85b8      0x2b4 mm/built-in.o
 .ref.text      0xc05a886c       0x2c fs/built-in.o
 .ref.text      0xc05a8898       0x18 drivers/built-in.o
 .ref.text      0xc05a88b0      0x4a0 net/built-in.o
                0xc05a8cf4                fib_proc_exit
 *(.text.init.refok)
 *(.exit.text.refok)
 *(.text.unlikely)
 .text.unlikely
                0xc05a8d50       0x14 arch/arm/kernel/built-in.o
                0xc05a8d50                dump_stack
 .text.unlikely
                0xc05a8d64      0x158 kernel/built-in.o
                0xc05a8d64                panic
                0xc05a8e8c                printk
 .text.unlikely
                0xc05a8ebc       0x7c fs/built-in.o
                0xc05a8ebc                fat_fs_panic
                0xc05a8f38                . = ALIGN (0x8)
                0xc05a8f38                __sched_text_start = .
 *(.sched.text)
 .sched.text    0xc05a8f38     0x2308 kernel/built-in.o
                0xc05a8f38                io_schedule_timeout
                0xc05a8f8c                schedule
                0xc05a92b8                io_schedule
                0xc05a930c                cond_resched_softirq
                0xc05a9374                _cond_resched
                0xc05a93cc                yield
                0xc05a93f8                preempt_schedule_irq
                0xc05a9478                preempt_schedule
                0xc05a95f4                sleep_on_timeout
                0xc05a9610                sleep_on
                0xc05a962c                interruptible_sleep_on_timeout
                0xc05a9648                interruptible_sleep_on
                0xc05a9838                wait_for_completion_killable
                0xc05a985c                wait_for_completion_interruptible_timeout
                0xc05a9874                wait_for_completion_interruptible
                0xc05a9898                wait_for_completion_timeout
                0xc05a98b0                wait_for_completion
                0xc05a98cc                console_conditional_schedule
                0xc05a98f4                schedule_timeout
                0xc05a99bc                schedule_timeout_uninterruptible
                0xc05a99e8                schedule_timeout_killable
                0xc05a9a14                schedule_timeout_interruptible
                0xc05a9a40                __wait_on_bit_lock
                0xc05a9acc                out_of_line_wait_on_bit_lock
                0xc05a9b58                __wait_on_bit
                0xc05a9bfc                out_of_line_wait_on_bit
                0xc05a9c88                mutex_trylock
                0xc05a9e04                mutex_lock_interruptible
                0xc05a9f24                mutex_lock
                0xc05aa0a8                mutex_lock_killable
                0xc05aa134                mutex_unlock
                0xc05aa158                schedule_hrtimeout_range
                0xc05aa2e8                schedule_hrtimeout
                0xc05aa43c                hrtimer_nanosleep_restart
                0xc05aa4b4                down_write
                0xc05aa4c8                down_read
                0xc05aab04                rt_mutex_unlock
                0xc05ab170                rt_mutex_lock
                0xc05ab190                rt_mutex_lock_interruptible
                0xc05ab1b0                rt_mutex_trylock
 .sched.text    0xc05ab240      0x274 lib/lib.a(rwsem-spinlock.o)
                0xc05ab240                __down_write_nested
                0xc05ab36c                __down_write
                0xc05ab384                __down_read
                0xc05ab4b4                __sched_text_end = .
                0xc05ab4b8                . = ALIGN (0x8)
 *fill*         0xc05ab4b4        0x4 00
                0xc05ab4b8                __lock_text_start = .
 *(.spinlock.text)
 .spinlock.text
                0xc05ab4b8      0x104 lib/built-in.o
                0xc05ab4b8                __reacquire_kernel_lock
                0xc05ab4e4                __release_kernel_lock
                0xc05ab50c                lock_kernel
                0xc05ab558                unlock_kernel
                0xc05ab5bc                __lock_text_end = .
                0xc05ab5c0                . = ALIGN (0x8)
 *fill*         0xc05ab5bc        0x4 00
                0xc05ab5c0                __kprobes_text_start = .
 *(.kprobes.text)
                0xc05ab5c0                __kprobes_text_end = .
 *(.fixup)
 .fixup         0xc05ab5c0      0x228 arch/arm/kernel/built-in.o
 .fixup         0xc05ab7e8      0x194 arch/arm/mm/built-in.o
 .fixup         0xc05ab97c      0x128 kernel/built-in.o
 .fixup         0xc05abaa4       0x34 mm/built-in.o
 .fixup         0xc05abad8      0x1d8 fs/built-in.o
 .fixup         0xc05abcb0        0x4 arch/arm/lib/lib.a(clear_user.o)
 .fixup         0xc05abcb4       0x28 arch/arm/lib/lib.a(copy_from_user.o)
 .fixup         0xc05abcdc       0x1c arch/arm/lib/lib.a(copy_to_user.o)
 *fill*         0xc05abcf8        0x8 00
 .fixup         0xc05abd00       0x30 arch/arm/lib/lib.a(csumpartialcopyuser.o)
 .fixup         0xc05abd30       0x10 arch/arm/lib/lib.a(strncpy_from_user.o)
 .fixup         0xc05abd40        0x8 arch/arm/lib/lib.a(strnlen_user.o)
 .fixup         0xc05abd48        0xc lib/built-in.o
 .fixup         0xc05abd54       0x84 drivers/built-in.o
 .fixup         0xc05abdd8       0x40 sound/built-in.o
 .fixup         0xc05abe18       0x24 net/built-in.o
 *(.gnu.warning)
 *(.rodata)
 .rodata        0xc05abe3c      0x460 init/built-in.o
                0xc05abe4c                linux_banner
                0xc05abee8                linux_proc_banner
 .rodata        0xc05ac29c      0x2e0 arch/arm/mach-GM/platform-GM8126/built-in.o
                0xc05ac29c                UART_FTUART010_irq
                0xc05ac2a4                TIMER_FTTMR010_irq
                0xc05ac2a8                NAND_FTNAND023_irq
                0xc05ac2ac                USB_FOTG2XX_irq
                0xc05ac2b0                DMAC_FTDMAC020_irq
                0xc05ac2b8                APBBRG_FTAPBBRG020S_irq
                0xc05ac2bc                CPU_MEM_pa_base
                0xc05ac2c0                CPU_MEM_pa_limit
                0xc05ac2c4                CPU_MEM_pa_size
                0xc05ac2c8                PMU_FTPMU010_pa_base
                0xc05ac2cc                PMU_FTPMU010_pa_limit
                0xc05ac2d0                PMU_FTPMU010_pa_size
                0xc05ac2d4                PMU_FTPMU010_va_base
                0xc05ac2d8                PMU_FTPMU010_va_limit
                0xc05ac2dc                PMU_FTPMU010_va_size
                0xc05ac2e0                DDRC_FTDDRC010_pa_base
                0xc05ac2e4                DDRC_FTDDRC010_pa_limit
                0xc05ac2e8                DDRC_FTDDRC010_pa_size
                0xc05ac2ec                DDRC_FTDDRC010_va_base
                0xc05ac2f0                DDRC_FTDDRC010_va_limit
                0xc05ac2f4                DDRC_FTDDRC010_va_size
                0xc05ac2f8                AHBC_FTAHBC010_pa_base
                0xc05ac324                AHBC_FTAHBC010_pa_limit
                0xc05ac350                AHBC_FTAHBC010_pa_size
                0xc05ac37c                AHBC_FTAHBC010_va_base
                0xc05ac3a8                AHBC_FTAHBC010_va_limit
                0xc05ac3d4                AHBC_FTAHBC010_va_size
                0xc05ac400                UART_FTUART010_pa_base
                0xc05ac414                UART_FTUART010_pa_limit
                0xc05ac428                UART_FTUART010_pa_size
                0xc05ac43c                UART_FTUART010_va_base
                0xc05ac450                UART_FTUART010_va_limit
                0xc05ac464                UART_FTUART010_va_size
                0xc05ac478                TIMER_FTTMR010_pa_base
                0xc05ac47c                TIMER_FTTMR010_pa_limit
                0xc05ac480                TIMER_FTTMR010_pa_size
                0xc05ac484                TIMER_FTTMR010_va_base
                0xc05ac488                TIMER_FTTMR010_va_limit
                0xc05ac48c                TIMER_FTTMR010_va_size
                0xc05ac490                INTC_FTINTC010_pa_base
                0xc05ac494                INTC_FTINTC010_pa_limit
                0xc05ac498                INTC_FTINTC010_pa_size
                0xc05ac49c                INTC_FTINTC010_va_base
                0xc05ac4a0                INTC_FTINTC010_va_limit
                0xc05ac4a4                INTC_FTINTC010_va_size
                0xc05ac4a8                SRAM_FTSMC010_pa_base
                0xc05ac4ac                SRAM_FTSMC010_pa_limit
                0xc05ac4b0                SRAM_FTSMC010_pa_size
                0xc05ac4b4                SRAM_FTSMC010_va_base
                0xc05ac4b8                SRAM_FTSMC010_va_limit
                0xc05ac4bc                SRAM_FTSMC010_va_size
                0xc05ac4c0                NAND_FTNAND023_pa_base
                0xc05ac4c4                NAND_FTNAND023_pa_limit
                0xc05ac4c8                NAND_FTNAND023_pa_size
                0xc05ac4cc                NAND_FTNAND023_va_base
                0xc05ac4d0                NAND_FTNAND023_va_limit
                0xc05ac4d4                NAND_FTNAND023_va_size
                0xc05ac4d8                NANDDP_FTNAND023_pa_base
                0xc05ac4dc                NANDDP_FTNAND023_pa_limit
                0xc05ac4e0                NANDDP_FTNAND023_pa_size
                0xc05ac4e4                NANDDP_FTNAND023_va_base
                0xc05ac4e8                NANDDP_FTNAND023_va_limit
                0xc05ac4ec                NANDDP_FTNAND023_va_size
                0xc05ac4f0                USB_FOTG2XX_pa_base
                0xc05ac4f4                USB_FOTG2XX_pa_limit
                0xc05ac4f8                USB_FOTG2XX_pa_size
                0xc05ac4fc                USB_FOTG2XX_va_base
                0xc05ac500                USB_FOTG2XX_va_limit
                0xc05ac504                USB_FOTG2XX_va_size
                0xc05ac508                DMAC_FTDMAC020_pa_base
                0xc05ac50c                DMAC_FTDMAC020_pa_limit
                0xc05ac510                DMAC_FTDMAC020_pa_size
                0xc05ac514                DMAC_FTDMAC020_va_base
                0xc05ac518                DMAC_FTDMAC020_va_limit
                0xc05ac51c                DMAC_FTDMAC020_va_size
                0xc05ac520                APBBRG_FTAPBBRG020S_pa_base
                0xc05ac524                APBBRG_FTAPBBRG020S_pa_limit
                0xc05ac528                APBBRG_FTAPBBRG020S_pa_size
                0xc05ac52c                APBBRG_FTAPBBRG020S_va_base
                0xc05ac530                APBBRG_FTAPBBRG020S_va_limit
                0xc05ac534                APBBRG_FTAPBBRG020S_va_size
 .rodata        0xc05ac57c      0x16c arch/arm/kernel/built-in.o
                0xc05ac6ac                cpuinfo_op
                0xc05ac6bc                sigreturn_codes
 .rodata        0xc05ac6e8       0x8c arch/arm/mm/built-in.o
 .rodata        0xc05ac774       0x54 arch/arm/mach-GM/built-in.o
 .rodata        0xc05ac7c8     0x5624 kernel/built-in.o
                0xc05acac8                cpu_bit_bitmap
                0xc05acb4c                cpu_all_bits
                0xc05acc40                __cap_empty_set
                0xc05acc48                __cap_full_set
                0xc05acc50                __cap_init_eff_set
 .rodata        0xc05b1dec      0x824 mm/built-in.o
 .rodata        0xc05b2610     0xe35c fs/built-in.o
                0xc05b261c                generic_ro_fops
                0xc05b2688                def_chr_fops
                0xc05b26f4                read_pipefifo_fops
                0xc05b2760                rdwr_pipefifo_fops
                0xc05b27cc                write_pipefifo_fops
                0xc05b285c                page_symlink_inode_operations
                0xc05b28d0                def_fifo_fops
                0xc05b2af0                mounts_op
                0xc05b2b00                mountinfo_op
                0xc05b2b10                mountstats_op
                0xc05b2b64                simple_dir_inode_operations
                0xc05b2bc0                simple_dir_operations
                0xc05b2cfc                def_blk_fops
                0xc05b304c                proc_maps_operations
                0xc05b30b8                proc_smaps_operations
                0xc05b3124                proc_clear_refs_operations
                0xc05b3190                proc_pagemap_operations
                0xc05b497c                proc_net_inode_operations
                0xc05b49d8                proc_net_operations
                0xc05b4c6c                sysfs_file_operations
                0xc05b4cd8                sysfs_dir_inode_operations
                0xc05b4d34                sysfs_dir_operations
                0xc05b4da0                sysfs_symlink_inode_operations
                0xc05b4e54                bin_fops
                0xc05b4fc0                ext3_dir_operations
                0xc05b502c                ext3_file_operations
                0xc05b5098                ext3_file_inode_operations
                0xc05b5500                ext3_special_inode_operations
                0xc05b5574                ext3_dir_inode_operations
                0xc05b58a0                ext3_symlink_inode_operations
                0xc05b58fc                ext3_fast_symlink_inode_operations
                0xc05b5db4                ext2_dir_operations
                0xc05b5e20                ext2_file_operations
                0xc05b5e8c                ext2_xip_file_operations
                0xc05b5ef8                ext2_file_inode_operations
                0xc05b5f54                ext2_aops_xip
                0xc05b5f94                ext2_nobh_aops
                0xc05b5fd4                ext2_aops
                0xc05b6014                ext2_special_inode_operations
                0xc05b6070                ext2_dir_inode_operations
                0xc05b6254                ext2_symlink_inode_operations
                0xc05b62b0                ext2_fast_symlink_inode_operations
                0xc05b63dc                ramfs_aops
                0xc05b641c                ramfs_file_operations
                0xc05b6488                ramfs_file_inode_operations
                0xc05b6508                fat_dir_operations
                0xc05b6594                fat_file_operations
                0xc05b6600                fat_file_inode_operations
                0xc05b6c18                isofs_dir_operations
                0xc05b6c84                isofs_dir_inode_operations
                0xc05b6d10                isofs_symlink_aops
                0xc05b6d50                isofs_export_ops
                0xc05b6eec                nfs_dir_operations
                0xc05b6f58                nfs_dir_inode_operations
                0xc05b6fb4                nfs3_dir_inode_operations
                0xc05b701c                nfs_file_operations
                0xc05b7088                nfs_file_inode_operations
                0xc05b70e4                nfs3_file_inode_operations
                0xc05b7140                nfs_file_aops
                0xc05b7620                nfs_v2_clientops
                0xc05b76dc                nfs_symlink_inode_operations
                0xc05b77b4                nfs_mountpoint_inode_operations
                0xc05b7810                nfs_referral_inode_operations
                0xc05b7880                nfs_v3_clientops
                0xc05bd34c                cifs_dir_inode_ops
                0xc05bd3a8                cifs_file_inode_ops
                0xc05bd404                cifs_symlink_inode_ops
                0xc05bd460                cifs_file_ops
                0xc05bd4cc                cifs_file_direct_ops
                0xc05bd538                cifs_file_nobrl_ops
                0xc05bd5a4                cifs_file_direct_nobrl_ops
                0xc05bd610                cifs_dir_ops
                0xc05bdc70                cifs_addr_ops
                0xc05bdcb0                cifs_addr_ops_smallbuf
                0xc05bf2fc                CifsUniUpperRange
                0xc05bf32c                nt_errs
                0xc05c0374                cifs_export_ops
                0xc05c03c4                jffs2_dir_inode_operations
                0xc05c0420                jffs2_dir_operations
                0xc05c048c                jffs2_file_operations
                0xc05c04f8                jffs2_file_inode_operations
                0xc05c0554                jffs2_file_address_operations
                0xc05c0690                jffs2_symlink_inode_operations
                0xc05c0848                autofs_root_operations
                0xc05c08b4                autofs_root_inode_operations
                0xc05c0910                autofs_symlink_inode_operations
 .rodata        0xc05c096c       0xd8 ipc/built-in.o
 .rodata        0xc05c0a44      0x234 block/built-in.o
                0xc05c0c70                scsi_command_size_tbl
 .rodata        0xc05c0c78       0x30 lib/lib.a(kobject.o)
 .rodata        0xc05c0ca8        0xc lib/lib.a(ratelimit.o)
 .rodata        0xc05c0cb4       0x10 lib/lib.a(vsprintf.o)
 .rodata        0xc05c0cc4     0x16d8 lib/built-in.o
                0xc05c0cc4                hex_asc
                0xc05c0d30                byte_rev_table
                0xc05c0e30                crc_ccitt_table
 *fill*         0xc05c239c        0x4 00
 .rodata        0xc05c23a0     0x80cc drivers/built-in.o
                0xc05c3214                vesa_modes
                0xc05c3d9c                random_fops
                0xc05c3e08                urandom_fops
                0xc05c40d4                tty_ldiscs_proc_fops
                0xc05c5694                tuner_count
                0xc05c71fc                usbdev_file_operations
                0xc05c7394                mon_fops_stat
 .rodata        0xc05ca46c      0x878 sound/built-in.o
                0xc05ca884                snd_pcm_known_rates
                0xc05ca890                snd_pcm_f_ops
 *fill*         0xc05cace4       0x1c 00
 .rodata        0xc05cad00     0x1d68 net/built-in.o
                0xc05cad6c                bad_sock_fops
                0xc05cb15c                ifla_policy
                0xc05cb280                eth_header_ops
                0xc05cb5c0                ip_tos2prio
                0xc05cb5d0                inet_csk_timer_bug_msg
                0xc05cb7e8                inet_stream_ops
                0xc05cb840                inet_dgram_ops
                0xc05cb9e8                rtm_ipv4_policy
                0xc05cc5e0                authnull_ops
                0xc05cc64c                authunix_ops
 *fill*         0xc05cca68        0x8 00
 .rodata        0xc05cca70    0x4e780 .tmp_kallsyms2.o
                0xc05cca70                kallsyms_addresses
                0xc05e1bb0                kallsyms_num_syms
                0xc05e1bc0                kallsyms_names
                0xc061ab00                kallsyms_markers
                0xc061ac60                kallsyms_token_table
                0xc061aff0                kallsyms_token_index
 *(.rodata.*)
 .rodata.str1.1
                0xc061b1f0      0xc07 init/built-in.o
                                0xddf (size before relaxing)
 .rodata.str1.1
                0xc061bdf7      0x240 arch/arm/mach-GM/platform-GM8126/built-in.o
                                0x245 (size before relaxing)
 .rodata.str1.1
                0xc061c037      0xc89 arch/arm/kernel/built-in.o
                                0xcfc (size before relaxing)
 .rodata.str1.1
                0xc061ccc0      0xc99 arch/arm/mm/built-in.o
                                0xce7 (size before relaxing)
 .rodata.str1.1
                0xc061d959      0x6f6 arch/arm/mach-GM/built-in.o
                                0x6f8 (size before relaxing)
 .rodata.str1.1
                0xc061e04f     0x4683 kernel/built-in.o
                               0x4c57 (size before relaxing)
 .rodata.str1.1
                0xc06226d2     0x1c90 mm/built-in.o
                               0x1d75 (size before relaxing)
 .rodata.str1.1
                0xc0624362    0x19b92 fs/built-in.o
                              0x1b780 (size before relaxing)
 .rodata.str1.1
                0xc063def4      0x268 ipc/built-in.o
                                0x29d (size before relaxing)
 .rodata.str1.1
                0xc063e15c       0x14 security/built-in.o
                                 0x1e (size before relaxing)
 .rodata.str1.1
                0xc063e170       0x1a crypto/built-in.o
 .rodata.str1.1
                0xc063e18a      0x99e block/built-in.o
                                0xa56 (size before relaxing)
 .rodata.str1.1
                0xc063eb28       0x80 lib/lib.a(idr.o)
 .rodata.str1.1
                0xc063eba8      0x27f lib/lib.a(kobject.o)
                                0x282 (size before relaxing)
 .rodata.str1.1
                0xc063ee27        0xb lib/lib.a(kref.o)
 .rodata.str1.1
                0xc063ee32        0xb lib/lib.a(proportions.o)
 .rodata.str1.1
                0xc063ee3d       0x10 lib/lib.a(radix-tree.o)
 .rodata.str1.1
                0xc063ee4d       0x20 lib/lib.a(ratelimit.o)
 .rodata.str1.1
                0xc063ee6d       0x16 lib/lib.a(vsprintf.o)
 .rodata.str1.1
                0xc063ee83      0x20f lib/built-in.o
                                0x27f (size before relaxing)
 .rodata.str1.1
                0xc063f092    0x13844 drivers/built-in.o
                              0x14b0c (size before relaxing)
 .rodata.str1.1
                0xc06528d6      0xdd4 sound/built-in.o
                                0xf8f (size before relaxing)
 .rodata.str1.1
                0xc06536aa     0x66e6 net/built-in.o
                               0x7547 (size before relaxing)
 .rodata.str1.1
                0xc0659d90        0xc lib/lib.a(klist.o)
 *(.glue_7)
 .glue_7        0x00000000        0x0 linker stubs
 *(.glue_7t)
 .glue_7t       0x00000000        0x0 linker stubs
 *(.got)

.vfp11_veneer   0xc0659d9c        0x0
 .vfp11_veneer  0x00000000        0x0 linker stubs

.v4_bx          0xc0659d9c        0x0
 .v4_bx         0x00000000        0x0 linker stubs
                0xc065a000                . = ALIGN (0x1000)

.rodata         0xc065a000        0x0
                0xc065a000                __start_rodata = .
 *(.rodata)
 *(.rodata.*)
 *(__vermagic)
 *(__markers_strings)
 *(__tracepoints_strings)

.rodata1
 *(.rodata1)

.pci_fixup      0xc065a000        0x0
                0xc065a000                __start_pci_fixups_early = .
 *(.pci_fixup_early)
                0xc065a000                __end_pci_fixups_early = .
                0xc065a000                __start_pci_fixups_header = .
 *(.pci_fixup_header)
                0xc065a000                __end_pci_fixups_header = .
                0xc065a000                __start_pci_fixups_final = .
 *(.pci_fixup_final)
                0xc065a000                __end_pci_fixups_final = .
                0xc065a000                __start_pci_fixups_enable = .
 *(.pci_fixup_enable)
                0xc065a000                __end_pci_fixups_enable = .
                0xc065a000                __start_pci_fixups_resume = .
 *(.pci_fixup_resume)
                0xc065a000                __end_pci_fixups_resume = .
                0xc065a000                __start_pci_fixups_resume_early = .
 *(.pci_fixup_resume_early)
                0xc065a000                __end_pci_fixups_resume_early = .
                0xc065a000                __start_pci_fixups_suspend = .
 *(.pci_fixup_suspend)
                0xc065a000                __end_pci_fixups_suspend = .

.builtin_fw     0xc065a000        0x0
                0xc065a000                __start_builtin_fw = .
 *(.builtin_fw)
                0xc065a000                __end_builtin_fw = .

.rio_route      0xc065a000        0x0
                0xc065a000                __start_rio_route_ops = .
 *(.rio_route_ops)
                0xc065a000                __end_rio_route_ops = .

__ksymtab       0xc065a000     0x5410
                0xc065a000                __start___ksymtab = .
 *(__ksymtab)
 __ksymtab      0xc065a000       0x10 arch/arm/kernel/init_task.o
 __ksymtab      0xc065a010       0x18 init/built-in.o
 __ksymtab      0xc065a028      0x2a0 arch/arm/mach-GM/platform-GM8126/built-in.o
 __ksymtab      0xc065a2c8      0x338 arch/arm/kernel/built-in.o
 __ksymtab      0xc065a600       0xe8 arch/arm/mm/built-in.o
 __ksymtab      0xc065a6e8      0x1b8 arch/arm/mach-GM/built-in.o
 __ksymtab      0xc065a8a0      0x900 kernel/built-in.o
 __ksymtab      0xc065b1a0      0x4d8 mm/built-in.o
 __ksymtab      0xc065b678      0xe30 fs/built-in.o
 __ksymtab      0xc065c4a8        0x8 security/built-in.o
 __ksymtab      0xc065c4b0      0x348 block/built-in.o
 __ksymtab      0xc065c7f8       0x10 lib/lib.a(argv_split.o)
 __ksymtab      0xc065c808       0x18 lib/lib.a(cmdline.o)
 __ksymtab      0xc065c820        0x8 lib/lib.a(ctype.o)
 __ksymtab      0xc065c828        0x8 lib/lib.a(dec_and_lock.o)
 __ksymtab      0xc065c830       0x80 lib/lib.a(idr.o)
 __ksymtab      0xc065c8b0        0x8 lib/lib.a(int_sqrt.o)
 __ksymtab      0xc065c8b8        0x8 lib/lib.a(irq_regs.o)
 __ksymtab      0xc065c8c0       0x40 lib/lib.a(kobject.o)
 __ksymtab      0xc065c900       0x20 lib/lib.a(kref.o)
 __ksymtab      0xc065c920       0x68 lib/lib.a(radix-tree.o)
 __ksymtab      0xc065c988        0x8 lib/lib.a(ratelimit.o)
 __ksymtab      0xc065c990       0x38 lib/lib.a(rbtree.o)
 __ksymtab      0xc065c9c8       0x48 lib/lib.a(rwsem-spinlock.o)
 __ksymtab      0xc065ca10       0xb8 lib/lib.a(string.o)
 __ksymtab      0xc065cac8       0x78 lib/lib.a(vsprintf.o)
 __ksymtab      0xc065cb40      0x2d8 lib/built-in.o
 __ksymtab      0xc065ce18      0xd48 drivers/built-in.o
 __ksymtab      0xc065db60      0x430 sound/built-in.o
 __ksymtab      0xc065df90     0x1480 net/built-in.o
                0xc065f410                __stop___ksymtab = .

__ksymtab_gpl   0xc065f410     0x1d48
                0xc065f410                __start___ksymtab_gpl = .
 *(__ksymtab_gpl)
 __ksymtab_gpl  0xc065f410        0x8 init/built-in.o
 __ksymtab_gpl  0xc065f418       0x10 arch/arm/kernel/built-in.o
 __ksymtab_gpl  0xc065f428      0x3a0 kernel/built-in.o
 __ksymtab_gpl  0xc065f7c8       0xe8 mm/built-in.o
 __ksymtab_gpl  0xc065f8b0      0x368 fs/built-in.o
 __ksymtab_gpl  0xc065fc18       0x80 crypto/built-in.o
 __ksymtab_gpl  0xc065fc98       0xf0 block/built-in.o
 __ksymtab_gpl  0xc065fd88       0x28 lib/lib.a(kobject.o)
 __ksymtab_gpl  0xc065fdb0       0x18 lib/built-in.o
 __ksymtab_gpl  0xc065fdc8      0xca8 drivers/built-in.o
 __ksymtab_gpl  0xc0660a70      0x688 net/built-in.o
 __ksymtab_gpl  0xc06610f8       0x60 lib/lib.a(klist.o)
                0xc0661158                __stop___ksymtab_gpl = .

__ksymtab_unused
                0xc0661158        0x0
                0xc0661158                __start___ksymtab_unused = .
 *(__ksymtab_unused)
                0xc0661158                __stop___ksymtab_unused = .

__ksymtab_unused_gpl
                0xc0661158        0x0
                0xc0661158                __start___ksymtab_unused_gpl = .
 *(__ksymtab_unused_gpl)
                0xc0661158                __stop___ksymtab_unused_gpl = .

__ksymtab_gpl_future
                0xc0661158        0x0
                0xc0661158                __start___ksymtab_gpl_future = .
 *(__ksymtab_gpl_future)
                0xc0661158                __stop___ksymtab_gpl_future = .

__kcrctab       0xc0661158        0x0
                0xc0661158                __start___kcrctab = .
 *(__kcrctab)
                0xc0661158                __stop___kcrctab = .

__kcrctab_gpl   0xc0661158        0x0
                0xc0661158                __start___kcrctab_gpl = .
 *(__kcrctab_gpl)
                0xc0661158                __stop___kcrctab_gpl = .

__kcrctab_unused
                0xc0661158        0x0
                0xc0661158                __start___kcrctab_unused = .
 *(__kcrctab_unused)
                0xc0661158                __stop___kcrctab_unused = .

__kcrctab_unused_gpl
                0xc0661158        0x0
                0xc0661158                __start___kcrctab_unused_gpl = .
 *(__kcrctab_unused_gpl)
                0xc0661158                __stop___kcrctab_unused_gpl = .

__kcrctab_gpl_future
                0xc0661158        0x0
                0xc0661158                __start___kcrctab_gpl_future = .
 *(__kcrctab_gpl_future)
                0xc0661158                __stop___kcrctab_gpl_future = .

__ksymtab_strings
                0xc0661158     0xf72d
 *(__ksymtab_strings)
 __ksymtab_strings
                0xc0661158       0x12 arch/arm/kernel/init_task.o
 __ksymtab_strings
                0xc066116a       0x37 init/built-in.o
 __ksymtab_strings
                0xc06611a1      0x772 arch/arm/mach-GM/platform-GM8126/built-in.o
 __ksymtab_strings
                0xc0661913      0x56e arch/arm/kernel/built-in.o
 __ksymtab_strings
                0xc0661e81      0x219 arch/arm/mm/built-in.o
 __ksymtab_strings
                0xc066209a      0x480 arch/arm/mach-GM/built-in.o
 __ksymtab_strings
                0xc066251a     0x1bb1 kernel/built-in.o
 __ksymtab_strings
                0xc06640cb      0xc48 mm/built-in.o
 __ksymtab_strings
                0xc0664d13     0x2300 fs/built-in.o
 __ksymtab_strings
                0xc0667013       0x11 security/built-in.o
 __ksymtab_strings
                0xc0667024      0x119 crypto/built-in.o
 __ksymtab_strings
                0xc066713d      0x99b block/built-in.o
 __ksymtab_strings
                0xc0667ad8       0x15 lib/lib.a(argv_split.o)
 __ksymtab_strings
                0xc0667aed       0x20 lib/lib.a(cmdline.o)
 __ksymtab_strings
                0xc0667b0d        0x7 lib/lib.a(ctype.o)
 __ksymtab_strings
                0xc0667b14       0x15 lib/lib.a(dec_and_lock.o)
 __ksymtab_strings
                0xc0667b29       0xc5 lib/lib.a(idr.o)
 __ksymtab_strings
                0xc0667bee        0x9 lib/lib.a(int_sqrt.o)
 __ksymtab_strings
                0xc0667bf7       0x14 lib/lib.a(irq_regs.o)
 __ksymtab_strings
                0xc0667c0b       0xcc lib/lib.a(kobject.o)
 __ksymtab_strings
                0xc0667cd7       0x25 lib/lib.a(kref.o)
 __ksymtab_strings
                0xc0667cfc      0x11d lib/lib.a(radix-tree.o)
 __ksymtab_strings
                0xc0667e19        0xc lib/lib.a(ratelimit.o)
 __ksymtab_strings
                0xc0667e25       0x4a lib/lib.a(rbtree.o)
 __ksymtab_strings
                0xc0667e6f       0x8a lib/lib.a(rwsem-spinlock.o)
 __ksymtab_strings
                0xc0667ef9       0xbd lib/lib.a(string.o)
 __ksymtab_strings
                0xc0667fb6       0xb1 lib/lib.a(vsprintf.o)
 __ksymtab_strings
                0xc0668067      0x563 lib/built-in.o
 __ksymtab_strings
                0xc06685ca     0x3c13 drivers/built-in.o
 __ksymtab_strings
                0xc066c1dd      0xb1a sound/built-in.o
 __ksymtab_strings
                0xc066ccf7     0x3ad9 net/built-in.o
 __ksymtab_strings
                0xc06707d0       0xb5 lib/lib.a(klist.o)

__init_rodata
 *(.ref.rodata)

__param         0xc0670888     0x1778
                0xc0670888                __start___param = .
 *(__param)
 __param        0xc0670888       0x14 init/built-in.o
 __param        0xc067089c       0xa0 kernel/built-in.o
 __param        0xc067093c       0xc8 fs/built-in.o
 __param        0xc0670a04      0x5dc drivers/built-in.o
 __param        0xc0670fe0       0xc8 sound/built-in.o
 __param        0xc06710a8       0x78 net/built-in.o
                0xc0671120                __stop___param = .
                0xc0672000                . = ALIGN (0x1000)
 *fill*         0xc0671120      0xee0 00
                0xc0672000                __end_rodata = .
                0xc0672000                . = ALIGN (0x1000)
                0xc0672000                _etext = .
                0xc0672000                . = ALIGN (0x2000)
                0xc0672000                __data_loc = .

.data           0xc0672000    0x1ae88
                0xc0672000                __data_start = .
 *(.data.init_task)
 .data.init_task
                0xc0672000     0x2000 arch/arm/kernel/init_task.o
                0xc0672000                init_thread_union
                0xc0674000                . = ALIGN (0x1000)
                0xc0674000                __nosave_begin = .
 *(.data.nosave)
                0xc0674000                . = ALIGN (0x1000)
                0xc0674000                __nosave_end = .
                0xc0674000                . = ALIGN (0x20)
 *(.data.cacheline_aligned)
 .data.cacheline_aligned
                0xc0674000        0x0 kernel/built-in.o
                0xc0674000                tasklist_lock
 .data.cacheline_aligned
                0xc0674000       0xc0 net/built-in.o
                0xc0674000                tcp_hashinfo
                0xc06740c0                . = ALIGN (0x20)
                0xc06740c0                __start___ex_table = .
 *(__ex_table)
 __ex_table     0xc06740c0      0x1c8 arch/arm/kernel/built-in.o
 __ex_table     0xc0674288      0x258 arch/arm/mm/built-in.o
 __ex_table     0xc06744e0      0x150 kernel/built-in.o
 __ex_table     0xc0674630       0x28 mm/built-in.o
 __ex_table     0xc0674658      0x218 fs/built-in.o
 __ex_table     0xc0674870       0x20 arch/arm/lib/lib.a(backtrace.o)
 __ex_table     0xc0674890       0x48 arch/arm/lib/lib.a(clear_user.o)
 __ex_table     0xc06748d8      0x188 arch/arm/lib/lib.a(copy_from_user.o)
 __ex_table     0xc0674a60      0x180 arch/arm/lib/lib.a(copy_to_user.o)
 __ex_table     0xc0674be0      0x138 arch/arm/lib/lib.a(csumpartialcopyuser.o)
 __ex_table     0xc0674d18       0x20 arch/arm/lib/lib.a(getuser.o)
 __ex_table     0xc0674d38       0x30 arch/arm/lib/lib.a(putuser.o)
 __ex_table     0xc0674d68        0x8 arch/arm/lib/lib.a(strncpy_from_user.o)
 __ex_table     0xc0674d70        0x8 arch/arm/lib/lib.a(strnlen_user.o)
 __ex_table     0xc0674d78        0x8 lib/built-in.o
 __ex_table     0xc0674d80       0x80 drivers/built-in.o
 __ex_table     0xc0674e00       0x40 sound/built-in.o
 __ex_table     0xc0674e40       0x20 net/built-in.o
                0xc0674e60                __stop___ex_table = .
 *(.data)
 .data          0xc0674e60        0x0 usr/built-in.o
 .data          0xc0674e60        0x0 arch/arm/kernel/head.o
 .data          0xc0674e60      0xb30 arch/arm/kernel/init_task.o
                0xc0674e60                init_mm
                0xc0674fc8                init_task
 .data          0xc0675990      0x2ac init/built-in.o
                0xc0675a18                envp_init
                0xc0675aa0                loops_per_jiffy
                0xc0675aa4                init_uts_ns
                0xc0675c30                root_mountflags
 *fill*         0xc0675c3c        0x4 00
 .data          0xc0675c40      0xb18 arch/arm/mach-GM/platform-GM8126/built-in.o
                0xc0675c40                clock_info
                0xc0675f50                gm_sys_timer
 .data          0xc0676758      0x194 arch/arm/kernel/built-in.o
                0xc0676758                fp_enter
                0xc067675c                cr_alignment
                0xc0676760                cr_no_alignment
                0xc06767a4                arm_pm_restart
 .data          0xc06768ec     0x1cfc arch/arm/mm/built-in.o
                0xc0676be8                discontig_node_data
 .data          0xc06785e8       0x84 arch/arm/mach-GM/built-in.o
 *fill*         0xc067866c        0x4 00
 .data          0xc0678670     0x2cb4 kernel/built-in.o
                0xc0678670                sysctl_sched_min_granularity
                0xc0678674                sysctl_sched_latency
                0xc0678678                sysctl_sched_wakeup_granularity
                0xc0678688                sysctl_sched_rt_period
                0xc067868c                sysctl_sched_rt_runtime
                0xc06786a4                sysctl_sched_shares_ratelimit
                0xc06786a8                sysctl_sched_shares_thresh
                0xc06786b4                default_exec_domain
                0xc0678768                console_printk
                0xc0678778                console_suspend_enabled
                0xc067877c                log_wait
                0xc0678784                printk_ratelimit_state
                0xc06787c4                cpu_online_map
                0xc06787c8                cpu_possible_map
                0xc06787d0                iomem_resource
                0xc06787ec                ioport_resource
                0xc0679500                jiffies_64
                0xc0679508                init_user_ns
                0xc0679910                root_user
                0xc06799ac                uts_sem
                0xc06799b8                C_A_D
                0xc06799cc                poweroff_cmd
                0xc0679ad8                overflowuid
                0xc0679adc                overflowgid
                0xc0679ae0                fs_overflowuid
                0xc0679ae4                fs_overflowgid
                0xc0679ae8                init_groups
                0xc0679b74                modprobe_path
                0xc0679c8c                init_pid_ns
                0xc0679cb0                pid_max
                0xc0679cb4                init_struct_pid
                0xc0679ce0                pid_max_min
                0xc0679ce4                pid_max_max
                0xc0679cf4                module_ktype
                0xc0679d28                per_cpu__hrtimer_bases
                0xc0679da8                init_nsproxy
                0xc0679dc4                reboot_notifier_list
                0xc0679f64                tick_usec
                0xc0679f68                time_status
                0xc0679f6c                time_maxerror
                0xc0679f70                time_esterror
                0xc067a020                clocksource_jiffies
                0xc067a118                tick_do_timer_cpu
                0xc067a11c                max_lock_depth
                0xc067a1d0                nr_irqs
                0xc067a1d4                irq_desc
                0xc067b0d4                no_irq_chip
                0xc067b114                dummy_irq_chip
 *fill*         0xc067b324        0x4 00
 .data          0xc067b328      0x4e8 mm/built-in.o
                0xc067b328                generic_file_vm_ops
                0xc067b34c                sysctl_lowmem_reserve_ratio
                0xc067b350                min_free_kbytes
                0xc067b354                node_states
                0xc067b37c                nr_node_ids
                0xc067b3b4                dirty_expire_interval
                0xc067b3b8                dirty_writeback_interval
                0xc067b3bc                vm_dirty_ratio
                0xc067b3c0                dirty_background_ratio
                0xc067b3d0                default_backing_dev_info
                0xc067b450                vm_swappiness
                0xc067b4b4                randomize_va_space
                0xc067b4b8                protection_map
                0xc067b4f8                sysctl_overcommit_ratio
                0xc067b51c                sysctl_max_map_count
                0xc067b538                swapper_space
                0xc067b724                malloc_sizes
 .data          0xc067b810     0x2e9c fs/built-in.o
                0xc067b810                files_stat
                0xc067b81c                super_blocks
                0xc067b840                directly_mappable_cdev_bdi
                0xc067b8b8                core_pattern
                0xc067b988                dentry_stat
                0xc067b9a0                sysctl_vfs_cache_pressure
                0xc067b9a4                inode_in_use
                0xc067b9cc                inode_unused
                0xc067b9d4                sysctl_nr_open_max
                0xc067b9d8                sysctl_nr_open
                0xc067b9dc                sysctl_nr_open_min
                0xc067b9e0                init_files
                0xc067bb58                inotify_table
                0xc067bc14                epoll_table
                0xc067bcec                aio_max_nr
                0xc067bd00                leases_enable
                0xc067bd24                lease_break_time
                0xc067bd94                dir_notify_enable
                0xc067bd98                proc_root
                0xc067beb8                part_type
                0xc067bee8                warn_no_part
                0xc067bfc0                sysfs_mutex
                0xc067bfe8                sysfs_rename_mutex
                0xc067c014                sysfs_root
                0xc067c0a0                ext3_xattr_handlers
                0xc067c0b8                ext3_xattr_user_handler
                0xc067c0c8                ext3_xattr_trusted_handler
                0xc067c0d8                ext3_xattr_acl_access_handler
                0xc067c0e8                ext3_xattr_acl_default_handler
                0xc067c0f8                ext3_xattr_security_handler
                0xc067c130                ext2_xattr_handlers
                0xc067c148                ext2_xattr_user_handler
                0xc067c158                ext2_xattr_trusted_handler
                0xc067c168                ext2_xattr_acl_access_handler
                0xc067c178                ext2_xattr_acl_default_handler
                0xc067c188                ext2_xattr_security_handler
                0xc067c3f0                nfs_program
                0xc067c408                nfs_rpcstat
                0xc067c44c                nfs_dentry_operations
                0xc067c4dc                nfs_xdev_fs_type
                0xc067c4fc                nfs_procedures
                0xc067c784                nfs_version2
                0xc067c7c0                nfs_mountpoint_expiry_timeout
                0xc067c894                nfs3_procedures
                0xc067cbac                nfs_version3
                0xc067cfbc                nlmsvc_lock_operations
                0xc067cfdc                nlmsvc_procedures
                0xc067d404                nlm_program
                0xc067d690                nlm_version4
                0xc067d8dc                nlmsvc_procedures4
                0xc067dd60                cifs_fs_type
                0xc067dd80                cifs_max_pending
                0xc067dd84                CIFSMaxBufSize
                0xc067dd88                cifs_min_rcv
                0xc067dd8c                cifsERROR
                0xc067dd90                cifs_min_small
                0xc067dd94                oplockEnabled
                0xc067dd98                linuxExtEnabled
                0xc067dd9c                lookupCacheEnabled
                0xc067dda0                extended_security
                0xc067dda4                sign_CIFS_PDUs
                0xc067dda8                cifs_ci_dentry_ops
                0xc067ddc4                cifs_dentry_ops
                0xc067df94                CifsUniUpperTable
 .data          0xc067e6ac      0x2d8 ipc/built-in.o
                0xc067e6ac                init_ipc_ns
                0xc067e774                nr_ipc_ns
 .data          0xc067e984        0x0 security/built-in.o
 .data          0xc067e984       0x24 crypto/built-in.o
                0xc067e984                crypto_alg_sem
                0xc067e990                crypto_chain
                0xc067e9a0                crypto_alg_list
 .data          0xc067e9a8      0x58c block/built-in.o
                0xc067e9c4                blk_queue_ktype
                0xc067ea9c                block_class
 .data          0xc067ef34        0x0 arch/arm/lib/lib.a(ashldi3.o)
 .data          0xc067ef34        0x0 arch/arm/lib/lib.a(ashrdi3.o)
 .data          0xc067ef34        0x0 arch/arm/lib/lib.a(backtrace.o)
 .data          0xc067ef34        0x0 arch/arm/lib/lib.a(changebit.o)
 .data          0xc067ef34        0x0 arch/arm/lib/lib.a(clear_user.o)
 .data          0xc067ef34        0x0 arch/arm/lib/lib.a(clearbit.o)
 .data          0xc067ef34        0x0 arch/arm/lib/lib.a(copy_from_user.o)
 .data          0xc067ef34        0x0 arch/arm/lib/lib.a(copy_page.o)
 .data          0xc067ef34        0x0 arch/arm/lib/lib.a(copy_to_user.o)
 .data          0xc067ef34        0x0 arch/arm/lib/lib.a(csumipv6.o)
 .data          0xc067ef34        0x0 arch/arm/lib/lib.a(csumpartial.o)
 .data          0xc067ef34        0x0 arch/arm/lib/lib.a(csumpartialcopy.o)
 .data          0xc067ef34        0x0 arch/arm/lib/lib.a(csumpartialcopyuser.o)
 .data          0xc067ef34        0x0 arch/arm/lib/lib.a(delay.o)
 .data          0xc067ef34        0x0 arch/arm/lib/lib.a(div64.o)
 .data          0xc067ef34        0x0 arch/arm/lib/lib.a(findbit.o)
 .data          0xc067ef34        0x0 arch/arm/lib/lib.a(getuser.o)
 .data          0xc067ef34        0x0 arch/arm/lib/lib.a(io-readsb.o)
 .data          0xc067ef34        0x0 arch/arm/lib/lib.a(io-readsl.o)
 .data          0xc067ef34        0x0 arch/arm/lib/lib.a(io-readsw-armv4.o)
 .data          0xc067ef34        0x0 arch/arm/lib/lib.a(io-writesb.o)
 .data          0xc067ef34        0x0 arch/arm/lib/lib.a(io-writesl.o)
 .data          0xc067ef34        0x0 arch/arm/lib/lib.a(io-writesw-armv4.o)
 .data          0xc067ef34        0x0 arch/arm/lib/lib.a(lib1funcs.o)
 .data          0xc067ef34        0x0 arch/arm/lib/lib.a(lshrdi3.o)
 .data          0xc067ef34        0x0 arch/arm/lib/lib.a(memchr.o)
 .data          0xc067ef34        0x0 arch/arm/lib/lib.a(memcpy.o)
 .data          0xc067ef34        0x0 arch/arm/lib/lib.a(memmove.o)
 .data          0xc067ef34        0x0 arch/arm/lib/lib.a(memset.o)
 .data          0xc067ef34        0x0 arch/arm/lib/lib.a(memzero.o)
 .data          0xc067ef34        0x0 arch/arm/lib/lib.a(muldi3.o)
 .data          0xc067ef34        0x0 arch/arm/lib/lib.a(putuser.o)
 .data          0xc067ef34        0x0 arch/arm/lib/lib.a(setbit.o)
 .data          0xc067ef34        0x0 arch/arm/lib/lib.a(sha1.o)
 .data          0xc067ef34        0x0 arch/arm/lib/lib.a(strchr.o)
 .data          0xc067ef34        0x0 arch/arm/lib/lib.a(strncpy_from_user.o)
 .data          0xc067ef34        0x0 arch/arm/lib/lib.a(strnlen_user.o)
 .data          0xc067ef34        0x0 arch/arm/lib/lib.a(strrchr.o)
 .data          0xc067ef34        0x0 arch/arm/lib/lib.a(testchangebit.o)
 .data          0xc067ef34        0x0 arch/arm/lib/lib.a(testclearbit.o)
 .data          0xc067ef34        0x0 arch/arm/lib/lib.a(testsetbit.o)
 .data          0xc067ef34        0x0 arch/arm/lib/lib.a(ucmpdi2.o)
 .data          0xc067ef34        0x0 lib/lib.a(argv_split.o)
 .data          0xc067ef34        0x0 lib/lib.a(cmdline.o)
 .data          0xc067ef34      0x100 lib/lib.a(ctype.o)
                0xc067ef34                _ctype
 .data          0xc067f034        0x0 lib/lib.a(dec_and_lock.o)
 .data          0xc067f034        0x0 lib/lib.a(extable.o)
 .data          0xc067f034        0x0 lib/lib.a(idr.o)
 .data          0xc067f034        0x0 lib/lib.a(int_sqrt.o)
 .data          0xc067f034        0x0 lib/lib.a(irq_regs.o)
 .data          0xc067f034       0x20 lib/lib.a(kobject.o)
                0xc067f04c                kobj_sysfs_ops
 .data          0xc067f054        0x0 lib/lib.a(kref.o)
 .data          0xc067f054        0x0 lib/lib.a(prio_tree.o)
 .data          0xc067f054        0x0 lib/lib.a(proportions.o)
 .data          0xc067f054        0x0 lib/lib.a(radix-tree.o)
 .data          0xc067f054        0x0 lib/lib.a(ratelimit.o)
 .data          0xc067f054        0x0 lib/lib.a(rbtree.o)
 .data          0xc067f054        0x0 lib/lib.a(reciprocal_div.o)
 .data          0xc067f054        0x0 lib/lib.a(rwsem-spinlock.o)
 .data          0xc067f054        0x0 lib/lib.a(string.o)
 .data          0xc067f054        0x1 lib/lib.a(vsprintf.o)
 *fill*         0xc067f055        0x3 00
 .data          0xc067f058       0x40 lib/built-in.o
                0xc067f058                debug_locks
 .data          0xc067f098     0x90f4 drivers/built-in.o
                0xc067f3b0                random_table
                0xc067f524                tty_mutex
                0xc067f530                tty_drivers
                0xc067f538                tty_std_termios
                0xc067f564                tty_ldisc_N_TTY
                0xc067f614                pty_limit
                0xc067f71c                __sysrq_enabled
                0xc067fb40                platform_bus
                0xc067fc68                platform_bus_type
                0xc067fcd0                cpu_sysdev_class
                0xc067fd68                rd_size
                0xc06806cc                tuners
                0xc0681a70                v4l2_type_names
                0xc0681a94                v4l2_field_names
                0xc0681dd4                scsi_bus_type
                0xc0681e90                dev_attr_hstate
                0xc0681ea4                scsi_shost_attr_group
                0xc0681eb0                scsi_sysfs_shost_attr_groups
                0xc0682480                sg_big_buff
                0xc0682708                mtd_table_mutex
                0xc0682ea8                nand_flash_ids
                0xc06833a0                nand_manuf_ids
                0xc06838f8                spi_bus_type
                0xc0683a10                usb_device_type
                0xc0683a2c                usbcore_name
                0xc0683a40                ehci_cf_port_reset_rwsem
                0xc0683b04                usb_bus_list_lock
                0xc0683b1c                usb_kill_urb_queue
                0xc0683b24                usb_bus_list
                0xc0683b48                usb_if_device_type
                0xc0683b64                usb_bus_type
                0xc0683c1c                usb_device_groups
                0xc0683c28                usb_interface_groups
                0xc0684094                usbfs_driver
                0xc06840fc                usbfs_mutex
                0xc0684124                usb_generic_driver
                0xc0684178                mon_lock
                0xc068420c                my_work_queue
                0xc0684370                fotg2xx_driver
                0xc06843b4                AMBA_bus_type
                0xc06843f0                ehci_driver
                0xc0684450                usb_stor_host_template
                0xc06844e4                usb_stor_sense_invalidCDB
                0xc0686da0                input_class
                0xc0687228                __i2c_board_lock
                0xc0687234                __i2c_board_list
                0xc068723c                i2c_bus_type
                0xc0687470                use_spi_crc
 .data          0xc068818c      0x67c sound/built-in.o
 .data          0xc0688808     0x467c net/built-in.o
                0xc06888ac                sysctl_wmem_max
                0xc06888b0                sysctl_rmem_max
                0xc06888b4                sysctl_wmem_default
                0xc06888b8                sysctl_rmem_default
                0xc06888c4                sysctl_optmem_max
                0xc06888c8                sysctl_max_syn_backlog
                0xc0688900                net_namespace_list
                0xc0688c24                weight_p
                0xc0688c28                netdev_budget
                0xc0688c2c                netdev_max_backlog
                0xc0689000                net_ratelimit_state
                0xc0689014                net_msg_warn
                0xc0689498                noop_qdisc
                0xc0689570                noop_qdisc_ops
                0xc068979c                nf_net_netfilter_sysctl_path
                0xc0689cb0                inet_peer_threshold
                0xc0689cb4                inet_peer_gc_maxtime
                0xc0689cd0                inet_peer_minttl
                0xc0689cd4                inet_peer_maxttl
                0xc0689cd8                inet_peer_gc_mintime
                0xc0689e24                sysctl_ip_default_ttl
                0xc0689e28                sysctl_local_ports
                0xc0689e34                sysctl_tcp_fin_timeout
                0xc0689e38                sysctl_tcp_adv_win_scale
                0xc0689e3c                sysctl_tcp_app_win
                0xc0689e40                sysctl_tcp_moderate_rcvbuf
                0xc0689e44                sysctl_tcp_dsack
                0xc0689e48                sysctl_tcp_frto
                0xc0689e4c                sysctl_tcp_reordering
                0xc0689e50                sysctl_tcp_window_scaling
                0xc0689e54                sysctl_tcp_timestamps
                0xc0689e58                sysctl_tcp_sack
                0xc0689e5c                sysctl_tcp_fack
                0xc0689e60                sysctl_tcp_max_orphans
                0xc0689e64                sysctl_tcp_base_mss
                0xc0689e68                sysctl_tcp_slow_start_after_idle
                0xc0689e6c                sysctl_tcp_retrans_collapse
                0xc0689e70                sysctl_tcp_tso_win_divisor
                0xc0689e74                sysctl_tcp_keepalive_time
                0xc0689e78                sysctl_tcp_keepalive_probes
                0xc0689e7c                sysctl_tcp_keepalive_intvl
                0xc0689e80                sysctl_tcp_syn_retries
                0xc0689e84                sysctl_tcp_retries1
                0xc0689e88                sysctl_tcp_retries2
                0xc0689e8c                sysctl_tcp_synack_retries
                0xc0689e90                ipv4_specific
                0xc0689f50                tcp_request_sock_ops
                0xc0689f70                tcp_prot
                0xc068a034                tcp_death_row
                0xc068a138                tcp_init_congestion_ops
                0xc068a188                tcp_reno
                0xc068a1d0                raw_prot
                0xc068a318                udp_prot
                0xc068a3c8                udplite_prot
                0xc068a540                arp_tbl
                0xc068a6cc                arp_broken_ops
                0xc068a6e8                icmp_err_convert
                0xc068ad20                sysctl_igmp_max_memberships
                0xc068ad24                sysctl_igmp_max_msf
                0xc068ad50                net_ipv4_ctl_path
                0xc068b960                nf_net_ipv4_netfilter_sysctl_path
                0xc068bec8                sysctl_xfrm_larval_drop
                0xc068becc                xfrm_cfg_mutex
                0xc068bee8                km_waitq
                0xc068bf0c                sysctl_xfrm_acq_expires
                0xc068bf10                sysctl_xfrm_aevent_etime
                0xc068bf14                sysctl_xfrm_aevent_rseqth
                0xc068c458                xprt_tcp_slot_table_entries
                0xc068c498                xprt_udp_slot_table_entries
                0xc068c4d8                xprt_max_resvport
                0xc068c4dc                xprt_min_resvport
                0xc068c798                svcauth_unix
                0xc068c7b4                unix_gid_cache
                0xc068c824                ip_map_cache
                0xc068c894                svcauth_null
 .data          0xc068ce84        0x0 lib/lib.a(klist.o)
 .data          0xc068ce84        0x0 .tmp_kallsyms2.o
 *(.data.init.refok)
 *(.ref.data)
                0xc068ce88                . = ALIGN (0x8)
 *fill*         0xc068ce84        0x4 00
                0xc068ce88                __start___markers = .
 *(__markers)
                0xc068ce88                __stop___markers = .
                0xc068ce88                __start___tracepoints = .
 *(__tracepoints)
                0xc068ce88                __stop___tracepoints = .
                0xc068ce88                _edata = .
                0xc068ce88                _edata_loc = (__data_loc + SIZEOF (.data))

.bss            0xc068cea0    0x3500c
                0xc068cea0                __bss_start = .
 *(.bss)
 .bss           0xc068cea0        0x0 usr/built-in.o
 .bss           0xc068cea0        0x0 arch/arm/kernel/head.o
 .bss           0xc068cea0        0x0 arch/arm/kernel/init_task.o
 .bss           0xc068cea0      0x8a4 init/built-in.o
                0xc068cea0                reset_devices
                0xc068ceb0                system_state
                0xc068cebc                saved_command_line
                0xc068cec4                late_time_init
                0xc068cec8                ROOT_DEV
                0xc068d304                real_root_dev
                0xc068d308                initrd_below_start_ok
                0xc068d30c                initrd_start
                0xc068d310                initrd_end
                0xc068d73c                preset_lpj
                0xc068d740                lpj_fine
 .bss           0xc068d744       0xd8 arch/arm/mach-GM/platform-GM8126/built-in.o
                0xc068d818                ftintc010_base_addr
 *fill*         0xc068d81c        0x4 00
 .bss           0xc068d820       0xd4 arch/arm/kernel/built-in.o
                0xc068d820                irq_err_count
                0xc068d828                pm_power_off
                0xc068d82c                thread_notify_head
                0xc068d830                pm_idle
                0xc068d880                system_serial_low
                0xc068d884                system_serial_high
                0xc068d888                system_rev
                0xc068d88c                per_cpu__cpu_data
                0xc068d8c4                elf_platform
                0xc068d8cc                elf_hwcap
                0xc068d8d4                cacheid
                0xc068d8d8                __machine_arch_type
                0xc068d8dc                processor_id
                0xc068d8e0                system_timer
                0xc068d8e4                set_rtc
                0xc068d8e8                user_debug
                0xc068d8f0                die_lock
 .bss           0xc068d8f4       0xa4 arch/arm/mm/built-in.o
                0xc068d960                pgprot_user
                0xc068d964                pgprot_kernel
                0xc068d968                top_pmd
                0xc068d96c                empty_zero_page
                0xc068d970                per_cpu__mmu_gathers
 .bss           0xc068d998      0x4fc arch/arm/mach-GM/built-in.o
 *fill*         0xc068de94        0xc 00
 .bss           0xc068dea0     0x7840 kernel/built-in.o
                0xc068e2a0                per_cpu__kstat
                0xc068e3e8                sysctl_sched_compat_yield
                0xc068e438                init_task_group
                0xc068e468                root_task_group
                0xc068e554                nohz_cpu_mask
                0xc068e558                per_cpu__process_counts
                0xc068e55c                sighand_cachep
                0xc068e560                fs_cachep
                0xc068e568                files_cachep
                0xc068e56c                vm_area_cachep
                0xc068e578                max_threads
                0xc068e57c                nr_threads
                0xc068e580                total_forks
                0xc068e584                mmlist_lock
                0xc068e9b8                panic_notifier_list
                0xc068e9bc                panic_blink
                0xc068e9c0                panic_timeout
                0xc068e9c4                panic_on_oops
                0xc068e9c8                console_drivers
                0xc068ea70                oops_in_progress
                0xc0692e80                console_set_on_cmdline
                0xc0692e84                cpu_present_map
                0xc0692e88                sys_tz
                0xc0692ee0                irq_stat
                0xc0692f08                per_cpu__softirq_work_list
                0xc0693080                boot_tvec_bases
                0xc06940a0                avenrun
                0xc06940c8                print_fatal_signals
                0xc06940d0                cad_pid
                0xc06940d4                pm_power_off_prepare
                0xc0694114                module_kset
                0xc0694118                module_sysfs_initialized
                0xc06943c4                kthreadd_task
                0xc06943e4                kernel_kobj
                0xc0694460                xtime
                0xc0694468                clock
                0xc0694470                xtime_lock
                0xc0694480                wall_to_monotonic
                0xc06944a0                tick_nsec
                0xc06944b0                time_adjust
                0xc06944b8                tick_length
                0xc0694548                per_cpu__tick_cpu_device
                0xc0694550                tick_next_period
                0xc0694558                tick_period
                0xc0694560                tick_device_lock
                0xc0695608                futex_cmpxchg_enabled
                0xc0695658                noirqdebug
                0xc0695668                per_cpu__rcu_data
                0xc06956a4                per_cpu__rcu_bh_data
 .bss           0xc06956e0      0xcd8 mm/built-in.o
                0xc06956e4                bootmem_node_data
                0xc0695754                max_low_pfn
                0xc0695758                min_low_pfn
                0xc069575c                max_pfn
                0xc0695760                sysctl_oom_dump_tasks
                0xc0695764                sysctl_panic_on_oom
                0xc0695768                sysctl_oom_kill_allocating_task
                0xc069576c                totalreserve_pages
                0xc0695770                page_group_by_mobility_disabled
                0xc0695774                percpu_pagelist_fraction
                0xc0695778                totalram_pages
                0xc0695780                hashdist
                0xc0695784                nr_swap_pages
                0xc0695804                laptop_mode
                0xc069580c                vm_highmem_is_dirtyable
                0xc0695810                block_dump
                0xc069581c                nr_pdflush_threads
                0xc0695820                page_cluster
                0xc06959a4                scan_unevictable_pages
                0xc06959a8                vm_total_pages
                0xc06959ac                per_cpu__vm_event_states
                0xc0695a34                vm_stat
                0xc0695a84                mminit_loglevel
                0xc0695a88                mm_kobj
                0xc0695a8c                num_physpages
                0xc0695a90                high_memory
                0xc0695a94                vm_committed_space
                0xc0695a98                sysctl_overcommit_memory
                0xc0695ab8                vmlist
                0xc0695ac8                vmlist_lock
                0xc069635c                total_swap_pages
                0xc0696368                swap_token_mm
 .bss           0xc06963b8     0x1e20 fs/built-in.o
                0xc06963c4                files_lock
                0xc0696420                sb_lock
                0xc0696820                core_uses_pid
                0xc0696824                suid_dumpable
                0xc069683c                names_cachep
                0xc0696840                filp_cachep
                0xc0696848                rename_lock
                0xc069684c                inodes_stat
                0xc069684c                dcache_lock
                0xc0696878                inode_lock
                0xc06969bc                fs_kobj
                0xc06969ec                vfsmount_lock
                0xc06969ec                sysctl_drop_caches
                0xc0696a00                buffer_heads_over_limit
                0xc0696a34                fs_bio_set
                0xc0696a44                blockdev_superblock
                0xc0696b08                aio_nr
                0xc0696b18                proc_mnt
                0xc0696b30                proc_subdir_lock
                0xc0697b4c                sysfs_dir_cachep
                0xc0697b4c                sysfs_assoc_lock
                0xc0697b54                sysfs_sb
                0xc0697b88                jbd_handle_cache
                0xc0697bc8                nfsiod_workqueue
                0xc0697bec                nfs_congestion_kb
                0xc0697cd4                nlmsvc_timeout
                0xc0697cd8                nlmsvc_ops
                0xc0697cdc                nsm_use_hostnames
                0xc0697f04                nsm_local_state
                0xc069809c                cifs_req_poolp
                0xc06980a4                cifs_sm_req_poolp
                0xc06980ac                cifs_mid_poolp
                0xc06980b4                cifs_oplock_cachep
                0xc06980b8                cifsFYI
                0xc06980c0                oplockThread
                0xc06980c8                cifs_tcp_ses_list
                0xc06980d0                GlobalOplock_Q
                0xc06980d8                GlobalDnotifyReqList
                0xc06980e0                GlobalDnotifyRsp_Q
                0xc06980e8                sesInfoAllocCount
                0xc06980ec                tconInfoAllocCount
                0xc06980f0                tcpSesAllocCount
                0xc06980f4                tcpSesReconnectCount
                0xc06980f8                tconInfoReconnectCount
                0xc06980fc                bufAllocCount
                0xc0698100                smBufAllocCount
                0xc0698104                totBufAllocCount
                0xc0698108                totSmBufAllocCount
                0xc069810c                midCount
                0xc0698110                GlobalCurrentXid
                0xc0698114                GlobalTotalActiveXid
                0xc0698118                GlobalMaxActiveXid
                0xc069811c                Local_System_Name
                0xc069812c                traceSMB
                0xc0698130                experimEnabled
                0xc0698134                multiuser_mount
                0xc0698138                GlobalMid_Lock
                0xc0698138                GlobalSMBSeslock
                0xc0698138                cifs_tcp_ses_lock
 .bss           0xc06981d8        0x4 ipc/built-in.o
 .bss           0xc06981dc        0x0 security/built-in.o
 .bss           0xc06981dc        0x8 crypto/built-in.o
 .bss           0xc06981e4      0x464 block/built-in.o
                0xc0698200                blk_requestq_cachep
                0xc0698204                blk_max_low_pfn
                0xc0698208                blk_max_pfn
 .bss           0xc0698648        0x0 arch/arm/lib/lib.a(ashldi3.o)
 .bss           0xc0698648        0x0 arch/arm/lib/lib.a(ashrdi3.o)
 .bss           0xc0698648        0x0 arch/arm/lib/lib.a(backtrace.o)
 .bss           0xc0698648        0x0 arch/arm/lib/lib.a(changebit.o)
 .bss           0xc0698648        0x0 arch/arm/lib/lib.a(clear_user.o)
 .bss           0xc0698648        0x0 arch/arm/lib/lib.a(clearbit.o)
 .bss           0xc0698648        0x0 arch/arm/lib/lib.a(copy_from_user.o)
 .bss           0xc0698648        0x0 arch/arm/lib/lib.a(copy_page.o)
 .bss           0xc0698648        0x0 arch/arm/lib/lib.a(copy_to_user.o)
 .bss           0xc0698648        0x0 arch/arm/lib/lib.a(csumipv6.o)
 .bss           0xc0698648        0x0 arch/arm/lib/lib.a(csumpartial.o)
 .bss           0xc0698648        0x0 arch/arm/lib/lib.a(csumpartialcopy.o)
 .bss           0xc0698648        0x0 arch/arm/lib/lib.a(csumpartialcopyuser.o)
 .bss           0xc0698648        0x0 arch/arm/lib/lib.a(delay.o)
 .bss           0xc0698648        0x0 arch/arm/lib/lib.a(div64.o)
 .bss           0xc0698648        0x0 arch/arm/lib/lib.a(findbit.o)
 .bss           0xc0698648        0x0 arch/arm/lib/lib.a(getuser.o)
 .bss           0xc0698648        0x0 arch/arm/lib/lib.a(io-readsb.o)
 .bss           0xc0698648        0x0 arch/arm/lib/lib.a(io-readsl.o)
 .bss           0xc0698648        0x0 arch/arm/lib/lib.a(io-readsw-armv4.o)
 .bss           0xc0698648        0x0 arch/arm/lib/lib.a(io-writesb.o)
 .bss           0xc0698648        0x0 arch/arm/lib/lib.a(io-writesl.o)
 .bss           0xc0698648        0x0 arch/arm/lib/lib.a(io-writesw-armv4.o)
 .bss           0xc0698648        0x0 arch/arm/lib/lib.a(lib1funcs.o)
 .bss           0xc0698648        0x0 arch/arm/lib/lib.a(lshrdi3.o)
 .bss           0xc0698648        0x0 arch/arm/lib/lib.a(memchr.o)
 .bss           0xc0698648        0x0 arch/arm/lib/lib.a(memcpy.o)
 .bss           0xc0698648        0x0 arch/arm/lib/lib.a(memmove.o)
 .bss           0xc0698648        0x0 arch/arm/lib/lib.a(memset.o)
 .bss           0xc0698648        0x0 arch/arm/lib/lib.a(memzero.o)
 .bss           0xc0698648        0x0 arch/arm/lib/lib.a(muldi3.o)
 .bss           0xc0698648        0x0 arch/arm/lib/lib.a(putuser.o)
 .bss           0xc0698648        0x0 arch/arm/lib/lib.a(setbit.o)
 .bss           0xc0698648        0x0 arch/arm/lib/lib.a(sha1.o)
 .bss           0xc0698648        0x0 arch/arm/lib/lib.a(strchr.o)
 .bss           0xc0698648        0x0 arch/arm/lib/lib.a(strncpy_from_user.o)
 .bss           0xc0698648        0x0 arch/arm/lib/lib.a(strnlen_user.o)
 .bss           0xc0698648        0x0 arch/arm/lib/lib.a(strrchr.o)
 .bss           0xc0698648        0x0 arch/arm/lib/lib.a(testchangebit.o)
 .bss           0xc0698648        0x0 arch/arm/lib/lib.a(testclearbit.o)
 .bss           0xc0698648        0x0 arch/arm/lib/lib.a(testsetbit.o)
 .bss           0xc0698648        0x0 arch/arm/lib/lib.a(ucmpdi2.o)
 .bss           0xc0698648        0x0 lib/lib.a(argv_split.o)
 .bss           0xc0698648        0x0 lib/lib.a(cmdline.o)
 .bss           0xc0698648        0x0 lib/lib.a(ctype.o)
 .bss           0xc0698648        0x0 lib/lib.a(dec_and_lock.o)
 .bss           0xc0698648        0x0 lib/lib.a(extable.o)
 .bss           0xc0698648        0x4 lib/lib.a(idr.o)
 .bss           0xc069864c        0x0 lib/lib.a(int_sqrt.o)
 .bss           0xc069864c        0x4 lib/lib.a(irq_regs.o)
                0xc069864c                per_cpu____irq_regs
 .bss           0xc0698650        0x0 lib/lib.a(kobject.o)
 .bss           0xc0698650        0x0 lib/lib.a(kref.o)
 .bss           0xc0698650       0x80 lib/lib.a(prio_tree.o)
 .bss           0xc06986d0        0x0 lib/lib.a(proportions.o)
 .bss           0xc06986d0       0x3c lib/lib.a(radix-tree.o)
                0xc06986f0                per_cpu__radix_tree_preloads
 .bss           0xc069870c        0x0 lib/lib.a(ratelimit.o)
 .bss           0xc069870c        0x0 lib/lib.a(rbtree.o)
 .bss           0xc069870c        0x0 lib/lib.a(reciprocal_div.o)
 .bss           0xc069870c        0x0 lib/lib.a(rwsem-spinlock.o)
 .bss           0xc069870c        0x0 lib/lib.a(string.o)
 .bss           0xc069870c        0x0 lib/lib.a(vsprintf.o)
 .bss           0xc069870c      0x8f8 lib/built-in.o
                0xc069870c                debug_locks_silent
 *fill*         0xc0699004       0x1c 00
 .bss           0xc0699020    0x22648 drivers/built-in.o
                0xc0699320                registered_fb
                0xc06993a0                fb_class
                0xc0699428                num_registered_fb
                0xc069942c                fb_mode_option
                0xc0699920                tty_class
                0xc06999f0                ptm_driver
                0xc0699f10                devices_kset
                0xc0699f14                sysfs_dev_char_kobj
                0xc0699f18                sysfs_dev_block_kobj
                0xc0699f20                platform_notify_remove
                0xc0699f24                platform_notify
                0xc0699f3c                firmware_kobj
                0xc069a6a4                scsi_logging_level
                0xc069a6b8                scsi_sdb_cache
                0xc069a6bc                blank_transport_template
                0xc069ad00                mtd_table
                0xc06bae6c                ksuspend_usb_wq
                0xc06bae84                polling_dev
                0xc06bae88                mon_ops
                0xc06bae98                usb_hcds_loaded
                0xc06bb2fc                mon_bus0
                0xc06bb384                fotg2xx_wCurrentInterruptMask
                0xc06bb49c                eCurURBSpeed
                0xc06bb600                rtc_class
                0xc06bb618                __i2c_first_dynamic_bus_num
 .bss           0xc06bb668      0x7a4 sound/built-in.o
                0xc06bb6a8                sound_class
                0xc06bb6ac                snd_major
                0xc06bb6b0                snd_ecards_limit
                0xc06bbabc                snd_mixer_oss_notify_callback
                0xc06bbac0                snd_cards
                0xc06bbb0c                snd_oss_root
                0xc06bbb10                snd_seq_root
                0xc06bbde4                snd_pcm_link_rwlock
 *fill*         0xc06bbe0c        0x4 00
 .bss           0xc06bbe10     0x609c net/built-in.o
                0xc06bc0a4                init_net
                0xc06bc338                per_cpu__softnet_data
                0xc06bc3f8                per_cpu__netdev_rx_stat
                0xc06bc5a4                dev_base_lock
                0xc06bc6a0                flow_cache_genid
                0xc06bc734                genl_sock
                0xc06bc73c                nf_hooks
                0xc06bca7c                proc_net_netfilter
                0xc06bca80                nf_afinfo
                0xc06bcbb8                inet_protos
                0xc06bcbb8                inet_peer_idlock
                0xc06bd0f8                ip_ra_chain
                0xc06bd0fc                ip_ra_lock
                0xc06bd100                sysctl_tcp_mem
                0xc06bd10c                sysctl_tcp_wmem
                0xc06bd118                sysctl_tcp_rmem
                0xc06bd124                tcp_memory_pressure
                0xc06bd128                tcp_memory_allocated
                0xc06bd12c                tcp_orphan_count
                0xc06bd130                tcp_sockets_allocated
                0xc06bd134                sysctl_tcp_abc
                0xc06bd138                sysctl_tcp_frto_response
                0xc06bd13c                sysctl_tcp_stdurg
                0xc06bd140                sysctl_tcp_nometrics_save
                0xc06bd144                sysctl_tcp_rfc1337
                0xc06bd148                sysctl_tcp_ecn
                0xc06bd14c                sysctl_tcp_workaround_signed_windows
                0xc06bd150                sysctl_tcp_mtu_probing
                0xc06bd154                sysctl_tcp_orphan_retries
                0xc06bd158                sysctl_tcp_tw_reuse
                0xc06bd15c                sysctl_tcp_low_latency
                0xc06bd160                sysctl_tcp_abort_on_overflow
                0xc06bd164                sysctl_tcp_syncookies
                0xc06bd168                sysctl_tcp_max_ssthresh
                0xc06bd570                sysctl_udp_mem
                0xc06bd57c                sysctl_udp_rmem_min
                0xc06bd580                sysctl_udp_wmem_min
                0xc06bd584                udp_hash
                0xc06bd784                udp_memory_allocated
                0xc06bd784                udp_hash_lock
                0xc06bd788                udplite_hash
                0xc06bd988                sysctl_ip_dynaddr
                0xc06bd9e4                sysctl_ip_nonlocal_bind
                0xc06bd9e8                inet_ehash_secret
                0xc06bd9ec                ipv4_config
                0xc06bde14                ip_nat_decode_session
                0xc06bdea4                xfrm_policy_count
                0xc06be030                xfrm_nl
                0xc06be444                unix_tot_inflight
                0xc06be460                rpciod_workqueue
                0xc06c1e94                proc_net_rpc
                0xc06c1e9c                rpc_debug
                0xc06c1ea0                nfs_debug
                0xc06c1ea4                nfsd_debug
                0xc06c1ea8                nlm_debug
 .bss           0xc06c1eac        0x0 lib/lib.a(klist.o)
 .bss           0xc06c1eac        0x0 .tmp_kallsyms2.o
 *(COMMON)
                0xc06c1eac                _end = .

.stab
 *(.stab)

.stabstr
 *(.stabstr)

.stab.excl
 *(.stab.excl)

.stab.exclstr
 *(.stab.exclstr)

.stab.index
 *(.stab.index)

.stab.indexstr
 *(.stab.indexstr)

.ARM.attributes
                0x00000000       0x27
 .ARM.attributes
                0x00000000       0x1b usr/built-in.o
 .ARM.attributes
                0x0000001b       0x1b arch/arm/kernel/head.o
 .ARM.attributes
                0x00000036       0x2b arch/arm/kernel/init_task.o
 .ARM.attributes
                0x00000061       0x2b init/built-in.o
 .ARM.attributes
                0x0000008c       0x2b arch/arm/mach-GM/platform-GM8126/built-in.o
 .ARM.attributes
                0x000000b7       0x29 arch/arm/kernel/built-in.o
 .ARM.attributes
                0x000000e0       0x29 arch/arm/mm/built-in.o
 .ARM.attributes
                0x00000109       0x2b arch/arm/mach-GM/built-in.o
 .ARM.attributes
                0x00000134       0x2b kernel/built-in.o
 .ARM.attributes
                0x0000015f       0x2b mm/built-in.o
 .ARM.attributes
                0x0000018a       0x2b fs/built-in.o
 .ARM.attributes
                0x000001b5       0x2b ipc/built-in.o
 .ARM.attributes
                0x000001e0       0x2b security/built-in.o
 .ARM.attributes
                0x0000020b       0x2b crypto/built-in.o
 .ARM.attributes
                0x00000236       0x2b block/built-in.o
 .ARM.attributes
                0x00000261       0x1b arch/arm/lib/lib.a(ashldi3.o)
 .ARM.attributes
                0x0000027c       0x1b arch/arm/lib/lib.a(ashrdi3.o)
 .ARM.attributes
                0x00000297       0x1b arch/arm/lib/lib.a(backtrace.o)
 .ARM.attributes
                0x000002b2       0x1b arch/arm/lib/lib.a(changebit.o)
 .ARM.attributes
                0x000002cd       0x1b arch/arm/lib/lib.a(clear_user.o)
 .ARM.attributes
                0x000002e8       0x1b arch/arm/lib/lib.a(clearbit.o)
 .ARM.attributes
                0x00000303       0x1b arch/arm/lib/lib.a(copy_from_user.o)
 .ARM.attributes
                0x0000031e       0x1b arch/arm/lib/lib.a(copy_page.o)
 .ARM.attributes
                0x00000339       0x1b arch/arm/lib/lib.a(copy_to_user.o)
 .ARM.attributes
                0x00000354       0x1b arch/arm/lib/lib.a(csumipv6.o)
 .ARM.attributes
                0x0000036f       0x1b arch/arm/lib/lib.a(csumpartial.o)
 .ARM.attributes
                0x0000038a       0x1b arch/arm/lib/lib.a(csumpartialcopy.o)
 .ARM.attributes
                0x000003a5       0x1b arch/arm/lib/lib.a(csumpartialcopyuser.o)
 .ARM.attributes
                0x000003c0       0x1b arch/arm/lib/lib.a(delay.o)
 .ARM.attributes
                0x000003db       0x1b arch/arm/lib/lib.a(div64.o)
 .ARM.attributes
                0x000003f6       0x1b arch/arm/lib/lib.a(findbit.o)
 .ARM.attributes
                0x00000411       0x1b arch/arm/lib/lib.a(getuser.o)
 .ARM.attributes
                0x0000042c       0x1b arch/arm/lib/lib.a(io-readsb.o)
 .ARM.attributes
                0x00000447       0x1b arch/arm/lib/lib.a(io-readsl.o)
 .ARM.attributes
                0x00000462       0x1b arch/arm/lib/lib.a(io-readsw-armv4.o)
 .ARM.attributes
                0x0000047d       0x1b arch/arm/lib/lib.a(io-writesb.o)
 .ARM.attributes
                0x00000498       0x1b arch/arm/lib/lib.a(io-writesl.o)
 .ARM.attributes
                0x000004b3       0x1b arch/arm/lib/lib.a(io-writesw-armv4.o)
 .ARM.attributes
                0x000004ce       0x1b arch/arm/lib/lib.a(lib1funcs.o)
 .ARM.attributes
                0x000004e9       0x1b arch/arm/lib/lib.a(lshrdi3.o)
 .ARM.attributes
                0x00000504       0x1b arch/arm/lib/lib.a(memchr.o)
 .ARM.attributes
                0x0000051f       0x1b arch/arm/lib/lib.a(memcpy.o)
 .ARM.attributes
                0x0000053a       0x1b arch/arm/lib/lib.a(memmove.o)
 .ARM.attributes
                0x00000555       0x1b arch/arm/lib/lib.a(memset.o)
 .ARM.attributes
                0x00000570       0x1b arch/arm/lib/lib.a(memzero.o)
 .ARM.attributes
                0x0000058b       0x1b arch/arm/lib/lib.a(muldi3.o)
 .ARM.attributes
                0x000005a6       0x1b arch/arm/lib/lib.a(putuser.o)
 .ARM.attributes
                0x000005c1       0x1b arch/arm/lib/lib.a(setbit.o)
 .ARM.attributes
                0x000005dc       0x1b arch/arm/lib/lib.a(sha1.o)
 .ARM.attributes
                0x000005f7       0x1b arch/arm/lib/lib.a(strchr.o)
 .ARM.attributes
                0x00000612       0x1b arch/arm/lib/lib.a(strncpy_from_user.o)
 .ARM.attributes
                0x0000062d       0x1b arch/arm/lib/lib.a(strnlen_user.o)
 .ARM.attributes
                0x00000648       0x1b arch/arm/lib/lib.a(strrchr.o)
 .ARM.attributes
                0x00000663       0x1b arch/arm/lib/lib.a(testchangebit.o)
 .ARM.attributes
                0x0000067e       0x1b arch/arm/lib/lib.a(testclearbit.o)
 .ARM.attributes
                0x00000699       0x1b arch/arm/lib/lib.a(testsetbit.o)
 .ARM.attributes
                0x000006b4       0x1b arch/arm/lib/lib.a(ucmpdi2.o)
 .ARM.attributes
                0x000006cf       0x2b lib/lib.a(argv_split.o)
 .ARM.attributes
                0x000006fa       0x2b lib/lib.a(cmdline.o)
 .ARM.attributes
                0x00000725       0x2b lib/lib.a(ctype.o)
 .ARM.attributes
                0x00000750       0x2b lib/lib.a(dec_and_lock.o)
 .ARM.attributes
                0x0000077b       0x2b lib/lib.a(extable.o)
 .ARM.attributes
                0x000007a6       0x2b lib/lib.a(idr.o)
 .ARM.attributes
                0x000007d1       0x2b lib/lib.a(int_sqrt.o)
 .ARM.attributes
                0x000007fc       0x2b lib/lib.a(irq_regs.o)
 .ARM.attributes
                0x00000827       0x2b lib/lib.a(kobject.o)
 .ARM.attributes
                0x00000852       0x2b lib/lib.a(kref.o)
 .ARM.attributes
                0x0000087d       0x2b lib/lib.a(prio_tree.o)
 .ARM.attributes
                0x000008a8       0x2b lib/lib.a(proportions.o)
 .ARM.attributes
                0x000008d3       0x2b lib/lib.a(radix-tree.o)
 .ARM.attributes
                0x000008fe       0x2b lib/lib.a(ratelimit.o)
 .ARM.attributes
                0x00000929       0x2b lib/lib.a(rbtree.o)
 .ARM.attributes
                0x00000954       0x2b lib/lib.a(reciprocal_div.o)
 .ARM.attributes
                0x0000097f       0x2b lib/lib.a(rwsem-spinlock.o)
 .ARM.attributes
                0x000009aa       0x2b lib/lib.a(string.o)
 .ARM.attributes
                0x000009d5       0x2b lib/lib.a(vsprintf.o)
 .ARM.attributes
                0x00000a00       0x2b lib/built-in.o
 .ARM.attributes
                0x00000a2b       0x2b drivers/built-in.o
 .ARM.attributes
                0x00000a56       0x2b sound/built-in.o
 .ARM.attributes
                0x00000a81       0x2b net/built-in.o
 .ARM.attributes
                0x00000aac       0x2b lib/lib.a(klist.o)
 .ARM.attributes
                0x00000ad7       0x1b .tmp_kallsyms2.o

.note.GNU-stack
                0x00000000        0x0
 .note.GNU-stack
                0x00000000        0x0 arch/arm/kernel/init_task.o
 .note.GNU-stack
                0x00000000        0x0 init/built-in.o
 .note.GNU-stack
                0x00000000        0x0 arch/arm/mach-GM/platform-GM8126/built-in.o
 .note.GNU-stack
                0x00000000        0x0 arch/arm/kernel/built-in.o
 .note.GNU-stack
                0x00000000        0x0 arch/arm/mm/built-in.o
 .note.GNU-stack
                0x00000000        0x0 arch/arm/mach-GM/built-in.o
 .note.GNU-stack
                0x00000000        0x0 kernel/built-in.o
 .note.GNU-stack
                0x00000000        0x0 mm/built-in.o
 .note.GNU-stack
                0x00000000        0x0 fs/built-in.o
 .note.GNU-stack
                0x00000000        0x0 ipc/built-in.o
 .note.GNU-stack
                0x00000000        0x0 security/built-in.o
 .note.GNU-stack
                0x00000000        0x0 crypto/built-in.o
 .note.GNU-stack
                0x00000000        0x0 block/built-in.o
 .note.GNU-stack
                0x00000000        0x0 lib/lib.a(argv_split.o)
 .note.GNU-stack
                0x00000000        0x0 lib/lib.a(cmdline.o)
 .note.GNU-stack
                0x00000000        0x0 lib/lib.a(ctype.o)
 .note.GNU-stack
                0x00000000        0x0 lib/lib.a(dec_and_lock.o)
 .note.GNU-stack
                0x00000000        0x0 lib/lib.a(extable.o)
 .note.GNU-stack
                0x00000000        0x0 lib/lib.a(idr.o)
 .note.GNU-stack
                0x00000000        0x0 lib/lib.a(int_sqrt.o)
 .note.GNU-stack
                0x00000000        0x0 lib/lib.a(irq_regs.o)
 .note.GNU-stack
                0x00000000        0x0 lib/lib.a(kobject.o)
 .note.GNU-stack
                0x00000000        0x0 lib/lib.a(kref.o)
 .note.GNU-stack
                0x00000000        0x0 lib/lib.a(prio_tree.o)
 .note.GNU-stack
                0x00000000        0x0 lib/lib.a(proportions.o)
 .note.GNU-stack
                0x00000000        0x0 lib/lib.a(radix-tree.o)
 .note.GNU-stack
                0x00000000        0x0 lib/lib.a(ratelimit.o)
 .note.GNU-stack
                0x00000000        0x0 lib/lib.a(rbtree.o)
 .note.GNU-stack
                0x00000000        0x0 lib/lib.a(reciprocal_div.o)
 .note.GNU-stack
                0x00000000        0x0 lib/lib.a(rwsem-spinlock.o)
 .note.GNU-stack
                0x00000000        0x0 lib/lib.a(string.o)
 .note.GNU-stack
                0x00000000        0x0 lib/lib.a(vsprintf.o)
 .note.GNU-stack
                0x00000000        0x0 lib/built-in.o
 .note.GNU-stack
                0x00000000        0x0 drivers/built-in.o
 .note.GNU-stack
                0x00000000        0x0 sound/built-in.o
 .note.GNU-stack
                0x00000000        0x0 net/built-in.o
 .note.GNU-stack
                0x00000000        0x0 lib/lib.a(klist.o)

.comment        0x00000000       0x35
 *(.comment)
 .comment       0x00000000       0x35 arch/arm/kernel/init_task.o
                                 0x36 (size before relaxing)
 .comment       0x00000000      0x17a init/built-in.o
 .comment       0x00000000       0xd8 arch/arm/mach-GM/platform-GM8126/built-in.o
 .comment       0x00000000      0x32a arch/arm/kernel/built-in.o
 .comment       0x00000000      0x2f4 arch/arm/mm/built-in.o
 .comment       0x00000000      0x17a arch/arm/mach-GM/built-in.o
 .comment       0x00000000      0xe22 kernel/built-in.o
 .comment       0x00000000      0x8a6 mm/built-in.o
 .comment       0x00000000     0x31fe fs/built-in.o
 .comment       0x00000000      0x17a ipc/built-in.o
 .comment       0x00000000       0x36 security/built-in.o
 .comment       0x00000000       0xd8 crypto/built-in.o
 .comment       0x00000000      0x438 block/built-in.o
 .comment       0x00000000       0x36 lib/lib.a(argv_split.o)
 .comment       0x00000000       0x36 lib/lib.a(cmdline.o)
 .comment       0x00000000       0x36 lib/lib.a(ctype.o)
 .comment       0x00000000       0x36 lib/lib.a(dec_and_lock.o)
 .comment       0x00000000       0x36 lib/lib.a(extable.o)
 .comment       0x00000000       0x36 lib/lib.a(idr.o)
 .comment       0x00000000       0x36 lib/lib.a(int_sqrt.o)
 .comment       0x00000000       0x36 lib/lib.a(irq_regs.o)
 .comment       0x00000000       0x36 lib/lib.a(kobject.o)
 .comment       0x00000000       0x36 lib/lib.a(kref.o)
 .comment       0x00000000       0x36 lib/lib.a(prio_tree.o)
 .comment       0x00000000       0x36 lib/lib.a(proportions.o)
 .comment       0x00000000       0x36 lib/lib.a(radix-tree.o)
 .comment       0x00000000       0x36 lib/lib.a(ratelimit.o)
 .comment       0x00000000       0x36 lib/lib.a(rbtree.o)
 .comment       0x00000000       0x36 lib/lib.a(reciprocal_div.o)
 .comment       0x00000000       0x36 lib/lib.a(rwsem-spinlock.o)
 .comment       0x00000000       0x36 lib/lib.a(string.o)
 .comment       0x00000000       0x36 lib/lib.a(vsprintf.o)
 .comment       0x00000000      0x61e lib/built-in.o
 .comment       0x00000000     0x28ec drivers/built-in.o
 .comment       0x00000000      0x61e sound/built-in.o
 .comment       0x00000000     0x1842 net/built-in.o
 .comment       0x00000000       0x36 lib/lib.a(klist.o)
                0x00000034                ASSERT ((__proc_info_end - __proc_info_begin), missing CPU support)
                0x00000034                ASSERT ((__arch_info_end - __arch_info_begin), no machine record defined)
LOAD arch/arm/kernel/head.o
LOAD arch/arm/kernel/init_task.o
LOAD init/built-in.o
START GROUP
LOAD usr/built-in.o
LOAD arch/arm/mach-GM/platform-GM8126/built-in.o
LOAD arch/arm/kernel/built-in.o
LOAD arch/arm/mm/built-in.o
LOAD arch/arm/common/built-in.o
LOAD arch/arm/mach-GM/built-in.o
LOAD kernel/built-in.o
LOAD mm/built-in.o
LOAD fs/built-in.o
LOAD ipc/built-in.o
LOAD security/built-in.o
LOAD crypto/built-in.o
LOAD block/built-in.o
LOAD arch/arm/lib/lib.a
LOAD lib/lib.a
LOAD arch/arm/lib/built-in.o
LOAD lib/built-in.o
LOAD drivers/built-in.o
LOAD sound/built-in.o
LOAD firmware/built-in.o
LOAD net/built-in.o
END GROUP
LOAD .tmp_kallsyms2.o
OUTPUT(vmlinux elf32-littlearm)

.debug_abbrev   0x00000000    0xea8b9
 .debug_abbrev  0x00000000      0x2bf arch/arm/kernel/init_task.o
 .debug_abbrev  0x000002bf     0x1b53 init/built-in.o
 .debug_abbrev  0x00001e12      0xdaa arch/arm/mach-GM/platform-GM8126/built-in.o
 .debug_abbrev  0x00002bbc     0x3a83 arch/arm/kernel/built-in.o
 .debug_abbrev  0x0000663f     0x3850 arch/arm/mm/built-in.o
 .debug_abbrev  0x00009e8f     0x1e4d arch/arm/mach-GM/built-in.o
 .debug_abbrev  0x0000bcdc    0x136fa kernel/built-in.o
 .debug_abbrev  0x0001f3d6     0xc4b8 mm/built-in.o
 .debug_abbrev  0x0002b88e    0x44970 fs/built-in.o
 .debug_abbrev  0x000701fe     0x21a1 ipc/built-in.o
 .debug_abbrev  0x0007239f      0x54c security/built-in.o
 .debug_abbrev  0x000728eb     0x1155 crypto/built-in.o
 .debug_abbrev  0x00073a40     0x60d8 block/built-in.o
 .debug_abbrev  0x00079b18      0x3e7 lib/lib.a(argv_split.o)
 .debug_abbrev  0x00079eff      0x354 lib/lib.a(cmdline.o)
 .debug_abbrev  0x0007a253      0x282 lib/lib.a(ctype.o)
 .debug_abbrev  0x0007a4d5      0x327 lib/lib.a(dec_and_lock.o)
 .debug_abbrev  0x0007a7fc      0x30d lib/lib.a(extable.o)
 .debug_abbrev  0x0007ab09      0x5a3 lib/lib.a(idr.o)
 .debug_abbrev  0x0007b0ac      0x2a8 lib/lib.a(int_sqrt.o)
 .debug_abbrev  0x0007b354      0x282 lib/lib.a(irq_regs.o)
 .debug_abbrev  0x0007b5d6      0x5b5 lib/lib.a(kobject.o)
 .debug_abbrev  0x0007bb8b      0x37b lib/lib.a(kref.o)
 .debug_abbrev  0x0007bf06      0x3d7 lib/lib.a(prio_tree.o)
 .debug_abbrev  0x0007c2dd      0x435 lib/lib.a(proportions.o)
 .debug_abbrev  0x0007c712      0x55a lib/lib.a(radix-tree.o)
 .debug_abbrev  0x0007cc6c      0x352 lib/lib.a(ratelimit.o)
 .debug_abbrev  0x0007cfbe      0x429 lib/lib.a(rbtree.o)
 .debug_abbrev  0x0007d3e7       0xad lib/lib.a(reciprocal_div.o)
 .debug_abbrev  0x0007d494      0x49e lib/lib.a(rwsem-spinlock.o)
 .debug_abbrev  0x0007d932      0x4b0 lib/lib.a(string.o)
 .debug_abbrev  0x0007dde2      0x4a5 lib/lib.a(vsprintf.o)
 .debug_abbrev  0x0007e287     0x581f lib/built-in.o
 .debug_abbrev  0x00083aa6    0x39aaa drivers/built-in.o
 .debug_abbrev  0x000bd550     0x8734 sound/built-in.o
 .debug_abbrev  0x000c5c84    0x2479c net/built-in.o
 .debug_abbrev  0x000ea420      0x499 lib/lib.a(klist.o)

.debug_info     0x00000000  0x1cbbf2b
 .debug_info    0x00000000     0x8727 arch/arm/kernel/init_task.o
 .debug_info    0x00008727    0x22a97 init/built-in.o
 .debug_info    0x0002b1be    0x11f8f arch/arm/mach-GM/platform-GM8126/built-in.o
 .debug_info    0x0003d14d    0x504d3 arch/arm/kernel/built-in.o
 .debug_info    0x0008d620    0x4a303 arch/arm/mm/built-in.o
 .debug_info    0x000d7923    0x22eae arch/arm/mach-GM/built-in.o
 .debug_info    0x000fa7d1   0x1c889e kernel/built-in.o
 .debug_info    0x002c306f   0x16da72 mm/built-in.o
 .debug_info    0x00430ae1   0x89785b fs/built-in.o
 .debug_info    0x00cc833c    0x3715f ipc/built-in.o
 .debug_info    0x00cff49b     0x85b8 security/built-in.o
 .debug_info    0x00d07a53    0x20f6e crypto/built-in.o
 .debug_info    0x00d289c1    0xce844 block/built-in.o
 .debug_info    0x00df7205     0x395a lib/lib.a(argv_split.o)
 .debug_info    0x00dfab5f     0x387d lib/lib.a(cmdline.o)
 .debug_info    0x00dfe3dc     0x3687 lib/lib.a(ctype.o)
 .debug_info    0x00e01a63     0x3ce6 lib/lib.a(dec_and_lock.o)
 .debug_info    0x00e05749     0x3742 lib/lib.a(extable.o)
 .debug_info    0x00e08e8b     0x5417 lib/lib.a(idr.o)
 .debug_info    0x00e0e2a2     0x36b6 lib/lib.a(int_sqrt.o)
 .debug_info    0x00e11958     0x36a8 lib/lib.a(irq_regs.o)
 .debug_info    0x00e15000     0x5305 lib/lib.a(kobject.o)
 .debug_info    0x00e1a305     0x3956 lib/lib.a(kref.o)
 .debug_info    0x00e1dc5b     0x1a98 lib/lib.a(prio_tree.o)
 .debug_info    0x00e1f6f3     0x1cd0 lib/lib.a(proportions.o)
 .debug_info    0x00e213c3     0x5670 lib/lib.a(radix-tree.o)
 .debug_info    0x00e26a33     0x3d73 lib/lib.a(ratelimit.o)
 .debug_info    0x00e2a7a6     0x3d61 lib/lib.a(rbtree.o)
 .debug_info    0x00e2e507      0x13b lib/lib.a(reciprocal_div.o)
 .debug_info    0x00e2e642     0x4d37 lib/lib.a(rwsem-spinlock.o)
 .debug_info    0x00e33379     0x444e lib/lib.a(string.o)
 .debug_info    0x00e377c7     0x4abc lib/lib.a(vsprintf.o)
 .debug_info    0x00e3c283    0x5e791 lib/built-in.o
 .debug_info    0x00e9aa14   0x6eda3a drivers/built-in.o
 .debug_info    0x0158844e   0x1059ac sound/built-in.o
 .debug_info    0x0168ddfa   0x6296a9 net/built-in.o
 .debug_info    0x01cb74a3     0x4a88 lib/lib.a(klist.o)

.debug_line     0x00000000   0x1d35c1
 .debug_line    0x00000000      0x62c arch/arm/kernel/init_task.o
 .debug_line    0x0000062c     0x2dc4 init/built-in.o
 .debug_line    0x000033f0     0x14ba arch/arm/mach-GM/platform-GM8126/built-in.o
 .debug_line    0x000048aa     0x5500 arch/arm/kernel/built-in.o
 .debug_line    0x00009daa     0x50e0 arch/arm/mm/built-in.o
 .debug_line    0x0000ee8a     0x3007 arch/arm/mach-GM/built-in.o
 .debug_line    0x00011e91    0x249b0 kernel/built-in.o
 .debug_line    0x00036841    0x1abc3 mm/built-in.o
 .debug_line    0x00051404    0x8c3a1 fs/built-in.o
 .debug_line    0x000dd7a5     0x4295 ipc/built-in.o
 .debug_line    0x000e1a3a      0x8ab security/built-in.o
 .debug_line    0x000e22e5     0x1a2e crypto/built-in.o
 .debug_line    0x000e3d13     0xb32d block/built-in.o
 .debug_line    0x000ef040      0x42f lib/lib.a(argv_split.o)
 .debug_line    0x000ef46f      0x417 lib/lib.a(cmdline.o)
 .debug_line    0x000ef886      0x3c4 lib/lib.a(ctype.o)
 .debug_line    0x000efc4a      0x44c lib/lib.a(dec_and_lock.o)
 .debug_line    0x000f0096      0x3ff lib/lib.a(extable.o)
 .debug_line    0x000f0495      0x851 lib/lib.a(idr.o)
 .debug_line    0x000f0ce6      0x3e7 lib/lib.a(int_sqrt.o)
 .debug_line    0x000f10cd      0x3d3 lib/lib.a(irq_regs.o)
 .debug_line    0x000f14a0      0x780 lib/lib.a(kobject.o)
 .debug_line    0x000f1c20      0x40b lib/lib.a(kref.o)
 .debug_line    0x000f202b      0x4bf lib/lib.a(prio_tree.o)
 .debug_line    0x000f24ea      0x4cf lib/lib.a(proportions.o)
 .debug_line    0x000f29b9      0x8d5 lib/lib.a(radix-tree.o)
 .debug_line    0x000f328e      0x484 lib/lib.a(ratelimit.o)
 .debug_line    0x000f3712      0x5c1 lib/lib.a(rbtree.o)
 .debug_line    0x000f3cd3       0xcb lib/lib.a(reciprocal_div.o)
 .debug_line    0x000f3d9e      0x6f6 lib/lib.a(rwsem-spinlock.o)
 .debug_line    0x000f4494      0x55a lib/lib.a(string.o)
 .debug_line    0x000f49ee      0x799 lib/lib.a(vsprintf.o)
 .debug_line    0x000f5187     0x79e2 lib/built-in.o
 .debug_line    0x000fcb69    0x69206 drivers/built-in.o
 .debug_line    0x00165d6f    0x108fb sound/built-in.o
 .debug_line    0x0017666a    0x5c939 net/built-in.o
 .debug_line    0x001d2fa3      0x61e lib/lib.a(klist.o)

.debug_pubnames
                0x00000000    0x27453
 .debug_pubnames
                0x00000000       0x42 arch/arm/kernel/init_task.o
 .debug_pubnames
                0x00000042      0x2f6 init/built-in.o
 .debug_pubnames
                0x00000338      0x9b6 arch/arm/mach-GM/platform-GM8126/built-in.o
 .debug_pubnames
                0x00000cee      0x919 arch/arm/kernel/built-in.o
 .debug_pubnames
                0x00001607      0x529 arch/arm/mm/built-in.o
 .debug_pubnames
                0x00001b30      0x6fc arch/arm/mach-GM/built-in.o
 .debug_pubnames
                0x0000222c     0x5229 kernel/built-in.o
 .debug_pubnames
                0x00007455     0x2bfe mm/built-in.o
 .debug_pubnames
                0x0000a053     0xa0c3 fs/built-in.o
 .debug_pubnames
                0x00014116      0x3f7 ipc/built-in.o
 .debug_pubnames
                0x0001450d      0x22b security/built-in.o
 .debug_pubnames
                0x00014738      0x268 crypto/built-in.o
 .debug_pubnames
                0x000149a0     0x11ae block/built-in.o
 .debug_pubnames
                0x00015b4e       0x2f lib/lib.a(argv_split.o)
 .debug_pubnames
                0x00015b7d       0x3e lib/lib.a(cmdline.o)
 .debug_pubnames
                0x00015bbb       0x1d lib/lib.a(ctype.o)
 .debug_pubnames
                0x00015bd8       0x2b lib/lib.a(dec_and_lock.o)
 .debug_pubnames
                0x00015c03       0x36 lib/lib.a(extable.o)
 .debug_pubnames
                0x00015c39      0x12a lib/lib.a(idr.o)
 .debug_pubnames
                0x00015d63       0x1f lib/lib.a(int_sqrt.o)
 .debug_pubnames
                0x00015d82       0x2a lib/lib.a(irq_regs.o)
 .debug_pubnames
                0x00015dac      0x169 lib/lib.a(kobject.o)
 .debug_pubnames
                0x00015f15       0x47 lib/lib.a(kref.o)
 .debug_pubnames
                0x00015f5c       0x78 lib/lib.a(prio_tree.o)
 .debug_pubnames
                0x00015fd4      0x12b lib/lib.a(proportions.o)
 .debug_pubnames
                0x000160ff      0x198 lib/lib.a(radix-tree.o)
 .debug_pubnames
                0x00016297       0x22 lib/lib.a(ratelimit.o)
 .debug_pubnames
                0x000162b9       0x78 lib/lib.a(rbtree.o)
 .debug_pubnames
                0x00016331       0x27 lib/lib.a(reciprocal_div.o)
 .debug_pubnames
                0x00016358       0xc0 lib/lib.a(rwsem-spinlock.o)
 .debug_pubnames
                0x00016418      0x12b lib/lib.a(string.o)
 .debug_pubnames
                0x00016543      0x112 lib/lib.a(vsprintf.o)
 .debug_pubnames
                0x00016655      0xa25 lib/built-in.o
 .debug_pubnames
                0x0001707a     0x78af drivers/built-in.o
 .debug_pubnames
                0x0001e929     0x16aa sound/built-in.o
 .debug_pubnames
                0x0001ffd3     0x7389 net/built-in.o
 .debug_pubnames
                0x0002735c       0xf7 lib/lib.a(klist.o)

.debug_str      0x00000000    0xb31d1
 .debug_str     0x00000000     0x2c94 arch/arm/kernel/init_task.o
                               0x41a6 (size before relaxing)
 .debug_str     0x00002c94     0x1f3b init/built-in.o
                               0xfc85 (size before relaxing)
 .debug_str     0x00004bcf     0x2138 arch/arm/mach-GM/platform-GM8126/built-in.o
                               0xa75b (size before relaxing)
 .debug_str     0x00006d07     0x2b78 arch/arm/kernel/built-in.o
                              0x27047 (size before relaxing)
 .debug_str     0x0000987f     0x1950 arch/arm/mm/built-in.o
                              0x24542 (size before relaxing)
 .debug_str     0x0000b1cf     0x17b2 arch/arm/mach-GM/built-in.o
                              0x10f2f (size before relaxing)
 .debug_str     0x0000c981    0x1248e kernel/built-in.o
                              0xc7873 (size before relaxing)
 .debug_str     0x0001ee0f     0x92c2 mm/built-in.o
                              0x993c8 (size before relaxing)
 .debug_str     0x000280d1    0x287a1 fs/built-in.o
                             0x3d7f1e (size before relaxing)
 .debug_str     0x00050872     0x10e6 ipc/built-in.o
                              0x166b7 (size before relaxing)
 .debug_str     0x00051958      0x303 security/built-in.o
                               0x3d21 (size before relaxing)
 .debug_str     0x00051c5b      0xc69 crypto/built-in.o
                               0xf1d5 (size before relaxing)
 .debug_str     0x000528c4     0x51bb block/built-in.o
                              0x5faa5 (size before relaxing)
 .debug_str     0x00057a7f       0x8c lib/lib.a(argv_split.o)
                               0x1e22 (size before relaxing)
 .debug_str     0x00057b0b       0xc9 lib/lib.a(cmdline.o)
                               0x1e3f (size before relaxing)
 .debug_str     0x00057bd4       0x2e lib/lib.a(ctype.o)
                               0x1d7f (size before relaxing)
 .debug_str     0x00057c02       0x51 lib/lib.a(dec_and_lock.o)
                               0x1fbb (size before relaxing)
 .debug_str     0x00057c53       0x31 lib/lib.a(extable.o)
                               0x1d88 (size before relaxing)
 .debug_str     0x00057c84      0x3c8 lib/lib.a(idr.o)
                               0x24a5 (size before relaxing)
 .debug_str     0x0005804c       0x35 lib/lib.a(int_sqrt.o)
                               0x1d88 (size before relaxing)
 .debug_str     0x00058081       0x4b lib/lib.a(irq_regs.o)
                               0x1db7 (size before relaxing)
 .debug_str     0x000580cc      0x44b lib/lib.a(kobject.o)
                               0x261b (size before relaxing)
 .debug_str     0x00058517       0xa5 lib/lib.a(kref.o)
                               0x1e4b (size before relaxing)
 .debug_str     0x000585bc      0x127 lib/lib.a(prio_tree.o)
                                0xbce (size before relaxing)
 .debug_str     0x000586e3      0x1db lib/lib.a(proportions.o)
                                0xad5 (size before relaxing)
 .debug_str     0x000588be      0x544 lib/lib.a(radix-tree.o)
                               0x26a1 (size before relaxing)
 .debug_str     0x00058e02       0x4b lib/lib.a(ratelimit.o)
                               0x1fde (size before relaxing)
 .debug_str     0x00058e4d      0x18b lib/lib.a(rbtree.o)
                               0x1f46 (size before relaxing)
 .debug_str     0x00058fd8       0x26 lib/lib.a(reciprocal_div.o)
                                0x115 (size before relaxing)
 .debug_str     0x00058ffe      0x234 lib/lib.a(rwsem-spinlock.o)
                               0x22a0 (size before relaxing)
 .debug_str     0x00059232      0x35a lib/lib.a(string.o)
                               0x21ab (size before relaxing)
 .debug_str     0x0005958c      0x33d lib/lib.a(vsprintf.o)
                               0x221e (size before relaxing)
 .debug_str     0x000598c9     0x206f lib/built-in.o
                              0x30915 (size before relaxing)
 .debug_str     0x0005b938    0x2d2a0 drivers/built-in.o
                             0x324503 (size before relaxing)
 .debug_str     0x00088bd8     0x7c1e sound/built-in.o
                              0x72c2e (size before relaxing)
 .debug_str     0x000907f6    0x22705 net/built-in.o
                             0x2b879e (size before relaxing)
 .debug_str     0x000b2efb      0x2d6 lib/lib.a(klist.o)
                               0x23ba (size before relaxing)

.debug_aranges  0x00000000     0x7a60
 .debug_aranges
                0x00000000      0x298 init/built-in.o
 .debug_aranges
                0x00000298       0x98 arch/arm/mach-GM/platform-GM8126/built-in.o
 .debug_aranges
                0x00000330      0x290 arch/arm/kernel/built-in.o
 .debug_aranges
                0x000005c0      0x230 arch/arm/mm/built-in.o
 .debug_aranges
                0x000007f0      0x120 arch/arm/mach-GM/built-in.o
 .debug_aranges
                0x00000910      0xc10 kernel/built-in.o
 .debug_aranges
                0x00001520      0x6f8 mm/built-in.o
 .debug_aranges
                0x00001c18     0x20c8 fs/built-in.o
 .debug_aranges
                0x00003ce0      0x110 ipc/built-in.o
 .debug_aranges
                0x00003df0       0x20 security/built-in.o
 .debug_aranges
                0x00003e10       0x80 crypto/built-in.o
 .debug_aranges
                0x00003e90      0x300 block/built-in.o
 .debug_aranges
                0x00004190       0x20 lib/lib.a(argv_split.o)
 .debug_aranges
                0x000041b0       0x20 lib/lib.a(cmdline.o)
 .debug_aranges
                0x000041d0       0x20 lib/lib.a(dec_and_lock.o)
 .debug_aranges
                0x000041f0       0x20 lib/lib.a(extable.o)
 .debug_aranges
                0x00004210       0x28 lib/lib.a(idr.o)
 .debug_aranges
                0x00004238       0x20 lib/lib.a(int_sqrt.o)
 .debug_aranges
                0x00004258       0x20 lib/lib.a(kobject.o)
 .debug_aranges
                0x00004278       0x20 lib/lib.a(kref.o)
 .debug_aranges
                0x00004298       0x28 lib/lib.a(prio_tree.o)
 .debug_aranges
                0x000042c0       0x20 lib/lib.a(proportions.o)
 .debug_aranges
                0x000042e0       0x28 lib/lib.a(radix-tree.o)
 .debug_aranges
                0x00004308       0x20 lib/lib.a(ratelimit.o)
 .debug_aranges
                0x00004328       0x20 lib/lib.a(rbtree.o)
 .debug_aranges
                0x00004348       0x20 lib/lib.a(reciprocal_div.o)
 .debug_aranges
                0x00004368       0x38 lib/lib.a(rwsem-spinlock.o)
 .debug_aranges
                0x000043a0       0x20 lib/lib.a(string.o)
 .debug_aranges
                0x000043c0       0x20 lib/lib.a(vsprintf.o)
 .debug_aranges
                0x000043e0      0x388 lib/built-in.o
 .debug_aranges
                0x00004768     0x1cb0 drivers/built-in.o
 .debug_aranges
                0x00006418      0x460 sound/built-in.o
 .debug_aranges
                0x00006878     0x11c8 net/built-in.o
 .debug_aranges
                0x00007a40       0x20 lib/lib.a(klist.o)

.debug_frame    0x00000000    0x6f3b4
 .debug_frame   0x00000000      0xa1c init/built-in.o
 .debug_frame   0x00000a1c      0x300 arch/arm/mach-GM/platform-GM8126/built-in.o
 .debug_frame   0x00000d1c     0x1218 arch/arm/kernel/built-in.o
 .debug_frame   0x00001f34      0xc3c arch/arm/mm/built-in.o
 .debug_frame   0x00002b70      0xcc8 arch/arm/mach-GM/built-in.o
 .debug_frame   0x00003838     0xb014 kernel/built-in.o
 .debug_frame   0x0000e84c     0x61a8 mm/built-in.o
 .debug_frame   0x000149f4    0x1e130 fs/built-in.o
 .debug_frame   0x00032b24      0xe10 ipc/built-in.o
 .debug_frame   0x00033934      0x334 security/built-in.o
 .debug_frame   0x00033c68      0x64c crypto/built-in.o
 .debug_frame   0x000342b4     0x3974 block/built-in.o
 .debug_frame   0x00037c28       0x60 lib/lib.a(argv_split.o)
 .debug_frame   0x00037c88       0x84 lib/lib.a(cmdline.o)
 .debug_frame   0x00037d0c       0x30 lib/lib.a(dec_and_lock.o)
 .debug_frame   0x00037d3c       0x70 lib/lib.a(extable.o)
 .debug_frame   0x00037dac      0x380 lib/lib.a(idr.o)
 .debug_frame   0x0003812c       0x30 lib/lib.a(int_sqrt.o)
 .debug_frame   0x0003815c      0x3d8 lib/lib.a(kobject.o)
 .debug_frame   0x00038534       0x98 lib/lib.a(kref.o)
 .debug_frame   0x000385cc      0x110 lib/lib.a(prio_tree.o)
 .debug_frame   0x000386dc      0x238 lib/lib.a(proportions.o)
 .debug_frame   0x00038914      0x2fc lib/lib.a(radix-tree.o)
 .debug_frame   0x00038c10       0x34 lib/lib.a(ratelimit.o)
 .debug_frame   0x00038c44      0x144 lib/lib.a(rbtree.o)
 .debug_frame   0x00038d88       0x34 lib/lib.a(reciprocal_div.o)
 .debug_frame   0x00038dbc      0x164 lib/lib.a(rwsem-spinlock.o)
 .debug_frame   0x00038f20      0x31c lib/lib.a(string.o)
 .debug_frame   0x0003923c      0x2ec lib/lib.a(vsprintf.o)
 .debug_frame   0x00039528     0x1558 lib/built-in.o
 .debug_frame   0x0003aa80    0x1bc48 drivers/built-in.o
 .debug_frame   0x000566c8     0x45a8 sound/built-in.o
 .debug_frame   0x0005ac70    0x14528 net/built-in.o
 .debug_frame   0x0006f198      0x21c lib/lib.a(klist.o)

.debug_loc      0x00000000   0x1f5e7b
 .debug_loc     0x00000000     0x3b1a init/built-in.o
 .debug_loc     0x00003b1a      0x6cf arch/arm/mach-GM/platform-GM8126/built-in.o
 .debug_loc     0x000041e9     0x3a34 arch/arm/kernel/built-in.o
 .debug_loc     0x00007c1d     0x3cc6 arch/arm/mm/built-in.o
 .debug_loc     0x0000b8e3     0x2e1a arch/arm/mach-GM/built-in.o
 .debug_loc     0x0000e6fd    0x2aa62 kernel/built-in.o
 .debug_loc     0x0003915f    0x20121 mm/built-in.o
 .debug_loc     0x00059280    0x92b4f fs/built-in.o
 .debug_loc     0x000ebdcf     0x4926 ipc/built-in.o
 .debug_loc     0x000f06f5      0x741 security/built-in.o
 .debug_loc     0x000f0e36     0x11de crypto/built-in.o
 .debug_loc     0x000f2014     0xba6e block/built-in.o
 .debug_loc     0x000fda82      0x170 lib/lib.a(argv_split.o)
 .debug_loc     0x000fdbf2      0x1c8 lib/lib.a(cmdline.o)
 .debug_loc     0x000fddba       0x73 lib/lib.a(dec_and_lock.o)
 .debug_loc     0x000fde2d       0xb1 lib/lib.a(extable.o)
 .debug_loc     0x000fdede      0xccf lib/lib.a(idr.o)
 .debug_loc     0x000febad       0x27 lib/lib.a(int_sqrt.o)
 .debug_loc     0x000febd4      0x98b lib/lib.a(kobject.o)
 .debug_loc     0x000ff55f       0xf6 lib/lib.a(kref.o)
 .debug_loc     0x000ff655      0x578 lib/lib.a(prio_tree.o)
 .debug_loc     0x000ffbcd      0x63b lib/lib.a(proportions.o)
 .debug_loc     0x00100208     0x1121 lib/lib.a(radix-tree.o)
 .debug_loc     0x00101329       0x5b lib/lib.a(ratelimit.o)
 .debug_loc     0x00101384      0x56a lib/lib.a(rbtree.o)
 .debug_loc     0x001018ee       0x3f lib/lib.a(reciprocal_div.o)
 .debug_loc     0x0010192d      0x589 lib/lib.a(rwsem-spinlock.o)
 .debug_loc     0x00101eb6      0x61f lib/lib.a(string.o)
 .debug_loc     0x001024d5     0x119e lib/lib.a(vsprintf.o)
 .debug_loc     0x00103673     0x5bab lib/built-in.o
 .debug_loc     0x0010921e    0x732cd drivers/built-in.o
 .debug_loc     0x0017c4eb    0x17958 sound/built-in.o
 .debug_loc     0x00193e43    0x61c68 net/built-in.o
 .debug_loc     0x001f5aab      0x3d0 lib/lib.a(klist.o)

.debug_ranges   0x00000000    0x855d0
 .debug_ranges  0x00000000     0x1178 init/built-in.o
 .debug_ranges  0x00001178      0x348 arch/arm/mach-GM/platform-GM8126/built-in.o
 .debug_ranges  0x000014c0      0xd78 arch/arm/kernel/built-in.o
 .debug_ranges  0x00002238      0xf00 arch/arm/mm/built-in.o
 .debug_ranges  0x00003138      0xe50 arch/arm/mach-GM/built-in.o
 .debug_ranges  0x00003f88     0xc600 kernel/built-in.o
 .debug_ranges  0x00010588     0xb4f0 mm/built-in.o
 .debug_ranges  0x0001ba78    0x25228 fs/built-in.o
 .debug_ranges  0x00040ca0     0x1660 ipc/built-in.o
 .debug_ranges  0x00042300      0x520 security/built-in.o
 .debug_ranges  0x00042820      0x4f8 crypto/built-in.o
 .debug_ranges  0x00042d18     0x3368 block/built-in.o
 .debug_ranges  0x00046080       0x70 lib/lib.a(argv_split.o)
 .debug_ranges  0x000460f0       0x18 lib/lib.a(extable.o)
 .debug_ranges  0x00046108      0x3e8 lib/lib.a(idr.o)
 .debug_ranges  0x000464f0      0x180 lib/lib.a(kobject.o)
 .debug_ranges  0x00046670       0x30 lib/lib.a(kref.o)
 .debug_ranges  0x000466a0      0x160 lib/lib.a(prio_tree.o)
 .debug_ranges  0x00046800      0x1b0 lib/lib.a(proportions.o)
 .debug_ranges  0x000469b0      0x598 lib/lib.a(radix-tree.o)
 .debug_ranges  0x00046f48       0xb8 lib/lib.a(rbtree.o)
 .debug_ranges  0x00047000       0xf8 lib/lib.a(rwsem-spinlock.o)
 .debug_ranges  0x000470f8       0xa8 lib/lib.a(string.o)
 .debug_ranges  0x000471a0      0x1c8 lib/lib.a(vsprintf.o)
 .debug_ranges  0x00047368      0xba0 lib/built-in.o
 .debug_ranges  0x00047f08    0x18cd8 drivers/built-in.o
 .debug_ranges  0x00060be0     0x56c8 sound/built-in.o
 .debug_ranges  0x000662a8    0x1f1e0 net/built-in.o
 .debug_ranges  0x00085488      0x148 lib/lib.a(klist.o)
